Archive member included to satisfy reference by file (symbol)

D:\Work\Howell\MD\S17HOWDSPSW\ACCORD\Trunk\SourceCode\DisplayBoard\UCOS\Release\libUCOS.a(hdudispfoscpu.o)
                              BSP/hdudispfpbs.o (U32_critical_sr)
D:\Work\Howell\MD\S17HOWDSPSW\ACCORD\Trunk\SourceCode\DisplayBoard\UCOS\Release\libUCOS.a(hdudispfucos.o)
                              D:\Work\Howell\MD\S17HOWDSPSW\ACCORD\Trunk\SourceCode\DisplayBoard\UCOS\Release\libUCOS.a(hdudispfoscpu.o) (Os_tcb_prio_tbl)
D:\Work\Howell\MD\S17HOWDSPSW\ACCORD\Trunk\SourceCode\DisplayBoard\COMMON\Release\libCOMMON.a(hdudispfa429.o)
                              Shared/hdudispfforeground.o (Cas_data_recieved)
D:\Work\Howell\MD\S17HOWDSPSW\ACCORD\Trunk\SourceCode\DisplayBoard\COMMON\Release\libCOMMON.a(hdudispfbspnor.o)
                              src/hdudispfmain.o (BspNorInit)
D:\Work\Howell\MD\S17HOWDSPSW\ACCORD\Trunk\SourceCode\DisplayBoard\COMMON\Release\libCOMMON.a(hdudispfcas.o)
                              D:\Work\Howell\MD\S17HOWDSPSW\ACCORD\Trunk\SourceCode\DisplayBoard\COMMON\Release\libCOMMON.a(hdudispfa429.o) (U16_cas_words)
D:\Work\Howell\MD\S17HOWDSPSW\ACCORD\Trunk\SourceCode\DisplayBoard\COMMON\Release\libCOMMON.a(hdudispfcrc.o)
                              src/hdudispfpbit.o (CrcCalculate)
D:\Work\Howell\MD\S17HOWDSPSW\ACCORD\Trunk\SourceCode\DisplayBoard\COMMON\Release\libCOMMON.a(hdudispfdma2.o)
                              Shared/hdudispfforeground.o (Dma2ClearForeground)
D:\Work\Howell\MD\S17HOWDSPSW\ACCORD\Trunk\SourceCode\DisplayBoard\COMMON\Release\libCOMMON.a(hdudispfdma2d.o)
                              Shared/hdudispfforeground.o (Dma2dRgbToArgb4444)
D:\Work\Howell\MD\S17HOWDSPSW\ACCORD\Trunk\SourceCode\DisplayBoard\COMMON\Release\libCOMMON.a(hdudispfglobalsettings.o)
                              app/hdudispfgrapp.o (S32_data_exceed)
D:\Work\Howell\MD\S17HOWDSPSW\ACCORD\Trunk\SourceCode\DisplayBoard\COMMON\Release\libCOMMON.a(hdudispflmsscu.o)
                              D:\Work\Howell\MD\S17HOWDSPSW\ACCORD\Trunk\SourceCode\DisplayBoard\COMMON\Release\libCOMMON.a(hdudispfa429.o) (N1_value)
D:\Work\Howell\MD\S17HOWDSPSW\ACCORD\Trunk\SourceCode\DisplayBoard\COMMON\Release\libCOMMON.a(hdudispfoffside.o)
                              app/hdudispfapp.o (OffsideSwitchScreen)
D:\Work\Howell\MD\S17HOWDSPSW\ACCORD\Trunk\SourceCode\DisplayBoard\COMMON\Release\libCOMMON.a(hdudispfpara.o)
                              app/hdudispfapp.o (U16_message_words)
D:\Work\Howell\MD\S17HOWDSPSW\ACCORD\Trunk\SourceCode\DisplayBoard\COMMON\Release\libCOMMON.a(hdudispfrtd.o)
                              Shared/hdudispfforeground.o (Both_dau_fail)
D:\Work\Howell\MD\S17HOWDSPSW\ACCORD\Trunk\SourceCode\DisplayBoard\HAL_Driver\Release\libHAL_Driver.a(hdulibstm32756gevalsdram.o)
                              src/hdudispfmain.o (BspSdramInit)
D:\Work\Howell\MD\S17HOWDSPSW\ACCORD\Trunk\SourceCode\DisplayBoard\HAL_Driver\Release\libHAL_Driver.a(hdulibstm32f7xxhal.o)
                              src/hdudispfmain.o (HalInit)
D:\Work\Howell\MD\S17HOWDSPSW\ACCORD\Trunk\SourceCode\DisplayBoard\HAL_Driver\Release\libHAL_Driver.a(hdulibstm32f7xxhaladc.o)
                              BSP/hdudispfstmadc.o (HalAdcInit)
D:\Work\Howell\MD\S17HOWDSPSW\ACCORD\Trunk\SourceCode\DisplayBoard\HAL_Driver\Release\libHAL_Driver.a(hdulibstm32f7xxhalcan.o)
                              Shared/hdudispfarinc825perph1.o (HalCanInit)
D:\Work\Howell\MD\S17HOWDSPSW\ACCORD\Trunk\SourceCode\DisplayBoard\HAL_Driver\Release\libHAL_Driver.a(hdulibstm32f7xxhalcortex.o)
                              D:\Work\Howell\MD\S17HOWDSPSW\ACCORD\Trunk\SourceCode\DisplayBoard\HAL_Driver\Release\libHAL_Driver.a(hdulibstm32f7xxhal.o) (HALNvicSetPriorityGrouping)
D:\Work\Howell\MD\S17HOWDSPSW\ACCORD\Trunk\SourceCode\DisplayBoard\HAL_Driver\Release\libHAL_Driver.a(hdulibstm32f7xxhalcrc.o)
                              D:\Work\Howell\MD\S17HOWDSPSW\ACCORD\Trunk\SourceCode\DisplayBoard\COMMON\Release\libCOMMON.a(hdudispfcrc.o) (HalCrcInit)
D:\Work\Howell\MD\S17HOWDSPSW\ACCORD\Trunk\SourceCode\DisplayBoard\HAL_Driver\Release\libHAL_Driver.a(hdulibstm32f7xxhalcrcex.o)
                              D:\Work\Howell\MD\S17HOWDSPSW\ACCORD\Trunk\SourceCode\DisplayBoard\HAL_Driver\Release\libHAL_Driver.a(hdulibstm32f7xxhalcrc.o) (HalCrcExPolynomialSet)
D:\Work\Howell\MD\S17HOWDSPSW\ACCORD\Trunk\SourceCode\DisplayBoard\HAL_Driver\Release\libHAL_Driver.a(hdulibstm32f7xxhaldma.o)
                              D:\Work\Howell\MD\S17HOWDSPSW\ACCORD\Trunk\SourceCode\DisplayBoard\COMMON\Release\libCOMMON.a(hdudispfdma2.o) (HalDmaInit)
D:\Work\Howell\MD\S17HOWDSPSW\ACCORD\Trunk\SourceCode\DisplayBoard\HAL_Driver\Release\libHAL_Driver.a(hdulibstm32f7xxhalgpio.o)
                              BSP/hdudispfpbs.o (HalGpioInit)
D:\Work\Howell\MD\S17HOWDSPSW\ACCORD\Trunk\SourceCode\DisplayBoard\HAL_Driver\Release\libHAL_Driver.a(hdulibstm32f7xxhaliwdg.o)
                              app/hdudispfwdog.o (HalIwdgInit)
D:\Work\Howell\MD\S17HOWDSPSW\ACCORD\Trunk\SourceCode\DisplayBoard\HAL_Driver\Release\libHAL_Driver.a(hdulibstm32f7xxhalltdc.o)
                              Shared/hdudispfpanel.o (HalLtdcInit)
D:\Work\Howell\MD\S17HOWDSPSW\ACCORD\Trunk\SourceCode\DisplayBoard\HAL_Driver\Release\libHAL_Driver.a(hdulibstm32f7xxhalmsp.o)
                              D:\Work\Howell\MD\S17HOWDSPSW\ACCORD\Trunk\SourceCode\DisplayBoard\HAL_Driver\Release\libHAL_Driver.a(hdulibstm32f7xxhalltdc.o) (HalLtdcMspInit)
D:\Work\Howell\MD\S17HOWDSPSW\ACCORD\Trunk\SourceCode\DisplayBoard\HAL_Driver\Release\libHAL_Driver.a(hdulibstm32f7xxhalnor.o)
                              D:\Work\Howell\MD\S17HOWDSPSW\ACCORD\Trunk\SourceCode\DisplayBoard\COMMON\Release\libCOMMON.a(hdudispfbspnor.o) (HalNorInit)
D:\Work\Howell\MD\S17HOWDSPSW\ACCORD\Trunk\SourceCode\DisplayBoard\HAL_Driver\Release\libHAL_Driver.a(hdulibstm32f7xxhalpwrex.o)
                              src/hdudispfmain.o (HalPwrExEnableOverDrive)
D:\Work\Howell\MD\S17HOWDSPSW\ACCORD\Trunk\SourceCode\DisplayBoard\HAL_Driver\Release\libHAL_Driver.a(hdulibstm32f7xxhalrcc.o)
                              src/hdudispfmain.o (HalRccOscConfig)
D:\Work\Howell\MD\S17HOWDSPSW\ACCORD\Trunk\SourceCode\DisplayBoard\HAL_Driver\Release\libHAL_Driver.a(hdulibstm32f7xxhalrccex.o)
                              src/hdudispfmain.o (HalRccExPeriphCLKConfig)
D:\Work\Howell\MD\S17HOWDSPSW\ACCORD\Trunk\SourceCode\DisplayBoard\HAL_Driver\Release\libHAL_Driver.a(hdulibstm32f7xxhalsdram.o)
                              D:\Work\Howell\MD\S17HOWDSPSW\ACCORD\Trunk\SourceCode\DisplayBoard\HAL_Driver\Release\libHAL_Driver.a(hdulibstm32756gevalsdram.o) (HALSdramInit)
D:\Work\Howell\MD\S17HOWDSPSW\ACCORD\Trunk\SourceCode\DisplayBoard\HAL_Driver\Release\libHAL_Driver.a(hdulibstm32f7xxhaltim.o)
                              BSP/hdudispfpwm.o (HalTimPwmInit)
D:\Work\Howell\MD\S17HOWDSPSW\ACCORD\Trunk\SourceCode\DisplayBoard\HAL_Driver\Release\libHAL_Driver.a(hdulibstm32f7xxit.o)
                              app/hdudispfinit.o (ITInterrupsInit)
D:\Work\Howell\MD\S17HOWDSPSW\ACCORD\Trunk\SourceCode\DisplayBoard\HAL_Driver\Release\libHAL_Driver.a(hdulibsystemstm32f7xx.o)
                              startup/hdudispfstartupstm32f746xx.o (Vector_tab_sel)
D:\Work\Howell\MD\S17HOWDSPSW\ACCORD\Trunk\SourceCode\DisplayBoard\HAL_Driver\Release\libHAL_Driver.a(hdulibstm32f7xxhalfmc.o)
                              D:\Work\Howell\MD\S17HOWDSPSW\ACCORD\Trunk\SourceCode\DisplayBoard\HAL_Driver\Release\libHAL_Driver.a(hdulibstm32f7xxhalnor.o) (FmcNorSramInit)
D:\Work\Howell\MD\S17HOWDSPSW\ACCORD\Trunk\SourceCode\DisplayBoard\WIDGETS\Release\libWIDGETS.a(hdudispfconfig.o)
                              Shared/hdudispfforeground.o (E_orientation)
D:\Work\Howell\MD\S17HOWDSPSW\ACCORD\Trunk\SourceCode\DisplayBoard\WIDGETS\Release\libWIDGETS.a(hdudispffonts.o)
                              app/hdudispfpdicheck.o (FontsGetFontHeight)
D:\Work\Howell\MD\S17HOWDSPSW\ACCORD\Trunk\SourceCode\DisplayBoard\WIDGETS\Release\libWIDGETS.a(hdudispfbargraphs.o)
                              app/hdudispfgrapp.o (BargraphAllocat)
D:\Work\Howell\MD\S17HOWDSPSW\ACCORD\Trunk\SourceCode\DisplayBoard\WIDGETS\Release\libWIDGETS.a(hdudispfcarrotgraph.o)
                              app/hdudispfgrapp.o (CarrotGraphAllocat)
D:\Work\Howell\MD\S17HOWDSPSW\ACCORD\Trunk\SourceCode\DisplayBoard\WIDGETS\Release\libWIDGETS.a(hdudispfnumbox.o)
                              app/hdudispfgrapp.o (NumboxAllocat)
D:\Work\Howell\MD\S17HOWDSPSW\ACCORD\Trunk\SourceCode\DisplayBoard\WIDGETS\Release\libWIDGETS.a(hdudispfpolygon1.o)
                              D:\Work\Howell\MD\S17HOWDSPSW\ACCORD\Trunk\SourceCode\DisplayBoard\WIDGETS\Release\libWIDGETS.a(hdudispfbargraphs.o) (PolygonFillRectNT)
D:\Work\Howell\MD\S17HOWDSPSW\ACCORD\Trunk\SourceCode\DisplayBoard\WIDGETS\Release\libWIDGETS.a(hdudispfpolygon2.o)
                              Shared/hdudispfforeground.o (PolygonsClear)
D:\Work\Howell\MD\S17HOWDSPSW\ACCORD\Trunk\SourceCode\DisplayBoard\WIDGETS\Release\libWIDGETS.a(hdudispfrounddial.o)
                              app/hdudispfgrapp.o (RoundDialAllocat)
D:\Work\Howell\MD\S17HOWDSPSW\ACCORD\Trunk\SourceCode\DisplayBoard\WIDGETS\Release\libWIDGETS.a(hdudispftext.o)
                              app/hdudispfgrapp.o (TextDispString)
D:\Work\Howell\MD\S17HOWDSPSW\ACCORD\Trunk\SourceCode\DisplayBoard\WIDGETS\Release\libWIDGETS.a(hdudispftextbox.o)
                              app/hdudispfpdicheck.o (StrLen)
D:\Work\Howell\MD\S17HOWDSPSW\ACCORD\Trunk\SourceCode\DisplayBoard\WIDGETS\Release\libWIDGETS.a(hdudispftimers.o)
                              D:\Work\Howell\MD\S17HOWDSPSW\ACCORD\Trunk\SourceCode\DisplayBoard\COMMON\Release\libCOMMON.a(hdudispfa429.o) (Exceed_timer_params)
D:\Work\Howell\MD\S17HOWDSPSW\ACCORD\Trunk\SourceCode\DisplayBoard\WIDGETS\Release\libWIDGETS.a(hdudispfwidgets.o)
                              Shared/hdudispfforeground.o (WidgetsRedX)
D:\Work\Howell\MD\S17HOWDSPSW\ACCORD\Trunk\SourceCode\DisplayBoard\WIDGETS\Release\libWIDGETS.a(hdudispfbinascii.o)
                              app/hdudispfgrapp.o (BinasByteFormatInfo)
D:\Work\Howell\MD\S17HOWDSPSW\ACCORD\Trunk\SourceCode\DisplayBoard\WIDGETS\Release\libWIDGETS.a(hdudispflookup.o)
                              BSP/hdudispfpwm.o (LookupTableLookup)
D:\Work\Howell\MD\S17HOWDSPSW\ACCORD\Trunk\SourceCode\DisplayBoard\WIDGETS\Release\libWIDGETS.a(hdudispfrterror.o)
                              app/hdudispfgrapp.o (RterrWidget)
D:\Work\Howell\MD\S17HOWDSPSW\ACCORD\Trunk\SourceCode\DisplayBoard\WIDGETS\Release\libWIDGETS.a(hdudispftimer.o)
                              BSP/hdudispfpbs.o (TimerInstall)
D:\Work\Howell\MD\S17HOWDSPSW\ACCORD\Trunk\SourceCode\DisplayBoard\WIDGETS\Release\libWIDGETS.a(hdudispfbfarmcosq15.o)
                              D:\Work\Howell\MD\S17HOWDSPSW\ACCORD\Trunk\SourceCode\DisplayBoard\WIDGETS\Release\libWIDGETS.a(hdudispfpolygon2.o) (ArmCosQ15)
D:\Work\Howell\MD\S17HOWDSPSW\ACCORD\Trunk\SourceCode\DisplayBoard\WIDGETS\Release\libWIDGETS.a(hdudispfbfarmsinq15.o)
                              D:\Work\Howell\MD\S17HOWDSPSW\ACCORD\Trunk\SourceCode\DisplayBoard\WIDGETS\Release\libWIDGETS.a(hdudispfpolygon2.o) (ArmSinQ15)
D:\Work\Howell\MD\S17HOWDSPSW\ACCORD\Trunk\SourceCode\DisplayBoard\WIDGETS\Release\libWIDGETS.a(hdudispfbfarmcommontables.o)
                              D:\Work\Howell\MD\S17HOWDSPSW\ACCORD\Trunk\SourceCode\DisplayBoard\WIDGETS\Release\libWIDGETS.a(hdudispfbfarmcosq15.o) (Sin_table_q15)
c:/ac6/systemworkbench/plugins/fr.ac6.mcu.externaltools.arm-none.win32_1.13.2.201705091103/tools/compiler/bin/../lib/gcc/arm-none-eabi/5.4.1/../../../../arm-none-eabi/lib/armv7e-m/fpu/fpv5-sp-d16\libc.a(lib_a-exit.o)
                              c:/ac6/systemworkbench/plugins/fr.ac6.mcu.externaltools.arm-none.win32_1.13.2.201705091103/tools/compiler/bin/../lib/gcc/arm-none-eabi/5.4.1/../../../../arm-none-eabi/lib/armv7e-m/fpu/fpv5-sp-d16/crt0.o (exit)
c:/ac6/systemworkbench/plugins/fr.ac6.mcu.externaltools.arm-none.win32_1.13.2.201705091103/tools/compiler/bin/../lib/gcc/arm-none-eabi/5.4.1/../../../../arm-none-eabi/lib/armv7e-m/fpu/fpv5-sp-d16\libc.a(lib_a-impure.o)
                              c:/ac6/systemworkbench/plugins/fr.ac6.mcu.externaltools.arm-none.win32_1.13.2.201705091103/tools/compiler/bin/../lib/gcc/arm-none-eabi/5.4.1/../../../../arm-none-eabi/lib/armv7e-m/fpu/fpv5-sp-d16\libc.a(lib_a-exit.o) (_global_impure_ptr)
c:/ac6/systemworkbench/plugins/fr.ac6.mcu.externaltools.arm-none.win32_1.13.2.201705091103/tools/compiler/bin/../lib/gcc/arm-none-eabi/5.4.1/../../../../arm-none-eabi/lib/armv7e-m/fpu/fpv5-sp-d16\libc.a(lib_a-init.o)
                              c:/ac6/systemworkbench/plugins/fr.ac6.mcu.externaltools.arm-none.win32_1.13.2.201705091103/tools/compiler/bin/../lib/gcc/arm-none-eabi/5.4.1/../../../../arm-none-eabi/lib/armv7e-m/fpu/fpv5-sp-d16/crt0.o (__libc_init_array)
c:/ac6/systemworkbench/plugins/fr.ac6.mcu.externaltools.arm-none.win32_1.13.2.201705091103/tools/compiler/bin/../lib/gcc/arm-none-eabi/5.4.1/../../../../arm-none-eabi/lib/armv7e-m/fpu/fpv5-sp-d16\libc.a(lib_a-memset.o)
                              c:/ac6/systemworkbench/plugins/fr.ac6.mcu.externaltools.arm-none.win32_1.13.2.201705091103/tools/compiler/bin/../lib/gcc/arm-none-eabi/5.4.1/../../../../arm-none-eabi/lib/armv7e-m/fpu/fpv5-sp-d16/crt0.o (memset)
c:/ac6/systemworkbench/plugins/fr.ac6.mcu.externaltools.arm-none.win32_1.13.2.201705091103/tools/compiler/bin/../lib/gcc/arm-none-eabi/5.4.1/../../../../arm-none-eabi/lib/armv7e-m/fpu/fpv5-sp-d16\libc.a(lib_a-__call_atexit.o)
                              c:/ac6/systemworkbench/plugins/fr.ac6.mcu.externaltools.arm-none.win32_1.13.2.201705091103/tools/compiler/bin/../lib/gcc/arm-none-eabi/5.4.1/../../../../arm-none-eabi/lib/armv7e-m/fpu/fpv5-sp-d16\libc.a(lib_a-exit.o) (__call_exitprocs)
c:/ac6/systemworkbench/plugins/fr.ac6.mcu.externaltools.arm-none.win32_1.13.2.201705091103/tools/compiler/bin/../lib/gcc/arm-none-eabi/5.4.1/../../../../arm-none-eabi/lib/armv7e-m/fpu/fpv5-sp-d16\libc.a(lib_a-atexit.o)
                              c:/ac6/systemworkbench/plugins/fr.ac6.mcu.externaltools.arm-none.win32_1.13.2.201705091103/tools/compiler/bin/../lib/gcc/arm-none-eabi/5.4.1/../../../../arm-none-eabi/lib/armv7e-m/fpu/fpv5-sp-d16\libc.a(lib_a-__call_atexit.o) (atexit)
c:/ac6/systemworkbench/plugins/fr.ac6.mcu.externaltools.arm-none.win32_1.13.2.201705091103/tools/compiler/bin/../lib/gcc/arm-none-eabi/5.4.1/../../../../arm-none-eabi/lib/armv7e-m/fpu/fpv5-sp-d16\libc.a(lib_a-fini.o)
                              c:/ac6/systemworkbench/plugins/fr.ac6.mcu.externaltools.arm-none.win32_1.13.2.201705091103/tools/compiler/bin/../lib/gcc/arm-none-eabi/5.4.1/../../../../arm-none-eabi/lib/armv7e-m/fpu/fpv5-sp-d16\libc.a(lib_a-__call_atexit.o) (__libc_fini_array)
c:/ac6/systemworkbench/plugins/fr.ac6.mcu.externaltools.arm-none.win32_1.13.2.201705091103/tools/compiler/bin/../lib/gcc/arm-none-eabi/5.4.1/../../../../arm-none-eabi/lib/armv7e-m/fpu/fpv5-sp-d16\libc.a(lib_a-__atexit.o)
                              c:/ac6/systemworkbench/plugins/fr.ac6.mcu.externaltools.arm-none.win32_1.13.2.201705091103/tools/compiler/bin/../lib/gcc/arm-none-eabi/5.4.1/../../../../arm-none-eabi/lib/armv7e-m/fpu/fpv5-sp-d16\libc.a(lib_a-atexit.o) (__register_exitproc)

Discarded input sections

 .text          0x00000000        0x0 c:/ac6/systemworkbench/plugins/fr.ac6.mcu.externaltools.arm-none.win32_1.13.2.201705091103/tools/compiler/bin/../lib/gcc/arm-none-eabi/5.4.1/armv7e-m/fpu/fpv5-sp-d16/crti.o
 .data          0x00000000        0x0 c:/ac6/systemworkbench/plugins/fr.ac6.mcu.externaltools.arm-none.win32_1.13.2.201705091103/tools/compiler/bin/../lib/gcc/arm-none-eabi/5.4.1/armv7e-m/fpu/fpv5-sp-d16/crti.o
 .bss           0x00000000        0x0 c:/ac6/systemworkbench/plugins/fr.ac6.mcu.externaltools.arm-none.win32_1.13.2.201705091103/tools/compiler/bin/../lib/gcc/arm-none-eabi/5.4.1/armv7e-m/fpu/fpv5-sp-d16/crti.o
 .data          0x00000000        0x4 c:/ac6/systemworkbench/plugins/fr.ac6.mcu.externaltools.arm-none.win32_1.13.2.201705091103/tools/compiler/bin/../lib/gcc/arm-none-eabi/5.4.1/armv7e-m/fpu/fpv5-sp-d16/crtbegin.o
 .text          0x00000000       0x74 c:/ac6/systemworkbench/plugins/fr.ac6.mcu.externaltools.arm-none.win32_1.13.2.201705091103/tools/compiler/bin/../lib/gcc/arm-none-eabi/5.4.1/../../../../arm-none-eabi/lib/armv7e-m/fpu/fpv5-sp-d16/crt0.o
 .data          0x00000000        0x0 c:/ac6/systemworkbench/plugins/fr.ac6.mcu.externaltools.arm-none.win32_1.13.2.201705091103/tools/compiler/bin/../lib/gcc/arm-none-eabi/5.4.1/../../../../arm-none-eabi/lib/armv7e-m/fpu/fpv5-sp-d16/crt0.o
 .bss           0x00000000        0x0 c:/ac6/systemworkbench/plugins/fr.ac6.mcu.externaltools.arm-none.win32_1.13.2.201705091103/tools/compiler/bin/../lib/gcc/arm-none-eabi/5.4.1/../../../../arm-none-eabi/lib/armv7e-m/fpu/fpv5-sp-d16/crt0.o
 .ARM.extab     0x00000000        0x0 c:/ac6/systemworkbench/plugins/fr.ac6.mcu.externaltools.arm-none.win32_1.13.2.201705091103/tools/compiler/bin/../lib/gcc/arm-none-eabi/5.4.1/../../../../arm-none-eabi/lib/armv7e-m/fpu/fpv5-sp-d16/crt0.o
 .ARM.exidx     0x00000000        0x8 c:/ac6/systemworkbench/plugins/fr.ac6.mcu.externaltools.arm-none.win32_1.13.2.201705091103/tools/compiler/bin/../lib/gcc/arm-none-eabi/5.4.1/../../../../arm-none-eabi/lib/armv7e-m/fpu/fpv5-sp-d16/crt0.o
 .ARM.attributes
                0x00000000       0x20 c:/ac6/systemworkbench/plugins/fr.ac6.mcu.externaltools.arm-none.win32_1.13.2.201705091103/tools/compiler/bin/../lib/gcc/arm-none-eabi/5.4.1/../../../../arm-none-eabi/lib/armv7e-m/fpu/fpv5-sp-d16/crt0.o
 .text          0x00000000        0x0 BSP/hdudispfpbs.o
 .data          0x00000000        0x0 BSP/hdudispfpbs.o
 .bss           0x00000000        0x0 BSP/hdudispfpbs.o
 .text          0x00000000        0x0 BSP/hdudispfpwm.o
 .data          0x00000000        0x0 BSP/hdudispfpwm.o
 .bss           0x00000000        0x0 BSP/hdudispfpwm.o
 .text          0x00000000        0x0 BSP/hdudispfstmadc.o
 .data          0x00000000        0x0 BSP/hdudispfstmadc.o
 .bss           0x00000000        0x0 BSP/hdudispfstmadc.o
 .text          0x00000000        0x0 Shared/hdudispfa825comm1.o
 .data          0x00000000        0x0 Shared/hdudispfa825comm1.o
 .bss           0x00000000        0x0 Shared/hdudispfa825comm1.o
 .text          0x00000000        0x0 Shared/hdudispfa825comm2.o
 .data          0x00000000        0x0 Shared/hdudispfa825comm2.o
 .bss           0x00000000        0x0 Shared/hdudispfa825comm2.o
 .text          0x00000000        0x0 Shared/hdudispfarinc825perph1.o
 .data          0x00000000        0x0 Shared/hdudispfarinc825perph1.o
 .bss           0x00000000        0x0 Shared/hdudispfarinc825perph1.o
 .text          0x00000000        0x0 Shared/hdudispfarinc825perph2.o
 .data          0x00000000        0x0 Shared/hdudispfarinc825perph2.o
 .bss           0x00000000        0x0 Shared/hdudispfarinc825perph2.o
 .text          0x00000000        0x0 Shared/hdudispfbspled.o
 .data          0x00000000        0x0 Shared/hdudispfbspled.o
 .bss           0x00000000        0x0 Shared/hdudispfbspled.o
 .text          0x00000000        0x0 Shared/hdudispfforeground.o
 .data          0x00000000        0x0 Shared/hdudispfforeground.o
 .bss           0x00000000        0x0 Shared/hdudispfforeground.o
 .text          0x00000000        0x0 Shared/hdudispfpanel.o
 .data          0x00000000        0x0 Shared/hdudispfpanel.o
 .bss           0x00000000        0x0 Shared/hdudispfpanel.o
 .bss.Panel_width
                0x00000000        0x2 Shared/hdudispfpanel.o
 .bss.Panel_height
                0x00000000        0x2 Shared/hdudispfpanel.o
 .bss.Panel_hsync
                0x00000000        0x2 Shared/hdudispfpanel.o
 .bss.Panel_hbp
                0x00000000        0x2 Shared/hdudispfpanel.o
 .bss.Panel_hfp
                0x00000000        0x2 Shared/hdudispfpanel.o
 .bss.Panel_vsync
                0x00000000        0x2 Shared/hdudispfpanel.o
 .bss.Panel_vbp
                0x00000000        0x2 Shared/hdudispfpanel.o
 .bss.Panel_vfp
                0x00000000        0x2 Shared/hdudispfpanel.o
 .text          0x00000000        0x0 app/hdudispfapp.o
 .data          0x00000000        0x0 app/hdudispfapp.o
 .bss           0x00000000        0x0 app/hdudispfapp.o
 .text          0x00000000        0x0 app/hdudispfdemo.o
 .data          0x00000000        0x0 app/hdudispfdemo.o
 .bss           0x00000000        0x0 app/hdudispfdemo.o
 .text          0x00000000        0x0 app/hdudispfgrapp.o
 .data          0x00000000        0x0 app/hdudispfgrapp.o
 .bss           0x00000000        0x0 app/hdudispfgrapp.o
 .text          0x00000000        0x0 app/hdudispfinit.o
 .data          0x00000000        0x0 app/hdudispfinit.o
 .bss           0x00000000        0x0 app/hdudispfinit.o
 .text          0x00000000        0x0 app/hdudispfmdff.o
 .data          0x00000000        0x0 app/hdudispfmdff.o
 .bss           0x00000000        0x0 app/hdudispfmdff.o
 .text          0x00000000        0x0 app/hdudispfmenu.o
 .data          0x00000000        0x0 app/hdudispfmenu.o
 .bss           0x00000000        0x0 app/hdudispfmenu.o
 .data.Brt_set_text
                0x00000000        0x4 app/hdudispfmenu.o
 .data.Parameter_text
                0x00000000        0x9 app/hdudispfmenu.o
 .data.Parameter_calibration
                0x00000000       0x20 app/hdudispfmenu.o
 .data.Ff_status
                0x00000000        0x1 app/hdudispfmenu.o
 .text.TopButton10Text
                0x00000000       0x28 app/hdudispfmenu.o
 .text          0x00000000        0x0 app/hdudispfmenu2.o
 .data          0x00000000        0x0 app/hdudispfmenu2.o
 .bss           0x00000000        0x0 app/hdudispfmenu2.o
 .text          0x00000000        0x0 app/hdudispfpdicheck.o
 .data          0x00000000        0x0 app/hdudispfpdicheck.o
 .bss           0x00000000        0x0 app/hdudispfpdicheck.o
 .text          0x00000000        0x0 app/hdudispfpdidata.o
 .data          0x00000000        0x0 app/hdudispfpdidata.o
 .bss           0x00000000        0x0 app/hdudispfpdidata.o
 .text          0x00000000        0x0 app/hdudispfpoller.o
 .data          0x00000000        0x0 app/hdudispfpoller.o
 .bss           0x00000000        0x0 app/hdudispfpoller.o
 .text          0x00000000        0x0 app/hdudispfrevno.o
 .data          0x00000000        0x0 app/hdudispfrevno.o
 .bss           0x00000000        0x0 app/hdudispfrevno.o
 .text          0x00000000        0x0 app/hdudispftbase.o
 .data          0x00000000        0x0 app/hdudispftbase.o
 .bss           0x00000000        0x0 app/hdudispftbase.o
 .text          0x00000000        0x0 app/hdudispfwdog.o
 .data          0x00000000        0x0 app/hdudispfwdog.o
 .bss           0x00000000        0x0 app/hdudispfwdog.o
 .text          0x00000000        0x0 fonts/hdudispfConsolas18hAA4.o
 .data          0x00000000        0x0 fonts/hdudispfConsolas18hAA4.o
 .bss           0x00000000        0x0 fonts/hdudispfConsolas18hAA4.o
 .text          0x00000000        0x0 fonts/hdudispfConsolas22haa5.o
 .data          0x00000000        0x0 fonts/hdudispfConsolas22haa5.o
 .bss           0x00000000        0x0 fonts/hdudispfConsolas22haa5.o
 .text          0x00000000        0x0 fonts/hdudispfConsolas30haa5.o
 .data          0x00000000        0x0 fonts/hdudispfConsolas30haa5.o
 .bss           0x00000000        0x0 fonts/hdudispfConsolas30haa5.o
 .text          0x00000000        0x0 fonts/hdudispfConsolas42hAA4.o
 .data          0x00000000        0x0 fonts/hdudispfConsolas42hAA4.o
 .bss           0x00000000        0x0 fonts/hdudispfConsolas42hAA4.o
 .text          0x00000000        0x0 fonts/hdudispfmono18haa4.o
 .data          0x00000000        0x0 fonts/hdudispfmono18haa4.o
 .bss           0x00000000        0x0 fonts/hdudispfmono18haa4.o
 .text          0x00000000        0x0 fonts/hdudispfmono22haa4.o
 .data          0x00000000        0x0 fonts/hdudispfmono22haa4.o
 .bss           0x00000000        0x0 fonts/hdudispfmono22haa4.o
 .text          0x00000000        0x0 fonts/hdudispfmono30haa4.o
 .data          0x00000000        0x0 fonts/hdudispfmono30haa4.o
 .bss           0x00000000        0x0 fonts/hdudispfmono30haa4.o
 .text          0x00000000        0x0 fonts/hdudispfmono42haa4.o
 .data          0x00000000        0x0 fonts/hdudispfmono42haa4.o
 .bss           0x00000000        0x0 fonts/hdudispfmono42haa4.o
 .rodata.Font_huge
                0x00000000       0x10 fonts/hdudispfmono42haa4.o
 .text          0x00000000        0x0 src/hdudispfcbit.o
 .data          0x00000000        0x0 src/hdudispfcbit.o
 .bss           0x00000000        0x0 src/hdudispfcbit.o
 .text          0x00000000        0x0 src/hdudispfmain.o
 .data          0x00000000        0x0 src/hdudispfmain.o
 .bss           0x00000000        0x0 src/hdudispfmain.o
 .text          0x00000000        0x0 src/hdudispfpbit.o
 .data          0x00000000        0x0 src/hdudispfpbit.o
 .bss           0x00000000        0x0 src/hdudispfpbit.o
 .bss.Page_num_check
                0x00000000        0x1 src/hdudispfpbit.o
 .data          0x00000000        0x0 startup/hdudispfoscpua.o
 .bss           0x00000000        0x0 startup/hdudispfoscpua.o
 .data          0x00000000        0x0 startup/hdudispfpbita.o
 .bss           0x00000000        0x0 startup/hdudispfpbita.o
 .text          0x00000000       0x14 startup/hdudispfstartupstm32f746xx.o
 .data          0x00000000        0x0 startup/hdudispfstartupstm32f746xx.o
 .bss           0x00000000        0x0 startup/hdudispfstartupstm32f746xx.o
 .text          0x00000000        0x0 D:\Work\Howell\MD\S17HOWDSPSW\ACCORD\Trunk\SourceCode\DisplayBoard\UCOS\Release\libUCOS.a(hdudispfoscpu.o)
 .data          0x00000000        0x0 D:\Work\Howell\MD\S17HOWDSPSW\ACCORD\Trunk\SourceCode\DisplayBoard\UCOS\Release\libUCOS.a(hdudispfoscpu.o)
 .bss           0x00000000        0x0 D:\Work\Howell\MD\S17HOWDSPSW\ACCORD\Trunk\SourceCode\DisplayBoard\UCOS\Release\libUCOS.a(hdudispfoscpu.o)
 .text          0x00000000        0x0 D:\Work\Howell\MD\S17HOWDSPSW\ACCORD\Trunk\SourceCode\DisplayBoard\UCOS\Release\libUCOS.a(hdudispfucos.o)
 .data          0x00000000        0x0 D:\Work\Howell\MD\S17HOWDSPSW\ACCORD\Trunk\SourceCode\DisplayBoard\UCOS\Release\libUCOS.a(hdudispfucos.o)
 .bss           0x00000000        0x0 D:\Work\Howell\MD\S17HOWDSPSW\ACCORD\Trunk\SourceCode\DisplayBoard\UCOS\Release\libUCOS.a(hdudispfucos.o)
 .text.OSSemPeek
                0x00000000       0x38 D:\Work\Howell\MD\S17HOWDSPSW\ACCORD\Trunk\SourceCode\DisplayBoard\UCOS\Release\libUCOS.a(hdudispfucos.o)
 .text          0x00000000        0x0 D:\Work\Howell\MD\S17HOWDSPSW\ACCORD\Trunk\SourceCode\DisplayBoard\COMMON\Release\libCOMMON.a(hdudispfa429.o)
 .data          0x00000000        0x0 D:\Work\Howell\MD\S17HOWDSPSW\ACCORD\Trunk\SourceCode\DisplayBoard\COMMON\Release\libCOMMON.a(hdudispfa429.o)
 .bss           0x00000000        0x0 D:\Work\Howell\MD\S17HOWDSPSW\ACCORD\Trunk\SourceCode\DisplayBoard\COMMON\Release\libCOMMON.a(hdudispfa429.o)
 .bss.Config_crc
                0x00000000       0x37 D:\Work\Howell\MD\S17HOWDSPSW\ACCORD\Trunk\SourceCode\DisplayBoard\COMMON\Release\libCOMMON.a(hdudispfa429.o)
 .bss.Cas_ssm   0x00000000        0x1 D:\Work\Howell\MD\S17HOWDSPSW\ACCORD\Trunk\SourceCode\DisplayBoard\COMMON\Release\libCOMMON.a(hdudispfa429.o)
 .bss.Data_cnt  0x00000000        0x2 D:\Work\Howell\MD\S17HOWDSPSW\ACCORD\Trunk\SourceCode\DisplayBoard\COMMON\Release\libCOMMON.a(hdudispfa429.o)
 .text          0x00000000        0x0 D:\Work\Howell\MD\S17HOWDSPSW\ACCORD\Trunk\SourceCode\DisplayBoard\COMMON\Release\libCOMMON.a(hdudispfbspnor.o)
 .data          0x00000000        0x0 D:\Work\Howell\MD\S17HOWDSPSW\ACCORD\Trunk\SourceCode\DisplayBoard\COMMON\Release\libCOMMON.a(hdudispfbspnor.o)
 .bss           0x00000000        0x0 D:\Work\Howell\MD\S17HOWDSPSW\ACCORD\Trunk\SourceCode\DisplayBoard\COMMON\Release\libCOMMON.a(hdudispfbspnor.o)
 .text          0x00000000        0x0 D:\Work\Howell\MD\S17HOWDSPSW\ACCORD\Trunk\SourceCode\DisplayBoard\COMMON\Release\libCOMMON.a(hdudispfcas.o)
 .data          0x00000000        0x0 D:\Work\Howell\MD\S17HOWDSPSW\ACCORD\Trunk\SourceCode\DisplayBoard\COMMON\Release\libCOMMON.a(hdudispfcas.o)
 .bss           0x00000000        0x0 D:\Work\Howell\MD\S17HOWDSPSW\ACCORD\Trunk\SourceCode\DisplayBoard\COMMON\Release\libCOMMON.a(hdudispfcas.o)
 .text          0x00000000        0x0 D:\Work\Howell\MD\S17HOWDSPSW\ACCORD\Trunk\SourceCode\DisplayBoard\COMMON\Release\libCOMMON.a(hdudispfcrc.o)
 .data          0x00000000        0x0 D:\Work\Howell\MD\S17HOWDSPSW\ACCORD\Trunk\SourceCode\DisplayBoard\COMMON\Release\libCOMMON.a(hdudispfcrc.o)
 .bss           0x00000000        0x0 D:\Work\Howell\MD\S17HOWDSPSW\ACCORD\Trunk\SourceCode\DisplayBoard\COMMON\Release\libCOMMON.a(hdudispfcrc.o)
 .text          0x00000000        0x0 D:\Work\Howell\MD\S17HOWDSPSW\ACCORD\Trunk\SourceCode\DisplayBoard\COMMON\Release\libCOMMON.a(hdudispfdma2.o)
 .data          0x00000000        0x0 D:\Work\Howell\MD\S17HOWDSPSW\ACCORD\Trunk\SourceCode\DisplayBoard\COMMON\Release\libCOMMON.a(hdudispfdma2.o)
 .bss           0x00000000        0x0 D:\Work\Howell\MD\S17HOWDSPSW\ACCORD\Trunk\SourceCode\DisplayBoard\COMMON\Release\libCOMMON.a(hdudispfdma2.o)
 .text          0x00000000        0x0 D:\Work\Howell\MD\S17HOWDSPSW\ACCORD\Trunk\SourceCode\DisplayBoard\COMMON\Release\libCOMMON.a(hdudispfdma2d.o)
 .data          0x00000000        0x0 D:\Work\Howell\MD\S17HOWDSPSW\ACCORD\Trunk\SourceCode\DisplayBoard\COMMON\Release\libCOMMON.a(hdudispfdma2d.o)
 .bss           0x00000000        0x0 D:\Work\Howell\MD\S17HOWDSPSW\ACCORD\Trunk\SourceCode\DisplayBoard\COMMON\Release\libCOMMON.a(hdudispfdma2d.o)
 .text          0x00000000        0x0 D:\Work\Howell\MD\S17HOWDSPSW\ACCORD\Trunk\SourceCode\DisplayBoard\COMMON\Release\libCOMMON.a(hdudispfglobalsettings.o)
 .data          0x00000000        0x0 D:\Work\Howell\MD\S17HOWDSPSW\ACCORD\Trunk\SourceCode\DisplayBoard\COMMON\Release\libCOMMON.a(hdudispfglobalsettings.o)
 .bss           0x00000000        0x0 D:\Work\Howell\MD\S17HOWDSPSW\ACCORD\Trunk\SourceCode\DisplayBoard\COMMON\Release\libCOMMON.a(hdudispfglobalsettings.o)
 .text          0x00000000        0x0 D:\Work\Howell\MD\S17HOWDSPSW\ACCORD\Trunk\SourceCode\DisplayBoard\COMMON\Release\libCOMMON.a(hdudispflmsscu.o)
 .data          0x00000000        0x0 D:\Work\Howell\MD\S17HOWDSPSW\ACCORD\Trunk\SourceCode\DisplayBoard\COMMON\Release\libCOMMON.a(hdudispflmsscu.o)
 .bss           0x00000000        0x0 D:\Work\Howell\MD\S17HOWDSPSW\ACCORD\Trunk\SourceCode\DisplayBoard\COMMON\Release\libCOMMON.a(hdudispflmsscu.o)
 .bss.Scu_error_code
                0x00000000        0x2 D:\Work\Howell\MD\S17HOWDSPSW\ACCORD\Trunk\SourceCode\DisplayBoard\COMMON\Release\libCOMMON.a(hdudispflmsscu.o)
 .text          0x00000000        0x0 D:\Work\Howell\MD\S17HOWDSPSW\ACCORD\Trunk\SourceCode\DisplayBoard\COMMON\Release\libCOMMON.a(hdudispfoffside.o)
 .data          0x00000000        0x0 D:\Work\Howell\MD\S17HOWDSPSW\ACCORD\Trunk\SourceCode\DisplayBoard\COMMON\Release\libCOMMON.a(hdudispfoffside.o)
 .bss           0x00000000        0x0 D:\Work\Howell\MD\S17HOWDSPSW\ACCORD\Trunk\SourceCode\DisplayBoard\COMMON\Release\libCOMMON.a(hdudispfoffside.o)
 .text          0x00000000        0x0 D:\Work\Howell\MD\S17HOWDSPSW\ACCORD\Trunk\SourceCode\DisplayBoard\COMMON\Release\libCOMMON.a(hdudispfpara.o)
 .data          0x00000000        0x0 D:\Work\Howell\MD\S17HOWDSPSW\ACCORD\Trunk\SourceCode\DisplayBoard\COMMON\Release\libCOMMON.a(hdudispfpara.o)
 .bss           0x00000000        0x0 D:\Work\Howell\MD\S17HOWDSPSW\ACCORD\Trunk\SourceCode\DisplayBoard\COMMON\Release\libCOMMON.a(hdudispfpara.o)
 .text          0x00000000        0x0 D:\Work\Howell\MD\S17HOWDSPSW\ACCORD\Trunk\SourceCode\DisplayBoard\COMMON\Release\libCOMMON.a(hdudispfrtd.o)
 .data          0x00000000        0x0 D:\Work\Howell\MD\S17HOWDSPSW\ACCORD\Trunk\SourceCode\DisplayBoard\COMMON\Release\libCOMMON.a(hdudispfrtd.o)
 .bss           0x00000000        0x0 D:\Work\Howell\MD\S17HOWDSPSW\ACCORD\Trunk\SourceCode\DisplayBoard\COMMON\Release\libCOMMON.a(hdudispfrtd.o)
 .text          0x00000000        0x0 D:\Work\Howell\MD\S17HOWDSPSW\ACCORD\Trunk\SourceCode\DisplayBoard\HAL_Driver\Release\libHAL_Driver.a(hdulibstm32756gevalsdram.o)
 .data          0x00000000        0x0 D:\Work\Howell\MD\S17HOWDSPSW\ACCORD\Trunk\SourceCode\DisplayBoard\HAL_Driver\Release\libHAL_Driver.a(hdulibstm32756gevalsdram.o)
 .bss           0x00000000        0x0 D:\Work\Howell\MD\S17HOWDSPSW\ACCORD\Trunk\SourceCode\DisplayBoard\HAL_Driver\Release\libHAL_Driver.a(hdulibstm32756gevalsdram.o)
 .text          0x00000000        0x0 D:\Work\Howell\MD\S17HOWDSPSW\ACCORD\Trunk\SourceCode\DisplayBoard\HAL_Driver\Release\libHAL_Driver.a(hdulibstm32f7xxhal.o)
 .data          0x00000000        0x0 D:\Work\Howell\MD\S17HOWDSPSW\ACCORD\Trunk\SourceCode\DisplayBoard\HAL_Driver\Release\libHAL_Driver.a(hdulibstm32f7xxhal.o)
 .bss           0x00000000        0x0 D:\Work\Howell\MD\S17HOWDSPSW\ACCORD\Trunk\SourceCode\DisplayBoard\HAL_Driver\Release\libHAL_Driver.a(hdulibstm32f7xxhal.o)
 .text          0x00000000        0x0 D:\Work\Howell\MD\S17HOWDSPSW\ACCORD\Trunk\SourceCode\DisplayBoard\HAL_Driver\Release\libHAL_Driver.a(hdulibstm32f7xxhaladc.o)
 .data          0x00000000        0x0 D:\Work\Howell\MD\S17HOWDSPSW\ACCORD\Trunk\SourceCode\DisplayBoard\HAL_Driver\Release\libHAL_Driver.a(hdulibstm32f7xxhaladc.o)
 .bss           0x00000000        0x0 D:\Work\Howell\MD\S17HOWDSPSW\ACCORD\Trunk\SourceCode\DisplayBoard\HAL_Driver\Release\libHAL_Driver.a(hdulibstm32f7xxhaladc.o)
 .text          0x00000000        0x0 D:\Work\Howell\MD\S17HOWDSPSW\ACCORD\Trunk\SourceCode\DisplayBoard\HAL_Driver\Release\libHAL_Driver.a(hdulibstm32f7xxhalcan.o)
 .data          0x00000000        0x0 D:\Work\Howell\MD\S17HOWDSPSW\ACCORD\Trunk\SourceCode\DisplayBoard\HAL_Driver\Release\libHAL_Driver.a(hdulibstm32f7xxhalcan.o)
 .bss           0x00000000        0x0 D:\Work\Howell\MD\S17HOWDSPSW\ACCORD\Trunk\SourceCode\DisplayBoard\HAL_Driver\Release\libHAL_Driver.a(hdulibstm32f7xxhalcan.o)
 .text          0x00000000        0x0 D:\Work\Howell\MD\S17HOWDSPSW\ACCORD\Trunk\SourceCode\DisplayBoard\HAL_Driver\Release\libHAL_Driver.a(hdulibstm32f7xxhalcortex.o)
 .data          0x00000000        0x0 D:\Work\Howell\MD\S17HOWDSPSW\ACCORD\Trunk\SourceCode\DisplayBoard\HAL_Driver\Release\libHAL_Driver.a(hdulibstm32f7xxhalcortex.o)
 .bss           0x00000000        0x0 D:\Work\Howell\MD\S17HOWDSPSW\ACCORD\Trunk\SourceCode\DisplayBoard\HAL_Driver\Release\libHAL_Driver.a(hdulibstm32f7xxhalcortex.o)
 .text          0x00000000        0x0 D:\Work\Howell\MD\S17HOWDSPSW\ACCORD\Trunk\SourceCode\DisplayBoard\HAL_Driver\Release\libHAL_Driver.a(hdulibstm32f7xxhalcrc.o)
 .data          0x00000000        0x0 D:\Work\Howell\MD\S17HOWDSPSW\ACCORD\Trunk\SourceCode\DisplayBoard\HAL_Driver\Release\libHAL_Driver.a(hdulibstm32f7xxhalcrc.o)
 .bss           0x00000000        0x0 D:\Work\Howell\MD\S17HOWDSPSW\ACCORD\Trunk\SourceCode\DisplayBoard\HAL_Driver\Release\libHAL_Driver.a(hdulibstm32f7xxhalcrc.o)
 .text          0x00000000        0x0 D:\Work\Howell\MD\S17HOWDSPSW\ACCORD\Trunk\SourceCode\DisplayBoard\HAL_Driver\Release\libHAL_Driver.a(hdulibstm32f7xxhalcrcex.o)
 .data          0x00000000        0x0 D:\Work\Howell\MD\S17HOWDSPSW\ACCORD\Trunk\SourceCode\DisplayBoard\HAL_Driver\Release\libHAL_Driver.a(hdulibstm32f7xxhalcrcex.o)
 .bss           0x00000000        0x0 D:\Work\Howell\MD\S17HOWDSPSW\ACCORD\Trunk\SourceCode\DisplayBoard\HAL_Driver\Release\libHAL_Driver.a(hdulibstm32f7xxhalcrcex.o)
 .text          0x00000000        0x0 D:\Work\Howell\MD\S17HOWDSPSW\ACCORD\Trunk\SourceCode\DisplayBoard\HAL_Driver\Release\libHAL_Driver.a(hdulibstm32f7xxhaldma.o)
 .data          0x00000000        0x0 D:\Work\Howell\MD\S17HOWDSPSW\ACCORD\Trunk\SourceCode\DisplayBoard\HAL_Driver\Release\libHAL_Driver.a(hdulibstm32f7xxhaldma.o)
 .bss           0x00000000        0x0 D:\Work\Howell\MD\S17HOWDSPSW\ACCORD\Trunk\SourceCode\DisplayBoard\HAL_Driver\Release\libHAL_Driver.a(hdulibstm32f7xxhaldma.o)
 .text          0x00000000        0x0 D:\Work\Howell\MD\S17HOWDSPSW\ACCORD\Trunk\SourceCode\DisplayBoard\HAL_Driver\Release\libHAL_Driver.a(hdulibstm32f7xxhalgpio.o)
 .data          0x00000000        0x0 D:\Work\Howell\MD\S17HOWDSPSW\ACCORD\Trunk\SourceCode\DisplayBoard\HAL_Driver\Release\libHAL_Driver.a(hdulibstm32f7xxhalgpio.o)
 .bss           0x00000000        0x0 D:\Work\Howell\MD\S17HOWDSPSW\ACCORD\Trunk\SourceCode\DisplayBoard\HAL_Driver\Release\libHAL_Driver.a(hdulibstm32f7xxhalgpio.o)
 .text.HalGpioReadPin
                0x00000000       0x34 D:\Work\Howell\MD\S17HOWDSPSW\ACCORD\Trunk\SourceCode\DisplayBoard\HAL_Driver\Release\libHAL_Driver.a(hdulibstm32f7xxhalgpio.o)
 .text          0x00000000        0x0 D:\Work\Howell\MD\S17HOWDSPSW\ACCORD\Trunk\SourceCode\DisplayBoard\HAL_Driver\Release\libHAL_Driver.a(hdulibstm32f7xxhaliwdg.o)
 .data          0x00000000        0x0 D:\Work\Howell\MD\S17HOWDSPSW\ACCORD\Trunk\SourceCode\DisplayBoard\HAL_Driver\Release\libHAL_Driver.a(hdulibstm32f7xxhaliwdg.o)
 .bss           0x00000000        0x0 D:\Work\Howell\MD\S17HOWDSPSW\ACCORD\Trunk\SourceCode\DisplayBoard\HAL_Driver\Release\libHAL_Driver.a(hdulibstm32f7xxhaliwdg.o)
 .text          0x00000000        0x0 D:\Work\Howell\MD\S17HOWDSPSW\ACCORD\Trunk\SourceCode\DisplayBoard\HAL_Driver\Release\libHAL_Driver.a(hdulibstm32f7xxhalltdc.o)
 .data          0x00000000        0x0 D:\Work\Howell\MD\S17HOWDSPSW\ACCORD\Trunk\SourceCode\DisplayBoard\HAL_Driver\Release\libHAL_Driver.a(hdulibstm32f7xxhalltdc.o)
 .bss           0x00000000        0x0 D:\Work\Howell\MD\S17HOWDSPSW\ACCORD\Trunk\SourceCode\DisplayBoard\HAL_Driver\Release\libHAL_Driver.a(hdulibstm32f7xxhalltdc.o)
 .text.HalLtdcEnableClut
                0x00000000       0x74 D:\Work\Howell\MD\S17HOWDSPSW\ACCORD\Trunk\SourceCode\DisplayBoard\HAL_Driver\Release\libHAL_Driver.a(hdulibstm32f7xxhalltdc.o)
 .text.HalLtdcConfigClut
                0x00000000       0xe8 D:\Work\Howell\MD\S17HOWDSPSW\ACCORD\Trunk\SourceCode\DisplayBoard\HAL_Driver\Release\libHAL_Driver.a(hdulibstm32f7xxhalltdc.o)
 .text          0x00000000        0x0 D:\Work\Howell\MD\S17HOWDSPSW\ACCORD\Trunk\SourceCode\DisplayBoard\HAL_Driver\Release\libHAL_Driver.a(hdulibstm32f7xxhalmsp.o)
 .data          0x00000000        0x0 D:\Work\Howell\MD\S17HOWDSPSW\ACCORD\Trunk\SourceCode\DisplayBoard\HAL_Driver\Release\libHAL_Driver.a(hdulibstm32f7xxhalmsp.o)
 .bss           0x00000000        0x0 D:\Work\Howell\MD\S17HOWDSPSW\ACCORD\Trunk\SourceCode\DisplayBoard\HAL_Driver\Release\libHAL_Driver.a(hdulibstm32f7xxhalmsp.o)
 .text          0x00000000        0x0 D:\Work\Howell\MD\S17HOWDSPSW\ACCORD\Trunk\SourceCode\DisplayBoard\HAL_Driver\Release\libHAL_Driver.a(hdulibstm32f7xxhalnor.o)
 .data          0x00000000        0x0 D:\Work\Howell\MD\S17HOWDSPSW\ACCORD\Trunk\SourceCode\DisplayBoard\HAL_Driver\Release\libHAL_Driver.a(hdulibstm32f7xxhalnor.o)
 .bss           0x00000000        0x0 D:\Work\Howell\MD\S17HOWDSPSW\ACCORD\Trunk\SourceCode\DisplayBoard\HAL_Driver\Release\libHAL_Driver.a(hdulibstm32f7xxhalnor.o)
 .text          0x00000000        0x0 D:\Work\Howell\MD\S17HOWDSPSW\ACCORD\Trunk\SourceCode\DisplayBoard\HAL_Driver\Release\libHAL_Driver.a(hdulibstm32f7xxhalpwrex.o)
 .data          0x00000000        0x0 D:\Work\Howell\MD\S17HOWDSPSW\ACCORD\Trunk\SourceCode\DisplayBoard\HAL_Driver\Release\libHAL_Driver.a(hdulibstm32f7xxhalpwrex.o)
 .bss           0x00000000        0x0 D:\Work\Howell\MD\S17HOWDSPSW\ACCORD\Trunk\SourceCode\DisplayBoard\HAL_Driver\Release\libHAL_Driver.a(hdulibstm32f7xxhalpwrex.o)
 .text          0x00000000        0x0 D:\Work\Howell\MD\S17HOWDSPSW\ACCORD\Trunk\SourceCode\DisplayBoard\HAL_Driver\Release\libHAL_Driver.a(hdulibstm32f7xxhalrcc.o)
 .data          0x00000000        0x0 D:\Work\Howell\MD\S17HOWDSPSW\ACCORD\Trunk\SourceCode\DisplayBoard\HAL_Driver\Release\libHAL_Driver.a(hdulibstm32f7xxhalrcc.o)
 .bss           0x00000000        0x0 D:\Work\Howell\MD\S17HOWDSPSW\ACCORD\Trunk\SourceCode\DisplayBoard\HAL_Driver\Release\libHAL_Driver.a(hdulibstm32f7xxhalrcc.o)
 .text          0x00000000        0x0 D:\Work\Howell\MD\S17HOWDSPSW\ACCORD\Trunk\SourceCode\DisplayBoard\HAL_Driver\Release\libHAL_Driver.a(hdulibstm32f7xxhalrccex.o)
 .data          0x00000000        0x0 D:\Work\Howell\MD\S17HOWDSPSW\ACCORD\Trunk\SourceCode\DisplayBoard\HAL_Driver\Release\libHAL_Driver.a(hdulibstm32f7xxhalrccex.o)
 .bss           0x00000000        0x0 D:\Work\Howell\MD\S17HOWDSPSW\ACCORD\Trunk\SourceCode\DisplayBoard\HAL_Driver\Release\libHAL_Driver.a(hdulibstm32f7xxhalrccex.o)
 .text          0x00000000        0x0 D:\Work\Howell\MD\S17HOWDSPSW\ACCORD\Trunk\SourceCode\DisplayBoard\HAL_Driver\Release\libHAL_Driver.a(hdulibstm32f7xxhalsdram.o)
 .data          0x00000000        0x0 D:\Work\Howell\MD\S17HOWDSPSW\ACCORD\Trunk\SourceCode\DisplayBoard\HAL_Driver\Release\libHAL_Driver.a(hdulibstm32f7xxhalsdram.o)
 .bss           0x00000000        0x0 D:\Work\Howell\MD\S17HOWDSPSW\ACCORD\Trunk\SourceCode\DisplayBoard\HAL_Driver\Release\libHAL_Driver.a(hdulibstm32f7xxhalsdram.o)
 .text          0x00000000        0x0 D:\Work\Howell\MD\S17HOWDSPSW\ACCORD\Trunk\SourceCode\DisplayBoard\HAL_Driver\Release\libHAL_Driver.a(hdulibstm32f7xxhaltim.o)
 .data          0x00000000        0x0 D:\Work\Howell\MD\S17HOWDSPSW\ACCORD\Trunk\SourceCode\DisplayBoard\HAL_Driver\Release\libHAL_Driver.a(hdulibstm32f7xxhaltim.o)
 .bss           0x00000000        0x0 D:\Work\Howell\MD\S17HOWDSPSW\ACCORD\Trunk\SourceCode\DisplayBoard\HAL_Driver\Release\libHAL_Driver.a(hdulibstm32f7xxhaltim.o)
 .text          0x00000000        0x0 D:\Work\Howell\MD\S17HOWDSPSW\ACCORD\Trunk\SourceCode\DisplayBoard\HAL_Driver\Release\libHAL_Driver.a(hdulibstm32f7xxit.o)
 .data          0x00000000        0x0 D:\Work\Howell\MD\S17HOWDSPSW\ACCORD\Trunk\SourceCode\DisplayBoard\HAL_Driver\Release\libHAL_Driver.a(hdulibstm32f7xxit.o)
 .bss           0x00000000        0x0 D:\Work\Howell\MD\S17HOWDSPSW\ACCORD\Trunk\SourceCode\DisplayBoard\HAL_Driver\Release\libHAL_Driver.a(hdulibstm32f7xxit.o)
 .text.PendSVHandler
                0x00000000       0x10 D:\Work\Howell\MD\S17HOWDSPSW\ACCORD\Trunk\SourceCode\DisplayBoard\HAL_Driver\Release\libHAL_Driver.a(hdulibstm32f7xxit.o)
 .text          0x00000000        0x0 D:\Work\Howell\MD\S17HOWDSPSW\ACCORD\Trunk\SourceCode\DisplayBoard\HAL_Driver\Release\libHAL_Driver.a(hdulibsystemstm32f7xx.o)
 .data          0x00000000        0x0 D:\Work\Howell\MD\S17HOWDSPSW\ACCORD\Trunk\SourceCode\DisplayBoard\HAL_Driver\Release\libHAL_Driver.a(hdulibsystemstm32f7xx.o)
 .bss           0x00000000        0x0 D:\Work\Howell\MD\S17HOWDSPSW\ACCORD\Trunk\SourceCode\DisplayBoard\HAL_Driver\Release\libHAL_Driver.a(hdulibsystemstm32f7xx.o)
 .rodata.Apb_presc_table
                0x00000000        0x8 D:\Work\Howell\MD\S17HOWDSPSW\ACCORD\Trunk\SourceCode\DisplayBoard\HAL_Driver\Release\libHAL_Driver.a(hdulibsystemstm32f7xx.o)
 .text          0x00000000        0x0 D:\Work\Howell\MD\S17HOWDSPSW\ACCORD\Trunk\SourceCode\DisplayBoard\HAL_Driver\Release\libHAL_Driver.a(hdulibstm32f7xxhalfmc.o)
 .data          0x00000000        0x0 D:\Work\Howell\MD\S17HOWDSPSW\ACCORD\Trunk\SourceCode\DisplayBoard\HAL_Driver\Release\libHAL_Driver.a(hdulibstm32f7xxhalfmc.o)
 .bss           0x00000000        0x0 D:\Work\Howell\MD\S17HOWDSPSW\ACCORD\Trunk\SourceCode\DisplayBoard\HAL_Driver\Release\libHAL_Driver.a(hdulibstm32f7xxhalfmc.o)
 .text          0x00000000        0x0 D:\Work\Howell\MD\S17HOWDSPSW\ACCORD\Trunk\SourceCode\DisplayBoard\WIDGETS\Release\libWIDGETS.a(hdudispfconfig.o)
 .data          0x00000000        0x0 D:\Work\Howell\MD\S17HOWDSPSW\ACCORD\Trunk\SourceCode\DisplayBoard\WIDGETS\Release\libWIDGETS.a(hdudispfconfig.o)
 .bss           0x00000000        0x0 D:\Work\Howell\MD\S17HOWDSPSW\ACCORD\Trunk\SourceCode\DisplayBoard\WIDGETS\Release\libWIDGETS.a(hdudispfconfig.o)
 .text          0x00000000        0x0 D:\Work\Howell\MD\S17HOWDSPSW\ACCORD\Trunk\SourceCode\DisplayBoard\WIDGETS\Release\libWIDGETS.a(hdudispffonts.o)
 .data          0x00000000        0x0 D:\Work\Howell\MD\S17HOWDSPSW\ACCORD\Trunk\SourceCode\DisplayBoard\WIDGETS\Release\libWIDGETS.a(hdudispffonts.o)
 .bss           0x00000000        0x0 D:\Work\Howell\MD\S17HOWDSPSW\ACCORD\Trunk\SourceCode\DisplayBoard\WIDGETS\Release\libWIDGETS.a(hdudispffonts.o)
 .text          0x00000000        0x0 D:\Work\Howell\MD\S17HOWDSPSW\ACCORD\Trunk\SourceCode\DisplayBoard\WIDGETS\Release\libWIDGETS.a(hdudispfbargraphs.o)
 .data          0x00000000        0x0 D:\Work\Howell\MD\S17HOWDSPSW\ACCORD\Trunk\SourceCode\DisplayBoard\WIDGETS\Release\libWIDGETS.a(hdudispfbargraphs.o)
 .bss           0x00000000        0x0 D:\Work\Howell\MD\S17HOWDSPSW\ACCORD\Trunk\SourceCode\DisplayBoard\WIDGETS\Release\libWIDGETS.a(hdudispfbargraphs.o)
 .text          0x00000000        0x0 D:\Work\Howell\MD\S17HOWDSPSW\ACCORD\Trunk\SourceCode\DisplayBoard\WIDGETS\Release\libWIDGETS.a(hdudispfcarrotgraph.o)
 .data          0x00000000        0x0 D:\Work\Howell\MD\S17HOWDSPSW\ACCORD\Trunk\SourceCode\DisplayBoard\WIDGETS\Release\libWIDGETS.a(hdudispfcarrotgraph.o)
 .bss           0x00000000        0x0 D:\Work\Howell\MD\S17HOWDSPSW\ACCORD\Trunk\SourceCode\DisplayBoard\WIDGETS\Release\libWIDGETS.a(hdudispfcarrotgraph.o)
 .text          0x00000000        0x0 D:\Work\Howell\MD\S17HOWDSPSW\ACCORD\Trunk\SourceCode\DisplayBoard\WIDGETS\Release\libWIDGETS.a(hdudispfnumbox.o)
 .data          0x00000000        0x0 D:\Work\Howell\MD\S17HOWDSPSW\ACCORD\Trunk\SourceCode\DisplayBoard\WIDGETS\Release\libWIDGETS.a(hdudispfnumbox.o)
 .bss           0x00000000        0x0 D:\Work\Howell\MD\S17HOWDSPSW\ACCORD\Trunk\SourceCode\DisplayBoard\WIDGETS\Release\libWIDGETS.a(hdudispfnumbox.o)
 .text          0x00000000        0x0 D:\Work\Howell\MD\S17HOWDSPSW\ACCORD\Trunk\SourceCode\DisplayBoard\WIDGETS\Release\libWIDGETS.a(hdudispfpolygon1.o)
 .data          0x00000000        0x0 D:\Work\Howell\MD\S17HOWDSPSW\ACCORD\Trunk\SourceCode\DisplayBoard\WIDGETS\Release\libWIDGETS.a(hdudispfpolygon1.o)
 .bss           0x00000000        0x0 D:\Work\Howell\MD\S17HOWDSPSW\ACCORD\Trunk\SourceCode\DisplayBoard\WIDGETS\Release\libWIDGETS.a(hdudispfpolygon1.o)
 .text          0x00000000        0x0 D:\Work\Howell\MD\S17HOWDSPSW\ACCORD\Trunk\SourceCode\DisplayBoard\WIDGETS\Release\libWIDGETS.a(hdudispfpolygon2.o)
 .data          0x00000000        0x0 D:\Work\Howell\MD\S17HOWDSPSW\ACCORD\Trunk\SourceCode\DisplayBoard\WIDGETS\Release\libWIDGETS.a(hdudispfpolygon2.o)
 .bss           0x00000000        0x0 D:\Work\Howell\MD\S17HOWDSPSW\ACCORD\Trunk\SourceCode\DisplayBoard\WIDGETS\Release\libWIDGETS.a(hdudispfpolygon2.o)
 .text          0x00000000        0x0 D:\Work\Howell\MD\S17HOWDSPSW\ACCORD\Trunk\SourceCode\DisplayBoard\WIDGETS\Release\libWIDGETS.a(hdudispfrounddial.o)
 .data          0x00000000        0x0 D:\Work\Howell\MD\S17HOWDSPSW\ACCORD\Trunk\SourceCode\DisplayBoard\WIDGETS\Release\libWIDGETS.a(hdudispfrounddial.o)
 .bss           0x00000000        0x0 D:\Work\Howell\MD\S17HOWDSPSW\ACCORD\Trunk\SourceCode\DisplayBoard\WIDGETS\Release\libWIDGETS.a(hdudispfrounddial.o)
 .text          0x00000000        0x0 D:\Work\Howell\MD\S17HOWDSPSW\ACCORD\Trunk\SourceCode\DisplayBoard\WIDGETS\Release\libWIDGETS.a(hdudispftext.o)
 .data          0x00000000        0x0 D:\Work\Howell\MD\S17HOWDSPSW\ACCORD\Trunk\SourceCode\DisplayBoard\WIDGETS\Release\libWIDGETS.a(hdudispftext.o)
 .bss           0x00000000        0x0 D:\Work\Howell\MD\S17HOWDSPSW\ACCORD\Trunk\SourceCode\DisplayBoard\WIDGETS\Release\libWIDGETS.a(hdudispftext.o)
 .text          0x00000000        0x0 D:\Work\Howell\MD\S17HOWDSPSW\ACCORD\Trunk\SourceCode\DisplayBoard\WIDGETS\Release\libWIDGETS.a(hdudispftextbox.o)
 .data          0x00000000        0x0 D:\Work\Howell\MD\S17HOWDSPSW\ACCORD\Trunk\SourceCode\DisplayBoard\WIDGETS\Release\libWIDGETS.a(hdudispftextbox.o)
 .bss           0x00000000        0x0 D:\Work\Howell\MD\S17HOWDSPSW\ACCORD\Trunk\SourceCode\DisplayBoard\WIDGETS\Release\libWIDGETS.a(hdudispftextbox.o)
 .text          0x00000000        0x0 D:\Work\Howell\MD\S17HOWDSPSW\ACCORD\Trunk\SourceCode\DisplayBoard\WIDGETS\Release\libWIDGETS.a(hdudispftimers.o)
 .data          0x00000000        0x0 D:\Work\Howell\MD\S17HOWDSPSW\ACCORD\Trunk\SourceCode\DisplayBoard\WIDGETS\Release\libWIDGETS.a(hdudispftimers.o)
 .bss           0x00000000        0x0 D:\Work\Howell\MD\S17HOWDSPSW\ACCORD\Trunk\SourceCode\DisplayBoard\WIDGETS\Release\libWIDGETS.a(hdudispftimers.o)
 .text          0x00000000        0x0 D:\Work\Howell\MD\S17HOWDSPSW\ACCORD\Trunk\SourceCode\DisplayBoard\WIDGETS\Release\libWIDGETS.a(hdudispfwidgets.o)
 .data          0x00000000        0x0 D:\Work\Howell\MD\S17HOWDSPSW\ACCORD\Trunk\SourceCode\DisplayBoard\WIDGETS\Release\libWIDGETS.a(hdudispfwidgets.o)
 .bss           0x00000000        0x0 D:\Work\Howell\MD\S17HOWDSPSW\ACCORD\Trunk\SourceCode\DisplayBoard\WIDGETS\Release\libWIDGETS.a(hdudispfwidgets.o)
 .text          0x00000000        0x0 D:\Work\Howell\MD\S17HOWDSPSW\ACCORD\Trunk\SourceCode\DisplayBoard\WIDGETS\Release\libWIDGETS.a(hdudispfbinascii.o)
 .data          0x00000000        0x0 D:\Work\Howell\MD\S17HOWDSPSW\ACCORD\Trunk\SourceCode\DisplayBoard\WIDGETS\Release\libWIDGETS.a(hdudispfbinascii.o)
 .bss           0x00000000        0x0 D:\Work\Howell\MD\S17HOWDSPSW\ACCORD\Trunk\SourceCode\DisplayBoard\WIDGETS\Release\libWIDGETS.a(hdudispfbinascii.o)
 .text          0x00000000        0x0 D:\Work\Howell\MD\S17HOWDSPSW\ACCORD\Trunk\SourceCode\DisplayBoard\WIDGETS\Release\libWIDGETS.a(hdudispflookup.o)
 .data          0x00000000        0x0 D:\Work\Howell\MD\S17HOWDSPSW\ACCORD\Trunk\SourceCode\DisplayBoard\WIDGETS\Release\libWIDGETS.a(hdudispflookup.o)
 .bss           0x00000000        0x0 D:\Work\Howell\MD\S17HOWDSPSW\ACCORD\Trunk\SourceCode\DisplayBoard\WIDGETS\Release\libWIDGETS.a(hdudispflookup.o)
 .text          0x00000000        0x0 D:\Work\Howell\MD\S17HOWDSPSW\ACCORD\Trunk\SourceCode\DisplayBoard\WIDGETS\Release\libWIDGETS.a(hdudispfrterror.o)
 .data          0x00000000        0x0 D:\Work\Howell\MD\S17HOWDSPSW\ACCORD\Trunk\SourceCode\DisplayBoard\WIDGETS\Release\libWIDGETS.a(hdudispfrterror.o)
 .bss           0x00000000        0x0 D:\Work\Howell\MD\S17HOWDSPSW\ACCORD\Trunk\SourceCode\DisplayBoard\WIDGETS\Release\libWIDGETS.a(hdudispfrterror.o)
 .text          0x00000000        0x0 D:\Work\Howell\MD\S17HOWDSPSW\ACCORD\Trunk\SourceCode\DisplayBoard\WIDGETS\Release\libWIDGETS.a(hdudispftimer.o)
 .data          0x00000000        0x0 D:\Work\Howell\MD\S17HOWDSPSW\ACCORD\Trunk\SourceCode\DisplayBoard\WIDGETS\Release\libWIDGETS.a(hdudispftimer.o)
 .bss           0x00000000        0x0 D:\Work\Howell\MD\S17HOWDSPSW\ACCORD\Trunk\SourceCode\DisplayBoard\WIDGETS\Release\libWIDGETS.a(hdudispftimer.o)
 .text          0x00000000        0x0 D:\Work\Howell\MD\S17HOWDSPSW\ACCORD\Trunk\SourceCode\DisplayBoard\WIDGETS\Release\libWIDGETS.a(hdudispfbfarmcosq15.o)
 .data          0x00000000        0x0 D:\Work\Howell\MD\S17HOWDSPSW\ACCORD\Trunk\SourceCode\DisplayBoard\WIDGETS\Release\libWIDGETS.a(hdudispfbfarmcosq15.o)
 .bss           0x00000000        0x0 D:\Work\Howell\MD\S17HOWDSPSW\ACCORD\Trunk\SourceCode\DisplayBoard\WIDGETS\Release\libWIDGETS.a(hdudispfbfarmcosq15.o)
 .text          0x00000000        0x0 D:\Work\Howell\MD\S17HOWDSPSW\ACCORD\Trunk\SourceCode\DisplayBoard\WIDGETS\Release\libWIDGETS.a(hdudispfbfarmsinq15.o)
 .data          0x00000000        0x0 D:\Work\Howell\MD\S17HOWDSPSW\ACCORD\Trunk\SourceCode\DisplayBoard\WIDGETS\Release\libWIDGETS.a(hdudispfbfarmsinq15.o)
 .bss           0x00000000        0x0 D:\Work\Howell\MD\S17HOWDSPSW\ACCORD\Trunk\SourceCode\DisplayBoard\WIDGETS\Release\libWIDGETS.a(hdudispfbfarmsinq15.o)
 .text          0x00000000        0x0 D:\Work\Howell\MD\S17HOWDSPSW\ACCORD\Trunk\SourceCode\DisplayBoard\WIDGETS\Release\libWIDGETS.a(hdudispfbfarmcommontables.o)
 .data          0x00000000        0x0 D:\Work\Howell\MD\S17HOWDSPSW\ACCORD\Trunk\SourceCode\DisplayBoard\WIDGETS\Release\libWIDGETS.a(hdudispfbfarmcommontables.o)
 .bss           0x00000000        0x0 D:\Work\Howell\MD\S17HOWDSPSW\ACCORD\Trunk\SourceCode\DisplayBoard\WIDGETS\Release\libWIDGETS.a(hdudispfbfarmcommontables.o)
 .text          0x00000000        0x0 c:/ac6/systemworkbench/plugins/fr.ac6.mcu.externaltools.arm-none.win32_1.13.2.201705091103/tools/compiler/bin/../lib/gcc/arm-none-eabi/5.4.1/../../../../arm-none-eabi/lib/armv7e-m/fpu/fpv5-sp-d16\libc.a(lib_a-exit.o)
 .data          0x00000000        0x0 c:/ac6/systemworkbench/plugins/fr.ac6.mcu.externaltools.arm-none.win32_1.13.2.201705091103/tools/compiler/bin/../lib/gcc/arm-none-eabi/5.4.1/../../../../arm-none-eabi/lib/armv7e-m/fpu/fpv5-sp-d16\libc.a(lib_a-exit.o)
 .bss           0x00000000        0x0 c:/ac6/systemworkbench/plugins/fr.ac6.mcu.externaltools.arm-none.win32_1.13.2.201705091103/tools/compiler/bin/../lib/gcc/arm-none-eabi/5.4.1/../../../../arm-none-eabi/lib/armv7e-m/fpu/fpv5-sp-d16\libc.a(lib_a-exit.o)
 .text.exit     0x00000000       0x20 c:/ac6/systemworkbench/plugins/fr.ac6.mcu.externaltools.arm-none.win32_1.13.2.201705091103/tools/compiler/bin/../lib/gcc/arm-none-eabi/5.4.1/../../../../arm-none-eabi/lib/armv7e-m/fpu/fpv5-sp-d16\libc.a(lib_a-exit.o)
 .debug_frame   0x00000000       0x28 c:/ac6/systemworkbench/plugins/fr.ac6.mcu.externaltools.arm-none.win32_1.13.2.201705091103/tools/compiler/bin/../lib/gcc/arm-none-eabi/5.4.1/../../../../arm-none-eabi/lib/armv7e-m/fpu/fpv5-sp-d16\libc.a(lib_a-exit.o)
 .ARM.attributes
                0x00000000       0x34 c:/ac6/systemworkbench/plugins/fr.ac6.mcu.externaltools.arm-none.win32_1.13.2.201705091103/tools/compiler/bin/../lib/gcc/arm-none-eabi/5.4.1/../../../../arm-none-eabi/lib/armv7e-m/fpu/fpv5-sp-d16\libc.a(lib_a-exit.o)
 .text          0x00000000        0x0 c:/ac6/systemworkbench/plugins/fr.ac6.mcu.externaltools.arm-none.win32_1.13.2.201705091103/tools/compiler/bin/../lib/gcc/arm-none-eabi/5.4.1/../../../../arm-none-eabi/lib/armv7e-m/fpu/fpv5-sp-d16\libc.a(lib_a-impure.o)
 .data          0x00000000        0x0 c:/ac6/systemworkbench/plugins/fr.ac6.mcu.externaltools.arm-none.win32_1.13.2.201705091103/tools/compiler/bin/../lib/gcc/arm-none-eabi/5.4.1/../../../../arm-none-eabi/lib/armv7e-m/fpu/fpv5-sp-d16\libc.a(lib_a-impure.o)
 .bss           0x00000000        0x0 c:/ac6/systemworkbench/plugins/fr.ac6.mcu.externaltools.arm-none.win32_1.13.2.201705091103/tools/compiler/bin/../lib/gcc/arm-none-eabi/5.4.1/../../../../arm-none-eabi/lib/armv7e-m/fpu/fpv5-sp-d16\libc.a(lib_a-impure.o)
 .data._impure_ptr
                0x00000000        0x4 c:/ac6/systemworkbench/plugins/fr.ac6.mcu.externaltools.arm-none.win32_1.13.2.201705091103/tools/compiler/bin/../lib/gcc/arm-none-eabi/5.4.1/../../../../arm-none-eabi/lib/armv7e-m/fpu/fpv5-sp-d16\libc.a(lib_a-impure.o)
 .text          0x00000000        0x0 c:/ac6/systemworkbench/plugins/fr.ac6.mcu.externaltools.arm-none.win32_1.13.2.201705091103/tools/compiler/bin/../lib/gcc/arm-none-eabi/5.4.1/../../../../arm-none-eabi/lib/armv7e-m/fpu/fpv5-sp-d16\libc.a(lib_a-init.o)
 .data          0x00000000        0x0 c:/ac6/systemworkbench/plugins/fr.ac6.mcu.externaltools.arm-none.win32_1.13.2.201705091103/tools/compiler/bin/../lib/gcc/arm-none-eabi/5.4.1/../../../../arm-none-eabi/lib/armv7e-m/fpu/fpv5-sp-d16\libc.a(lib_a-init.o)
 .bss           0x00000000        0x0 c:/ac6/systemworkbench/plugins/fr.ac6.mcu.externaltools.arm-none.win32_1.13.2.201705091103/tools/compiler/bin/../lib/gcc/arm-none-eabi/5.4.1/../../../../arm-none-eabi/lib/armv7e-m/fpu/fpv5-sp-d16\libc.a(lib_a-init.o)
 .text          0x00000000        0x0 c:/ac6/systemworkbench/plugins/fr.ac6.mcu.externaltools.arm-none.win32_1.13.2.201705091103/tools/compiler/bin/../lib/gcc/arm-none-eabi/5.4.1/../../../../arm-none-eabi/lib/armv7e-m/fpu/fpv5-sp-d16\libc.a(lib_a-memset.o)
 .data          0x00000000        0x0 c:/ac6/systemworkbench/plugins/fr.ac6.mcu.externaltools.arm-none.win32_1.13.2.201705091103/tools/compiler/bin/../lib/gcc/arm-none-eabi/5.4.1/../../../../arm-none-eabi/lib/armv7e-m/fpu/fpv5-sp-d16\libc.a(lib_a-memset.o)
 .bss           0x00000000        0x0 c:/ac6/systemworkbench/plugins/fr.ac6.mcu.externaltools.arm-none.win32_1.13.2.201705091103/tools/compiler/bin/../lib/gcc/arm-none-eabi/5.4.1/../../../../arm-none-eabi/lib/armv7e-m/fpu/fpv5-sp-d16\libc.a(lib_a-memset.o)
 .text          0x00000000        0x0 c:/ac6/systemworkbench/plugins/fr.ac6.mcu.externaltools.arm-none.win32_1.13.2.201705091103/tools/compiler/bin/../lib/gcc/arm-none-eabi/5.4.1/../../../../arm-none-eabi/lib/armv7e-m/fpu/fpv5-sp-d16\libc.a(lib_a-__call_atexit.o)
 .data          0x00000000        0x0 c:/ac6/systemworkbench/plugins/fr.ac6.mcu.externaltools.arm-none.win32_1.13.2.201705091103/tools/compiler/bin/../lib/gcc/arm-none-eabi/5.4.1/../../../../arm-none-eabi/lib/armv7e-m/fpu/fpv5-sp-d16\libc.a(lib_a-__call_atexit.o)
 .bss           0x00000000        0x0 c:/ac6/systemworkbench/plugins/fr.ac6.mcu.externaltools.arm-none.win32_1.13.2.201705091103/tools/compiler/bin/../lib/gcc/arm-none-eabi/5.4.1/../../../../arm-none-eabi/lib/armv7e-m/fpu/fpv5-sp-d16\libc.a(lib_a-__call_atexit.o)
 .text.__call_exitprocs
                0x00000000       0xd8 c:/ac6/systemworkbench/plugins/fr.ac6.mcu.externaltools.arm-none.win32_1.13.2.201705091103/tools/compiler/bin/../lib/gcc/arm-none-eabi/5.4.1/../../../../arm-none-eabi/lib/armv7e-m/fpu/fpv5-sp-d16\libc.a(lib_a-__call_atexit.o)
 .text          0x00000000        0x0 c:/ac6/systemworkbench/plugins/fr.ac6.mcu.externaltools.arm-none.win32_1.13.2.201705091103/tools/compiler/bin/../lib/gcc/arm-none-eabi/5.4.1/../../../../arm-none-eabi/lib/armv7e-m/fpu/fpv5-sp-d16\libc.a(lib_a-atexit.o)
 .data          0x00000000        0x0 c:/ac6/systemworkbench/plugins/fr.ac6.mcu.externaltools.arm-none.win32_1.13.2.201705091103/tools/compiler/bin/../lib/gcc/arm-none-eabi/5.4.1/../../../../arm-none-eabi/lib/armv7e-m/fpu/fpv5-sp-d16\libc.a(lib_a-atexit.o)
 .bss           0x00000000        0x0 c:/ac6/systemworkbench/plugins/fr.ac6.mcu.externaltools.arm-none.win32_1.13.2.201705091103/tools/compiler/bin/../lib/gcc/arm-none-eabi/5.4.1/../../../../arm-none-eabi/lib/armv7e-m/fpu/fpv5-sp-d16\libc.a(lib_a-atexit.o)
 .text          0x00000000        0x0 c:/ac6/systemworkbench/plugins/fr.ac6.mcu.externaltools.arm-none.win32_1.13.2.201705091103/tools/compiler/bin/../lib/gcc/arm-none-eabi/5.4.1/../../../../arm-none-eabi/lib/armv7e-m/fpu/fpv5-sp-d16\libc.a(lib_a-fini.o)
 .data          0x00000000        0x0 c:/ac6/systemworkbench/plugins/fr.ac6.mcu.externaltools.arm-none.win32_1.13.2.201705091103/tools/compiler/bin/../lib/gcc/arm-none-eabi/5.4.1/../../../../arm-none-eabi/lib/armv7e-m/fpu/fpv5-sp-d16\libc.a(lib_a-fini.o)
 .bss           0x00000000        0x0 c:/ac6/systemworkbench/plugins/fr.ac6.mcu.externaltools.arm-none.win32_1.13.2.201705091103/tools/compiler/bin/../lib/gcc/arm-none-eabi/5.4.1/../../../../arm-none-eabi/lib/armv7e-m/fpu/fpv5-sp-d16\libc.a(lib_a-fini.o)
 .text          0x00000000        0x0 c:/ac6/systemworkbench/plugins/fr.ac6.mcu.externaltools.arm-none.win32_1.13.2.201705091103/tools/compiler/bin/../lib/gcc/arm-none-eabi/5.4.1/../../../../arm-none-eabi/lib/armv7e-m/fpu/fpv5-sp-d16\libc.a(lib_a-__atexit.o)
 .data          0x00000000        0x0 c:/ac6/systemworkbench/plugins/fr.ac6.mcu.externaltools.arm-none.win32_1.13.2.201705091103/tools/compiler/bin/../lib/gcc/arm-none-eabi/5.4.1/../../../../arm-none-eabi/lib/armv7e-m/fpu/fpv5-sp-d16\libc.a(lib_a-__atexit.o)
 .bss           0x00000000        0x0 c:/ac6/systemworkbench/plugins/fr.ac6.mcu.externaltools.arm-none.win32_1.13.2.201705091103/tools/compiler/bin/../lib/gcc/arm-none-eabi/5.4.1/../../../../arm-none-eabi/lib/armv7e-m/fpu/fpv5-sp-d16\libc.a(lib_a-__atexit.o)
 .text          0x00000000        0x0 c:/ac6/systemworkbench/plugins/fr.ac6.mcu.externaltools.arm-none.win32_1.13.2.201705091103/tools/compiler/bin/../lib/gcc/arm-none-eabi/5.4.1/armv7e-m/fpu/fpv5-sp-d16/crtend.o
 .data          0x00000000        0x0 c:/ac6/systemworkbench/plugins/fr.ac6.mcu.externaltools.arm-none.win32_1.13.2.201705091103/tools/compiler/bin/../lib/gcc/arm-none-eabi/5.4.1/armv7e-m/fpu/fpv5-sp-d16/crtend.o
 .bss           0x00000000        0x0 c:/ac6/systemworkbench/plugins/fr.ac6.mcu.externaltools.arm-none.win32_1.13.2.201705091103/tools/compiler/bin/../lib/gcc/arm-none-eabi/5.4.1/armv7e-m/fpu/fpv5-sp-d16/crtend.o
 .eh_frame      0x00000000        0x4 c:/ac6/systemworkbench/plugins/fr.ac6.mcu.externaltools.arm-none.win32_1.13.2.201705091103/tools/compiler/bin/../lib/gcc/arm-none-eabi/5.4.1/armv7e-m/fpu/fpv5-sp-d16/crtend.o
 .jcr           0x00000000        0x4 c:/ac6/systemworkbench/plugins/fr.ac6.mcu.externaltools.arm-none.win32_1.13.2.201705091103/tools/compiler/bin/../lib/gcc/arm-none-eabi/5.4.1/armv7e-m/fpu/fpv5-sp-d16/crtend.o
 .ARM.attributes
                0x00000000       0x34 c:/ac6/systemworkbench/plugins/fr.ac6.mcu.externaltools.arm-none.win32_1.13.2.201705091103/tools/compiler/bin/../lib/gcc/arm-none-eabi/5.4.1/armv7e-m/fpu/fpv5-sp-d16/crtend.o
 .text          0x00000000        0x0 c:/ac6/systemworkbench/plugins/fr.ac6.mcu.externaltools.arm-none.win32_1.13.2.201705091103/tools/compiler/bin/../lib/gcc/arm-none-eabi/5.4.1/armv7e-m/fpu/fpv5-sp-d16/crtn.o
 .data          0x00000000        0x0 c:/ac6/systemworkbench/plugins/fr.ac6.mcu.externaltools.arm-none.win32_1.13.2.201705091103/tools/compiler/bin/../lib/gcc/arm-none-eabi/5.4.1/armv7e-m/fpu/fpv5-sp-d16/crtn.o
 .bss           0x00000000        0x0 c:/ac6/systemworkbench/plugins/fr.ac6.mcu.externaltools.arm-none.win32_1.13.2.201705091103/tools/compiler/bin/../lib/gcc/arm-none-eabi/5.4.1/armv7e-m/fpu/fpv5-sp-d16/crtn.o

Memory Configuration

Name             Origin             Length             Attributes
RAM              0x20000000         0x0007c000         xrw
RAM2             0x2007c000         0x00001000         xrw
ROM              0x080c0000         0x000bffec         xr
ROM2             0x0817ffec         0x00000014         xr
SDRAM            0xc0000000         0x01800000         xrw
SDRAM2           0xc1800000         0x00800000         xrw
*default*        0x00000000         0xffffffff

Linker script and memory map

LOAD c:/ac6/systemworkbench/plugins/fr.ac6.mcu.externaltools.arm-none.win32_1.13.2.201705091103/tools/compiler/bin/../lib/gcc/arm-none-eabi/5.4.1/armv7e-m/fpu/fpv5-sp-d16/crti.o
LOAD c:/ac6/systemworkbench/plugins/fr.ac6.mcu.externaltools.arm-none.win32_1.13.2.201705091103/tools/compiler/bin/../lib/gcc/arm-none-eabi/5.4.1/armv7e-m/fpu/fpv5-sp-d16/crtbegin.o
LOAD c:/ac6/systemworkbench/plugins/fr.ac6.mcu.externaltools.arm-none.win32_1.13.2.201705091103/tools/compiler/bin/../lib/gcc/arm-none-eabi/5.4.1/../../../../arm-none-eabi/lib/armv7e-m/fpu/fpv5-sp-d16/crt0.o
LOAD BSP/hdudispfpbs.o
LOAD BSP/hdudispfpwm.o
LOAD BSP/hdudispfstmadc.o
LOAD Shared/hdudispfa825comm1.o
LOAD Shared/hdudispfa825comm2.o
LOAD Shared/hdudispfarinc825perph1.o
LOAD Shared/hdudispfarinc825perph2.o
LOAD Shared/hdudispfbspled.o
LOAD Shared/hdudispfforeground.o
LOAD Shared/hdudispfpanel.o
LOAD app/hdudispfapp.o
LOAD app/hdudispfdemo.o
LOAD app/hdudispfgrapp.o
LOAD app/hdudispfinit.o
LOAD app/hdudispfmdff.o
LOAD app/hdudispfmenu.o
LOAD app/hdudispfmenu2.o
LOAD app/hdudispfpdicheck.o
LOAD app/hdudispfpdidata.o
LOAD app/hdudispfpoller.o
LOAD app/hdudispfrevno.o
LOAD app/hdudispftbase.o
LOAD app/hdudispfwdog.o
LOAD fonts/hdudispfConsolas18hAA4.o
LOAD fonts/hdudispfConsolas22haa5.o
LOAD fonts/hdudispfConsolas30haa5.o
LOAD fonts/hdudispfConsolas42hAA4.o
LOAD fonts/hdudispfmono18haa4.o
LOAD fonts/hdudispfmono22haa4.o
LOAD fonts/hdudispfmono30haa4.o
LOAD fonts/hdudispfmono42haa4.o
LOAD src/hdudispfcbit.o
LOAD src/hdudispfmain.o
LOAD src/hdudispfpbit.o
LOAD startup/hdudispfoscpua.o
LOAD startup/hdudispfpbita.o
LOAD startup/hdudispfstartupstm32f746xx.o
LOAD D:\Work\Howell\MD\S17HOWDSPSW\ACCORD\Trunk\SourceCode\DisplayBoard\UCOS\Release\libUCOS.a
LOAD D:\Work\Howell\MD\S17HOWDSPSW\ACCORD\Trunk\SourceCode\DisplayBoard\COMMON\Release\libCOMMON.a
LOAD D:\Work\Howell\MD\S17HOWDSPSW\ACCORD\Trunk\SourceCode\DisplayBoard\HAL_Driver\Release\libHAL_Driver.a
LOAD D:\Work\Howell\MD\S17HOWDSPSW\ACCORD\Trunk\SourceCode\DisplayBoard\WIDGETS\Release\libWIDGETS.a
LOAD c:/ac6/systemworkbench/plugins/fr.ac6.mcu.externaltools.arm-none.win32_1.13.2.201705091103/tools/compiler/bin/../lib/gcc/arm-none-eabi/5.4.1/../../../../arm-none-eabi/lib/armv7e-m/fpu/fpv5-sp-d16\libm.a
START GROUP
LOAD c:/ac6/systemworkbench/plugins/fr.ac6.mcu.externaltools.arm-none.win32_1.13.2.201705091103/tools/compiler/bin/../lib/gcc/arm-none-eabi/5.4.1/armv7e-m/fpu/fpv5-sp-d16\libgcc.a
LOAD c:/ac6/systemworkbench/plugins/fr.ac6.mcu.externaltools.arm-none.win32_1.13.2.201705091103/tools/compiler/bin/../lib/gcc/arm-none-eabi/5.4.1/../../../../arm-none-eabi/lib/armv7e-m/fpu/fpv5-sp-d16\libc.a
END GROUP
LOAD c:/ac6/systemworkbench/plugins/fr.ac6.mcu.externaltools.arm-none.win32_1.13.2.201705091103/tools/compiler/bin/../lib/gcc/arm-none-eabi/5.4.1/armv7e-m/fpu/fpv5-sp-d16/crtend.o
LOAD c:/ac6/systemworkbench/plugins/fr.ac6.mcu.externaltools.arm-none.win32_1.13.2.201705091103/tools/compiler/bin/../lib/gcc/arm-none-eabi/5.4.1/armv7e-m/fpu/fpv5-sp-d16/crtn.o
                0x2007d000                _estack = 0x2007d000
                0x00000000                _Min_Heap_Size = 0x0
                0x00000800                _Min_Stack_Size = 0x800

.isr_vector     0x080c0000      0x1c8
                0x080c0000                . = ALIGN (0x4)
 *(.isr_vector)
 .isr_vector    0x080c0000      0x1c8 startup/hdudispfstartupstm32f746xx.o
                0x080c0000                GPfnVectors
                0x080c01c8                . = ALIGN (0x4)

.text           0x080c01d0    0x38fa8
                0x080c01d0                . = ALIGN (0x4)
 *(.text)
 .text          0x080c01d0       0x5c c:/ac6/systemworkbench/plugins/fr.ac6.mcu.externaltools.arm-none.win32_1.13.2.201705091103/tools/compiler/bin/../lib/gcc/arm-none-eabi/5.4.1/armv7e-m/fpu/fpv5-sp-d16/crtbegin.o
 *fill*         0x080c022c        0x4 
 .text          0x080c0230       0xa8 startup/hdudispfoscpua.o
                0x080c0230                OsCtxSw
                0x080c0240                OsIntCtxSw
                0x080c0250                SaveStatusReg
                0x080c0260                RestoreStatusReg
                0x080c0270                OsStartHighRdy
                0x080c0290                PendSVHandlerFlight
 *fill*         0x080c02d8        0x8 
 .text          0x080c02e0       0xc8 startup/hdudispfpbita.o
                0x080c02e0                AluTest
 *(.text*)
 .text.BspSwitchesInit
                0x080c03a8       0x88 BSP/hdudispfpbs.o
 .text.EncoderDriverL
                0x080c0430      0x13c BSP/hdudispfpbs.o
 .text.EncoderDriverR
                0x080c056c      0x138 BSP/hdudispfpbs.o
 .text.HwPbsGet
                0x080c06a4       0xbc BSP/hdudispfpbs.o
 .text.PbsDriver
                0x080c0760      0x19c BSP/hdudispfpbs.o
                0x080c0760                PbsDriver
 .text.PbsGet   0x080c08fc      0x2c0 BSP/hdudispfpbs.o
                0x080c08fc                PbsGet
 .text.PbsClear
                0x080c0bbc       0x80 BSP/hdudispfpbs.o
                0x080c0bbc                PbsClear
 .text.PbsInit  0x080c0c3c       0x90 BSP/hdudispfpbs.o
                0x080c0c3c                PbsInit
 .text.PwmInit  0x080c0ccc      0x270 BSP/hdudispfpwm.o
                0x080c0ccc                PwmInit
 .text.ErrorHandler
                0x080c0f3c        0x8 BSP/hdudispfpwm.o
 .text.PwmLcdBackLightPcnt
                0x080c0f44      0x10c BSP/hdudispfpwm.o
                0x080c0f44                PwmLcdBackLightPcnt
 .text.PwmLcdBezelLightPcnt
                0x080c1050       0xe8 BSP/hdudispfpwm.o
                0x080c1050                PwmLcdBezelLightPcnt
 .text.PwmBackLightDriver
                0x080c1138       0xac BSP/hdudispfpwm.o
                0x080c1138                PwmBackLightDriver
 .text.PwmBackLightStepTo
                0x080c11e4       0x88 BSP/hdudispfpwm.o
                0x080c11e4                PwmBackLightStepTo
 .text.PwmBackLightNewMode
                0x080c126c       0xac BSP/hdudispfpwm.o
                0x080c126c                PwmBackLightNewMode
 .text.PwmBlink
                0x080c1318       0x2c BSP/hdudispfpwm.o
                0x080c1318                PwmBlink
 .text.ErrorHandler
                0x080c1344        0x8 BSP/hdudispfstmadc.o
 .text.StmadcInit
                0x080c134c      0x130 BSP/hdudispfstmadc.o
                0x080c134c                StmadcInit
 .text.StmadcDriver
                0x080c147c       0x8c BSP/hdudispfstmadc.o
                0x080c147c                StmadcDriver
 .text.A825CommTask1
                0x080c1508       0xec Shared/hdudispfa825comm1.o
 .text.A825CommInit1
                0x080c15f4       0x1c Shared/hdudispfa825comm1.o
                0x080c15f4                A825CommInit1
 .text.A825CommTask2
                0x080c1610       0xd4 Shared/hdudispfa825comm2.o
 .text.A825CommInit2
                0x080c16e4       0x1c Shared/hdudispfa825comm2.o
                0x080c16e4                A825CommInit2
 .text.CANITConfig
                0x080c1700       0x3c Shared/hdudispfarinc825perph1.o
 .text.U8MailBoxAvail
                0x080c173c       0x48 Shared/hdudispfarinc825perph1.o
 .text.RxQueueRemove
                0x080c1784      0x214 Shared/hdudispfarinc825perph1.o
 .text.A8251GetMessage
                0x080c1998       0x50 Shared/hdudispfarinc825perph1.o
                0x080c1998                A8251GetMessage
 .text.RxQueueInsert
                0x080c19e8       0x6c Shared/hdudispfarinc825perph1.o
 .text.CAN1Rx0IrqHandler
                0x080c1a54       0x98 Shared/hdudispfarinc825perph1.o
                0x080c1a54                CAN1Rx0IrqHandler
 .text.TxQueueInsert
                0x080c1aec       0x8c Shared/hdudispfarinc825perph1.o
 .text.BuildBroadcastExtId
                0x080c1b78       0x78 Shared/hdudispfarinc825perph1.o
 .text.BuildPeerToPeerExtId
                0x080c1bf0       0x88 Shared/hdudispfarinc825perph1.o
 .text.A8251Xmit
                0x080c1c78       0xdc Shared/hdudispfarinc825perph1.o
                0x080c1c78                A8251Xmit
 .text.XmitFromBuff
                0x080c1d54       0x78 Shared/hdudispfarinc825perph1.o
 .text.CAN1TxIrqHandler
                0x080c1dcc       0x50 Shared/hdudispfarinc825perph1.o
                0x080c1dcc                CAN1TxIrqHandler
 .text.HalCanMspInit
                0x080c1e1c      0x16c Shared/hdudispfarinc825perph1.o
                0x080c1e1c                HalCanMspInit
 .text.CAN1Config
                0x080c1f88       0xd4 Shared/hdudispfarinc825perph1.o
 .text.CAN1DemoConfig
                0x080c205c       0xe4 Shared/hdudispfarinc825perph1.o
                0x080c205c                CAN1DemoConfig
 .text.A8251Init
                0x080c2140       0x1c Shared/hdudispfarinc825perph1.o
                0x080c2140                A8251Init
 .text.CanItConfig
                0x080c215c       0x3c Shared/hdudispfarinc825perph2.o
 .text.U8MailBoxAvail
                0x080c2198       0x48 Shared/hdudispfarinc825perph2.o
 .text.RxQueueRemove
                0x080c21e0      0x214 Shared/hdudispfarinc825perph2.o
 .text.A8252GetMessage
                0x080c23f4       0x50 Shared/hdudispfarinc825perph2.o
                0x080c23f4                A8252GetMessage
 .text.RxQueueInsert
                0x080c2444       0x6c Shared/hdudispfarinc825perph2.o
 .text.Can2Rx0IrqHandler
                0x080c24b0       0x98 Shared/hdudispfarinc825perph2.o
                0x080c24b0                Can2Rx0IrqHandler
 .text.TxQueueInsert
                0x080c2548       0x8c Shared/hdudispfarinc825perph2.o
 .text.BuildBroadcastExtId
                0x080c25d4       0x78 Shared/hdudispfarinc825perph2.o
 .text.BuildPeerToPeerExtId
                0x080c264c       0x88 Shared/hdudispfarinc825perph2.o
 .text.A8252Xmit
                0x080c26d4       0xdc Shared/hdudispfarinc825perph2.o
                0x080c26d4                A8252Xmit
 .text.XmitFromBuff
                0x080c27b0       0x78 Shared/hdudispfarinc825perph2.o
 .text.Can2TxIrqHandler
                0x080c2828       0x50 Shared/hdudispfarinc825perph2.o
                0x080c2828                Can2TxIrqHandler
 .text.Can2Config
                0x080c2878       0xd4 Shared/hdudispfarinc825perph2.o
 .text.A8252Init
                0x080c294c       0x1c Shared/hdudispfarinc825perph2.o
                0x080c294c                A8252Init
 .text.BSPLEDInit
                0x080c2968       0x64 Shared/hdudispfbspled.o
                0x080c2968                BSPLEDInit
 .text.BSPLEDToggle
                0x080c29cc       0x24 Shared/hdudispfbspled.o
                0x080c29cc                BSPLEDToggle
 .text.AppDraw  0x080c29f0       0x10 Shared/hdudispfforeground.o
                0x080c29f0                AppDraw
 .text.AppDraw2
                0x080c2a00       0x10 Shared/hdudispfforeground.o
                0x080c2a00                AppDraw2
 .text.AppDraw4
                0x080c2a10       0x10 Shared/hdudispfforeground.o
                0x080c2a10                AppDraw4
 .text.AppDraw5
                0x080c2a20       0x10 Shared/hdudispfforeground.o
                0x080c2a20                AppDraw5
 .text.ForegroundClear
                0x080c2a30      0x1fc Shared/hdudispfforeground.o
                0x080c2a30                ForegroundClear
 .text.VHadFlash
                0x080c2c2c       0x18 Shared/hdudispfforeground.o
                0x080c2c2c                VHadFlash
 .text.EGetFlashState
                0x080c2c44       0x18 Shared/hdudispfforeground.o
                0x080c2c44                EGetFlashState
 .text.ForegroundReDraw1
                0x080c2c5c      0x1d0 Shared/hdudispfforeground.o
                0x080c2c5c                ForegroundReDraw1
 .text.ForegroundReDraw2
                0x080c2e2c       0x58 Shared/hdudispfforeground.o
                0x080c2e2c                ForegroundReDraw2
 .text.CasRedxInit
                0x080c2e84      0x118 Shared/hdudispfforeground.o
                0x080c2e84                CasRedxInit
 .text.DisRedxInit
                0x080c2f9c       0xa0 Shared/hdudispfforeground.o
                0x080c2f9c                DisRedxInit
 .text.ForegroundReDraw3
                0x080c303c      0x428 Shared/hdudispfforeground.o
                0x080c303c                ForegroundReDraw3
 .text.ForegroundLoadBackground
                0x080c3464       0x20 Shared/hdudispfforeground.o
                0x080c3464                ForegroundLoadBackground
 .text.ForegroundInit
                0x080c3484       0x1c Shared/hdudispfforeground.o
                0x080c3484                ForegroundInit
 .text.ErrorHandler
                0x080c34a0        0x8 Shared/hdudispfpanel.o
 .text.DisplaySize
                0x080c34a8       0xf0 Shared/hdudispfpanel.o
                0x080c34a8                DisplaySize
 .text.LCDConfig
                0x080c3598      0x384 Shared/hdudispfpanel.o
                0x080c3598                LCDConfig
 .text.LCDBackgroundOff
                0x080c391c       0xd4 Shared/hdudispfpanel.o
                0x080c391c                LCDBackgroundOff
 .text.LCDBackgroundOn
                0x080c39f0       0xf0 Shared/hdudispfpanel.o
                0x080c39f0                LCDBackgroundOn
 .text.NVICSystemReset
                0x080c3ae0       0x28 app/hdudispfapp.o
 .text.AppTask  0x080c3b08      0x284 app/hdudispfapp.o
 .text.CheckMsgCtrlArea
                0x080c3d8c      0x1ac app/hdudispfapp.o
 .text.AppU32NOC
                0x080c3f38       0x2c app/hdudispfapp.o
                0x080c3f38                AppU32NOC
 .text.AppU32NSC
                0x080c3f64       0x2c app/hdudispfapp.o
                0x080c3f64                AppU32NSC
 .text.AppInit  0x080c3f90       0x5c app/hdudispfapp.o
                0x080c3f90                AppInit
 .text.A429DemoInit
                0x080c3fec      0x918 app/hdudispfdemo.o
                0x080c3fec                A429DemoInit
 .text.DoDemo   0x080c4904      0xa08 app/hdudispfdemo.o
 .text.DemoTask
                0x080c530c       0x80 app/hdudispfdemo.o
 .text.DemoSignalTask
                0x080c538c       0x34 app/hdudispfdemo.o
                0x080c538c                DemoSignalTask
 .text.DemoInit
                0x080c53c0       0x5c app/hdudispfdemo.o
                0x080c53c0                DemoInit
 .text.ScaleRead
                0x080c541c       0xe8 app/hdudispfgrapp.o
                0x080c541c                ScaleRead
 .text.CompareLimit
                0x080c5504      0x128 app/hdudispfgrapp.o
                0x080c5504                CompareLimit
 .text.ExmonCheck
                0x080c562c      0x1f4 app/hdudispfgrapp.o
                0x080c562c                ExmonCheck
 .text.CoolxBoxText
                0x080c5820      0x100 app/hdudispfgrapp.o
                0x080c5820                CoolxBoxText
 .text.RoundDialsInit
                0x080c5920       0x38 app/hdudispfgrapp.o
                0x080c5920                RoundDialsInit
 .text.CarrotGraphInit
                0x080c5958       0x38 app/hdudispfgrapp.o
                0x080c5958                CarrotGraphInit
 .text.BarGraphInit
                0x080c5990       0x34 app/hdudispfgrapp.o
                0x080c5990                BarGraphInit
 .text.NumberBoxInit
                0x080c59c4       0x34 app/hdudispfgrapp.o
                0x080c59c4                NumberBoxInit
 .text.TextInit
                0x080c59f8       0x68 app/hdudispfgrapp.o
                0x080c59f8                TextInit
 .text.TextBoxPdiInit
                0x080c5a60       0x34 app/hdudispfgrapp.o
                0x080c5a60                TextBoxPdiInit
 .text.GrappSwithcScreens
                0x080c5a94       0xe4 app/hdudispfgrapp.o
                0x080c5a94                GrappSwithcScreens
 .text.GrappInit
                0x080c5b78       0x60 app/hdudispfgrapp.o
                0x080c5b78                GrappInit
 .text.GrappApp
                0x080c5bd8      0x370 app/hdudispfgrapp.o
                0x080c5bd8                GrappApp
 .text.GrappSetPage
                0x080c5f48       0x40 app/hdudispfgrapp.o
                0x080c5f48                GrappSetPage
 .text.AppExDraw
                0x080c5f88      0x1c4 app/hdudispfgrapp.o
                0x080c5f88                AppExDraw
 .text.FlightTimer
                0x080c614c      0x114 app/hdudispfgrapp.o
                0x080c614c                FlightTimer
 .text.CoolDownTimer
                0x080c6260      0x188 app/hdudispfgrapp.o
                0x080c6260                CoolDownTimer
 .text.AppDraw1
                0x080c63e8      0x18c app/hdudispfgrapp.o
                0x080c63e8                AppDraw1
 .text.InitTask
                0x080c6574      0x16c app/hdudispfinit.o
 .text.InitSignalTask
                0x080c66e0       0x38 app/hdudispfinit.o
                0x080c66e0                InitSignalTask
 .text.InitInit
                0x080c6718       0x5c app/hdudispfinit.o
                0x080c6718                InitInit
 .text.SetFuelFlowData
                0x080c6774       0x30 app/hdudispfmdff.o
                0x080c6774                SetFuelFlowData
 .text.SetCMUFuelFlowEnable
                0x080c67a4       0x20 app/hdudispfmdff.o
                0x080c67a4                SetCMUFuelFlowEnable
 .text.AppFuelFlowDraw
                0x080c67c4      0x110 app/hdudispfmdff.o
                0x080c67c4                AppFuelFlowDraw
 .text.CoolTimerInit
                0x080c68d4       0x1c app/hdudispfmenu.o
                0x080c68d4                CoolTimerInit
 .text.CoolTimerReset
                0x080c68f0       0x1c app/hdudispfmenu.o
                0x080c68f0                CoolTimerReset
 .text.CoolTimerStart
                0x080c690c       0x1c app/hdudispfmenu.o
                0x080c690c                CoolTimerStart
 .text.ManualTimerInit
                0x080c6928       0x28 app/hdudispfmenu.o
                0x080c6928                ManualTimerInit
 .text.ManualTimerMaint
                0x080c6950       0x2c app/hdudispfmenu.o
 .text.ManualTimerReset
                0x080c697c       0x1c app/hdudispfmenu.o
 .text.OffsideManualTimerReset
                0x080c6998       0x1c app/hdudispfmenu.o
                0x080c6998                OffsideManualTimerReset
 .text.ManualTimerStart
                0x080c69b4       0x28 app/hdudispfmenu.o
 .text.OffsideManualTimerStart
                0x080c69dc       0x28 app/hdudispfmenu.o
                0x080c69dc                OffsideManualTimerStart
 .text.ManualTimerStop
                0x080c6a04       0x18 app/hdudispfmenu.o
 .text.OffsideManualTimerStop
                0x080c6a1c       0x28 app/hdudispfmenu.o
                0x080c6a1c                OffsideManualTimerStop
 .text.MenuOff  0x080c6a44       0x2c app/hdudispfmenu.o
 .text.MenuOn   0x080c6a70       0x2c app/hdudispfmenu.o
 .text.MenuPush
                0x080c6a9c       0x78 app/hdudispfmenu.o
 .text.MenuReset
                0x080c6b14       0x60 app/hdudispfmenu.o
                0x080c6b14                MenuReset
 .text.MenuPop  0x080c6b74       0x7c app/hdudispfmenu.o
 .text.MenuCheckTimeOut
                0x080c6bf0       0x44 app/hdudispfmenu.o
 .text.MenuSwitchPage
                0x080c6c34       0x78 app/hdudispfmenu.o
 .text.ScanOne  0x080c6cac       0x50 app/hdudispfmenu.o
 .text.MenuSelectText
                0x080c6cfc       0xfc app/hdudispfmenu.o
 .text.MenuSelectText10Inch
                0x080c6df8       0xe0 app/hdudispfmenu.o
 .text.EncoderCoolDownItemSelectText
                0x080c6ed8       0x7c app/hdudispfmenu.o
                0x080c6ed8                EncoderCoolDownItemSelectText
 .text.FloatToString
                0x080c6f54      0x154 app/hdudispfmenu.o
                0x080c6f54                FloatToString
 .text.FuelFlowOnOffButtonText
                0x080c70a8       0x74 app/hdudispfmenu.o
                0x080c70a8                FuelFlowOnOffButtonText
 .text.SysInfoBoxText
                0x080c711c      0x154 app/hdudispfmenu.o
                0x080c711c                SysInfoBoxText
 .text.EncoderMenuItemSelectText
                0x080c7270      0x170 app/hdudispfmenu.o
                0x080c7270                EncoderMenuItemSelectText
 .text.MenuItemSelectText10Inch
                0x080c73e0       0x88 app/hdudispfmenu.o
                0x080c73e0                MenuItemSelectText10Inch
 .text.CalibrationSelectText10Inch
                0x080c7468       0x8c app/hdudispfmenu.o
                0x080c7468                CalibrationSelectText10Inch
 .text.EngCalibrationSelectTxt10Inch
                0x080c74f4       0x64 app/hdudispfmenu.o
                0x080c74f4                EngCalibrationSelectTxt10Inch
 .text.ParamCalibriSlctTxt10Inch
                0x080c7558       0x50 app/hdudispfmenu.o
                0x080c7558                ParamCalibriSlctTxt10Inch
 .text.OffsetInttoIntArray
                0x080c75a8       0xcc app/hdudispfmenu.o
                0x080c75a8                OffsetInttoIntArray
 .text.GainInttoIntArray
                0x080c7674       0xcc app/hdudispfmenu.o
                0x080c7674                GainInttoIntArray
 .text.OffsetValueText
                0x080c7740      0x214 app/hdudispfmenu.o
                0x080c7740                OffsetValueText
 .text.GainValueText
                0x080c7954      0x22c app/hdudispfmenu.o
                0x080c7954                GainValueText
 .text.EncoderPageItemSelectText
                0x080c7b80      0x174 app/hdudispfmenu.o
                0x080c7b80                EncoderPageItemSelectText
 .text.ButtonPageItemSelectText
                0x080c7cf4      0x16c app/hdudispfmenu.o
                0x080c7cf4                ButtonPageItemSelectText
 .text.MessageBoxText
                0x080c7e60      0x10c app/hdudispfmenu.o
                0x080c7e60                MessageBoxText
 .text.ExitButtonText
                0x080c7f6c       0x5c app/hdudispfmenu.o
                0x080c7f6c                ExitButtonText
 .text.BackButtonText
                0x080c7fc8       0x44 app/hdudispfmenu.o
                0x080c7fc8                BackButtonText
 .text.ScrollButtonText
                0x080c800c       0x14 app/hdudispfmenu.o
                0x080c800c                ScrollButtonText
 .text.CoolDownOnOffButtonText
                0x080c8020       0x64 app/hdudispfmenu.o
                0x080c8020                CoolDownOnOffButtonText
 .text.ManTimerOnOffText
                0x080c8084       0x60 app/hdudispfmenu.o
                0x080c8084                ManTimerOnOffText
 .text.ManualTimerResetButtonText
                0x080c80e4       0x2c app/hdudispfmenu.o
                0x080c80e4                ManualTimerResetButtonText
 .text.DummyButtonText
                0x080c8110       0x14 app/hdudispfmenu.o
                0x080c8110                DummyButtonText
 .text.SetButtonText
                0x080c8124       0x14 app/hdudispfmenu.o
                0x080c8124                SetButtonText
 .text.TopButton1Text
                0x080c8138       0x7c app/hdudispfmenu.o
                0x080c8138                TopButton1Text
 .text.TopButton2Text10Inch
                0x080c81b4       0x14 app/hdudispfmenu.o
                0x080c81b4                TopButton2Text10Inch
 .text.TopButton3Text10Inch
                0x080c81c8       0x14 app/hdudispfmenu.o
                0x080c81c8                TopButton3Text10Inch
 .text.TopButton4Text
                0x080c81dc       0x2c app/hdudispfmenu.o
                0x080c81dc                TopButton4Text
 .text.TopButton4Text10Inch
                0x080c8208       0x2c app/hdudispfmenu.o
                0x080c8208                TopButton4Text10Inch
 .text.TopButton5Text
                0x080c8234       0x58 app/hdudispfmenu.o
                0x080c8234                TopButton5Text
 .text.TopButton6Text
                0x080c828c       0x9c app/hdudispfmenu.o
                0x080c828c                TopButton6Text
 .text.TopButton7Text
                0x080c8328       0x28 app/hdudispfmenu.o
                0x080c8328                TopButton7Text
 .text.PageButtonText
                0x080c8350       0x88 app/hdudispfmenu.o
                0x080c8350                PageButtonText
 .text.TopButton6Text10Inch
                0x080c83d8       0x14 app/hdudispfmenu.o
                0x080c83d8                TopButton6Text10Inch
 .text.TopButton7Text10Inch
                0x080c83ec       0x14 app/hdudispfmenu.o
                0x080c83ec                TopButton7Text10Inch
 .text.TopButton13Text
                0x080c8400      0x244 app/hdudispfmenu.o
                0x080c8400                TopButton13Text
 .text.TopButton8Text10Inch
                0x080c8644      0x26c app/hdudispfmenu.o
                0x080c8644                TopButton8Text10Inch
 .text.NextBoxText
                0x080c88b0       0x14 app/hdudispfmenu.o
                0x080c88b0                NextBoxText
 .text.MenuInit
                0x080c88c4       0x48 app/hdudispfmenu.o
                0x080c88c4                MenuInit
 .text.PageMenu
                0x080c890c      0x13c app/hdudispfmenu.o
                0x080c890c                PageMenu
 .text.MenuInitialize7inch
                0x080c8a48      0x7b0 app/hdudispfmenu2.o
                0x080c8a48                MenuInitialize7inch
 .text.MenuInitialize10inch
                0x080c91f8      0xb6c app/hdudispfmenu2.o
                0x080c91f8                MenuInitialize10inch
 .text.MenuInitialize
                0x080c9d64      0x134 app/hdudispfmenu2.o
                0x080c9d64                MenuInitialize
 .text.CheckFont
                0x080c9e98       0x70 app/hdudispfpdicheck.o
 .text.CheckDecimalFormat
                0x080c9f08       0x74 app/hdudispfpdicheck.o
                0x080c9f08                CheckDecimalFormat
 .text.CalStringParam
                0x080c9f7c      0x110 app/hdudispfpdicheck.o
                0x080c9f7c                CalStringParam
 .text.CheckMinMax
                0x080ca08c       0x30 app/hdudispfpdicheck.o
 .text.CheckFloatMinMax
                0x080ca0bc       0x48 app/hdudispfpdicheck.o
 .text.CheckAxisMinMax
                0x080ca104       0x54 app/hdudispfpdicheck.o
 .text.CheckAxisMinMax2
                0x080ca158       0x54 app/hdudispfpdicheck.o
 .text.FindTotalDigits
                0x080ca1ac       0x9c app/hdudispfpdicheck.o
                0x080ca1ac                FindTotalDigits
 .text.CheckDuResolution
                0x080ca248       0x94 app/hdudispfpdicheck.o
 .text.CheckString
                0x080ca2dc       0x50 app/hdudispfpdicheck.o
 .text.BuildErrorMsg
                0x080ca32c       0xc8 app/hdudispfpdicheck.o
 .text.OctToStringTrim
                0x080ca3f4       0x94 app/hdudispfpdicheck.o
                0x080ca3f4                OctToStringTrim
 .text.IntToStringTrim
                0x080ca488       0x78 app/hdudispfpdicheck.o
                0x080ca488                IntToStringTrim
 .text.OnlyOneBitSetToOne
                0x080ca500       0x2c app/hdudispfpdicheck.o
 .text.FindColorRange
                0x080ca52c      0x15c app/hdudispfpdicheck.o
                0x080ca52c                FindColorRange
 .text.CheckColor
                0x080ca688      0x100 app/hdudispfpdicheck.o
 .text.CheckVerPos
                0x080ca788      0x188 app/hdudispfpdicheck.o
 .text.CheckCasType
                0x080ca910       0x4c app/hdudispfpdicheck.o
 .text.CheckConfig
                0x080ca95c      0x218 app/hdudispfpdicheck.o
 .text.CheckCASParameters
                0x080cab74      0x2dc app/hdudispfpdicheck.o
 .text.CheckA429Parameters
                0x080cae50      0x58c app/hdudispfpdicheck.o
 .text.CheckElogTrig
                0x080cb3dc      0x384 app/hdudispfpdicheck.o
 .text.CheckElogParam
                0x080cb760      0x244 app/hdudispfpdicheck.o
 .text.CheckAcdtParams
                0x080cb9a4      0x2c0 app/hdudispfpdicheck.o
 .text.CheckPageSettings
                0x080cbc64      0x56c app/hdudispfpdicheck.o
 .text.CheckBarGraph
                0x080cc1d0     0x18a0 app/hdudispfpdicheck.o
 .text.CheckRoundDial
                0x080cda70     0x1a50 app/hdudispfpdicheck.o
 .text.CheckNumberBox
                0x080cf4c0     0x1240 app/hdudispfpdicheck.o
 .text.CheckCarrotGraph
                0x080d0700     0x195c app/hdudispfpdicheck.o
 .text.CheckTextBox
                0x080d205c     0x1130 app/hdudispfpdicheck.o
 .text.CheckText
                0x080d318c     0x112c app/hdudispfpdicheck.o
 .text.CheckPoly
                0x080d42b8      0x32c app/hdudispfpdicheck.o
 .text.CheckForegroundParameters
                0x080d45e4       0x20 app/hdudispfpdicheck.o
 .text.CheckCasLocationSett
                0x080d4604      0x744 app/hdudispfpdicheck.o
 .text.CheckExceedParam
                0x080d4d48      0x468 app/hdudispfpdicheck.o
 .text.CheckExceedTimerSettings
                0x080d51b0      0x45c app/hdudispfpdicheck.o
 .text.PdiDataCheck
                0x080d560c      0x258 app/hdudispfpdicheck.o
                0x080d560c                PdiDataCheck
 .text.FindColor
                0x080d5864      0x118 app/hdudispfpdidata.o
                0x080d5864                FindColor
 .text.TextAlign
                0x080d597c       0x60 app/hdudispfpdidata.o
                0x080d597c                TextAlign
 .text.TextFlash
                0x080d59dc       0x3c app/hdudispfpdidata.o
                0x080d59dc                TextFlash
 .text.TextState
                0x080d5a18       0x3c app/hdudispfpdidata.o
                0x080d5a18                TextState
 .text.FindFormat
                0x080d5a54      0x168 app/hdudispfpdidata.o
                0x080d5a54                FindFormat
 .text.CalculatePower
                0x080d5bbc       0x94 app/hdudispfpdidata.o
                0x080d5bbc                CalculatePower
 .text.IeeeToFloat
                0x080d5c50       0xa0 app/hdudispfpdidata.o
                0x080d5c50                IeeeToFloat
 .text.FindCasType
                0x080d5cf0       0x48 app/hdudispfpdidata.o
                0x080d5cf0                FindCasType
 .text.FindParamType
                0x080d5d38       0x58 app/hdudispfpdidata.o
                0x080d5d38                FindParamType
 .text.NumberOfPages
                0x080d5d90       0xdc app/hdudispfpdidata.o
                0x080d5d90                NumberOfPages
 .text.ConfigExtract
                0x080d5e6c      0x198 app/hdudispfpdidata.o
                0x080d5e6c                ConfigExtract
 .text.GlobalExtract
                0x080d6004      0x550 app/hdudispfpdidata.o
                0x080d6004                GlobalExtract
 .text.PageExtract
                0x080d6554      0x234 app/hdudispfpdidata.o
                0x080d6554                PageExtract
 .text.ForegroundExtract
                0x080d6788     0x92d0 app/hdudispfpdidata.o
                0x080d6788                ForegroundExtract
 .text.CasExtract
                0x080dfa58      0x3a0 app/hdudispfpdidata.o
                0x080dfa58                CasExtract
 .text.CasLocationSett
                0x080dfdf8      0x444 app/hdudispfpdidata.o
                0x080dfdf8                CasLocationSett
 .text.AcdtExtract
                0x080e023c      0x22c app/hdudispfpdidata.o
                0x080e023c                AcdtExtract
 .text.ExceedExtract
                0x080e0468      0x244 app/hdudispfpdidata.o
                0x080e0468                ExceedExtract
 .text.A429Extract
                0x080e06ac      0x3b4 app/hdudispfpdidata.o
                0x080e06ac                A429Extract
 .text.ElogTrigExtract
                0x080e0a60      0x294 app/hdudispfpdidata.o
                0x080e0a60                ElogTrigExtract
 .text.ElogParamExtract
                0x080e0cf4      0x210 app/hdudispfpdidata.o
                0x080e0cf4                ElogParamExtract
 .text.PdiPageDataInit
                0x080e0f04       0x74 app/hdudispfpdidata.o
                0x080e0f04                PdiPageDataInit
 .text.PdiDataInit
                0x080e0f78       0x2c app/hdudispfpdidata.o
                0x080e0f78                PdiDataInit
 .text.PollerTask
                0x080e0fa4       0x48 app/hdudispfpoller.o
 .text.PollerSignalTask
                0x080e0fec       0x34 app/hdudispfpoller.o
                0x080e0fec                PollerSignalTask
 .text.PollerInit
                0x080e1020       0x5c app/hdudispfpoller.o
                0x080e1020                PollerInit
 .text.HalSystickCallback
                0x080e107c       0x8c app/hdudispftbase.o
                0x080e107c                HalSystickCallback
 .text.WdogInit
                0x080e1108       0x40 app/hdudispfwdog.o
                0x080e1108                WdogInit
 .text.WdogKickWatchDog
                0x080e1148       0x14 app/hdudispfwdog.o
                0x080e1148                WdogKickWatchDog
 .text.StackTest
                0x080e115c       0x88 src/hdudispfcbit.o
 .text.CbitTask
                0x080e11e4       0x94 src/hdudispfcbit.o
 .text.CbitSignalTask
                0x080e1278       0x38 src/hdudispfcbit.o
                0x080e1278                CbitSignalTask
 .text.CbitInit
                0x080e12b0       0x88 src/hdudispfcbit.o
                0x080e12b0                CbitInit
 .text.ScbEnableICache
                0x080e1338       0x38 src/hdudispfmain.o
 .text.ScbEnableDCache
                0x080e1370       0x8c src/hdudispfmain.o
 .text.SystemClockConfig
                0x080e13fc       0xb8 src/hdudispfmain.o
 .text.CpuCacheEnable
                0x080e14b4       0x10 src/hdudispfmain.o
 .text.MpuCacheEnable
                0x080e14c4       0x5c src/hdudispfmain.o
 .text.DisplayMain
                0x080e1520       0xa4 src/hdudispfmain.o
                0x080e1520                DisplayMain
 .text.SysTickHandler
                0x080e15c4       0x10 src/hdudispfmain.o
                0x080e15c4                SysTickHandler
 .text.RamTest  0x080e15d4       0x98 src/hdudispfpbit.o
                0x080e15d4                RamTest
 .text.ProcessorTest
                0x080e166c       0x3c src/hdudispfpbit.o
                0x080e166c                ProcessorTest
 .text.SDRamTest
                0x080e16a8       0x98 src/hdudispfpbit.o
                0x080e16a8                SDRamTest
 .text.PdiIntegrityCheck
                0x080e1740       0x80 src/hdudispfpbit.o
                0x080e1740                PdiIntegrityCheck
 .text.PbitCheck
                0x080e17c0       0x18 src/hdudispfpbit.o
                0x080e17c0                PbitCheck
 .text.CrcPages
                0x080e17d8       0x8c src/hdudispfpbit.o
                0x080e17d8                CrcPages
 .text.ResetHandler
                0x080e1864       0x5c startup/hdudispfstartupstm32f746xx.o
                0x080e1864                ResetHandler
 .text.DefaultHandler
                0x080e18c0        0x2 startup/hdudispfstartupstm32f746xx.o
                0x080e18c0                RTC_Alarm_IRQHandler
                0x080e18c0                EXTI2_IRQHandler
                0x080e18c0                TIM8_CC_IRQHandler
                0x080e18c0                UART8_IRQHandler
                0x080e18c0                SPI4_IRQHandler
                0x080e18c0                TIM1_CC_IRQHandler
                0x080e18c0                DMA2_Stream5_IRQHandler
                0x080e18c0                DMA1_Stream5_IRQHandler
                0x080e18c0                PVD_IRQHandler
                0x080e18c0                TAMP_STAMP_IRQHandler
                0x080e18c0                CAN2_RX1_IRQHandler
                0x080e18c0                EXTI3_IRQHandler
                0x080e18c0                TIM8_TRG_COM_TIM14_IRQHandler
                0x080e18c0                TIM1_UP_TIM10_IRQHandler
                0x080e18c0                TIM8_UP_TIM13_IRQHandler
                0x080e18c0                I2C3_ER_IRQHandler
                0x080e18c0                EXTI0_IRQHandler
                0x080e18c0                I2C2_EV_IRQHandler
                0x080e18c0                DMA1_Stream2_IRQHandler
                0x080e18c0                FPU_IRQHandler
                0x080e18c0                OTG_HS_WKUP_IRQHandler
                0x080e18c0                LTDC_ER_IRQHandler
                0x080e18c0                CAN2_SCE_IRQHandler
                0x080e18c0                DMA2_Stream2_IRQHandler
                0x080e18c0                SPI1_IRQHandler
                0x080e18c0                TIM6_DAC_IRQHandler
                0x080e18c0                TIM1_BRK_TIM9_IRQHandler
                0x080e18c0                DCMI_IRQHandler
                0x080e18c0                DMA2_Stream3_IRQHandler
                0x080e18c0                SAI2_IRQHandler
                0x080e18c0                DefaultHandler
                0x080e18c0                USART6_IRQHandler
                0x080e18c0                USART3_IRQHandler
                0x080e18c0                CAN1_RX1_IRQHandler
                0x080e18c0                UART5_IRQHandler
                0x080e18c0                TIM4_IRQHandler
                0x080e18c0                QUADSPI_IRQHandler
                0x080e18c0                I2C1_EV_IRQHandler
                0x080e18c0                DMA1_Stream6_IRQHandler
                0x080e18c0                DMA1_Stream1_IRQHandler
                0x080e18c0                UART4_IRQHandler
                0x080e18c0                TIM3_IRQHandler
                0x080e18c0                RCC_IRQHandler
                0x080e18c0                TIM8_BRK_TIM12_IRQHandler
                0x080e18c0                CEC_IRQHandler
                0x080e18c0                EXTI15_10_IRQHandler
                0x080e18c0                ADC_IRQHandler
                0x080e18c0                DMA1_Stream7_IRQHandler
                0x080e18c0                SPI5_IRQHandler
                0x080e18c0                TIM7_IRQHandler
                0x080e18c0                SDMMC1_IRQHandler
                0x080e18c0                TIM5_IRQHandler
                0x080e18c0                DMA2_Stream7_IRQHandler
                0x080e18c0                I2C3_EV_IRQHandler
                0x080e18c0                EXTI9_5_IRQHandler
                0x080e18c0                RTC_WKUP_IRQHandler
                0x080e18c0                ETH_WKUP_IRQHandler
                0x080e18c0                SPDIF_RX_IRQHandler
                0x080e18c0                SPI2_IRQHandler
                0x080e18c0                OTG_HS_EP1_IN_IRQHandler
                0x080e18c0                DMA1_Stream0_IRQHandler
                0x080e18c0                EXTI4_IRQHandler
                0x080e18c0                RNG_IRQHandler
                0x080e18c0                ETH_IRQHandler
                0x080e18c0                OTG_HS_EP1_OUT_IRQHandler
                0x080e18c0                WWDG_IRQHandler
                0x080e18c0                SPI6_IRQHandler
                0x080e18c0                I2C4_EV_IRQHandler
                0x080e18c0                TIM2_IRQHandler
                0x080e18c0                OTG_FS_WKUP_IRQHandler
                0x080e18c0                TIM1_TRG_COM_TIM11_IRQHandler
                0x080e18c0                OTG_HS_IRQHandler
                0x080e18c0                EXTI1_IRQHandler
                0x080e18c0                UART7_IRQHandler
                0x080e18c0                USART2_IRQHandler
                0x080e18c0                I2C2_ER_IRQHandler
                0x080e18c0                DMA2_Stream1_IRQHandler
                0x080e18c0                CAN1_SCE_IRQHandler
                0x080e18c0                FLASH_IRQHandler
                0x080e18c0                DMA2_Stream4_IRQHandler
                0x080e18c0                USART1_IRQHandler
                0x080e18c0                OTG_FS_IRQHandler
                0x080e18c0                SPI3_IRQHandler
                0x080e18c0                DMA1_Stream4_IRQHandler
                0x080e18c0                I2C1_ER_IRQHandler
                0x080e18c0                FMC_IRQHandler
                0x080e18c0                LPTIM1_IRQHandler
                0x080e18c0                I2C4_ER_IRQHandler
                0x080e18c0                DMA2_Stream6_IRQHandler
                0x080e18c0                SAI1_IRQHandler
                0x080e18c0                DMA1_Stream3_IRQHandler
 *fill*         0x080e18c2        0x2 
 .text.OsTaskCreate
                0x080e18c4       0xe0 D:\Work\Howell\MD\S17HOWDSPSW\ACCORD\Trunk\SourceCode\DisplayBoard\UCOS\Release\libUCOS.a(hdudispfoscpu.o)
                0x080e18c4                OsTaskCreate
 .text.OsInit   0x080e19a4      0x17c D:\Work\Howell\MD\S17HOWDSPSW\ACCORD\Trunk\SourceCode\DisplayBoard\UCOS\Release\libUCOS.a(hdudispfucos.o)
                0x080e19a4                OsInit
 .text.OsTaskIdle
                0x080e1b20       0x30 D:\Work\Howell\MD\S17HOWDSPSW\ACCORD\Trunk\SourceCode\DisplayBoard\UCOS\Release\libUCOS.a(hdudispfucos.o)
 .text.OsStart  0x080e1b50       0x7c D:\Work\Howell\MD\S17HOWDSPSW\ACCORD\Trunk\SourceCode\DisplayBoard\UCOS\Release\libUCOS.a(hdudispfucos.o)
                0x080e1b50                OsStart
 .text.OsSched  0x080e1bcc       0xa4 D:\Work\Howell\MD\S17HOWDSPSW\ACCORD\Trunk\SourceCode\DisplayBoard\UCOS\Release\libUCOS.a(hdudispfucos.o)
                0x080e1bcc                OsSched
 .text.OsTcbInit
                0x080e1c70      0x12c D:\Work\Howell\MD\S17HOWDSPSW\ACCORD\Trunk\SourceCode\DisplayBoard\UCOS\Release\libUCOS.a(hdudispfucos.o)
                0x080e1c70                OsTcbInit
 .text.OsIntEnter
                0x080e1d9c       0x30 D:\Work\Howell\MD\S17HOWDSPSW\ACCORD\Trunk\SourceCode\DisplayBoard\UCOS\Release\libUCOS.a(hdudispfucos.o)
                0x080e1d9c                OsIntEnter
 .text.OsIntExit
                0x080e1dcc       0xb0 D:\Work\Howell\MD\S17HOWDSPSW\ACCORD\Trunk\SourceCode\DisplayBoard\UCOS\Release\libUCOS.a(hdudispfucos.o)
                0x080e1dcc                OsIntExit
 .text.OsTimeDly
                0x080e1e7c       0x98 D:\Work\Howell\MD\S17HOWDSPSW\ACCORD\Trunk\SourceCode\DisplayBoard\UCOS\Release\libUCOS.a(hdudispfucos.o)
                0x080e1e7c                OsTimeDly
 .text.OsTimeTick
                0x080e1f14       0xcc D:\Work\Howell\MD\S17HOWDSPSW\ACCORD\Trunk\SourceCode\DisplayBoard\UCOS\Release\libUCOS.a(hdudispfucos.o)
                0x080e1f14                OsTimeTick
 .text.OsSemCreate
                0x080e1fe0       0x94 D:\Work\Howell\MD\S17HOWDSPSW\ACCORD\Trunk\SourceCode\DisplayBoard\UCOS\Release\libUCOS.a(hdudispfucos.o)
                0x080e1fe0                OsSemCreate
 .text.OsSemAccept
                0x080e2074       0x48 D:\Work\Howell\MD\S17HOWDSPSW\ACCORD\Trunk\SourceCode\DisplayBoard\UCOS\Release\libUCOS.a(hdudispfucos.o)
                0x080e2074                OsSemAccept
 .text.OsSemPend
                0x080e20bc      0x19c D:\Work\Howell\MD\S17HOWDSPSW\ACCORD\Trunk\SourceCode\DisplayBoard\UCOS\Release\libUCOS.a(hdudispfucos.o)
                0x080e20bc                OsSemPend
 .text.OsSemPost
                0x080e2258      0x150 D:\Work\Howell\MD\S17HOWDSPSW\ACCORD\Trunk\SourceCode\DisplayBoard\UCOS\Release\libUCOS.a(hdudispfucos.o)
                0x080e2258                OsSemPost
 .text.Process429Words
                0x080e23a8     0x1084 D:\Work\Howell\MD\S17HOWDSPSW\ACCORD\Trunk\SourceCode\DisplayBoard\COMMON\Release\libCOMMON.a(hdudispfa429.o)
 .text.A429Init
                0x080e342c      0xa4c D:\Work\Howell\MD\S17HOWDSPSW\ACCORD\Trunk\SourceCode\DisplayBoard\COMMON\Release\libCOMMON.a(hdudispfa429.o)
                0x080e342c                A429Init
 .text.ProcessF4PbitErr
                0x080e3e78       0xf4 D:\Work\Howell\MD\S17HOWDSPSW\ACCORD\Trunk\SourceCode\DisplayBoard\COMMON\Release\libCOMMON.a(hdudispfa429.o)
                0x080e3e78                ProcessF4PbitErr
 .text.ProcessF4CbitErr
                0x080e3f6c       0x38 D:\Work\Howell\MD\S17HOWDSPSW\ACCORD\Trunk\SourceCode\DisplayBoard\COMMON\Release\libCOMMON.a(hdudispfa429.o)
                0x080e3f6c                ProcessF4CbitErr
 .text.A429ProcessA825
                0x080e3fa4      0x2ac D:\Work\Howell\MD\S17HOWDSPSW\ACCORD\Trunk\SourceCode\DisplayBoard\COMMON\Release\libCOMMON.a(hdudispfa429.o)
                0x080e3fa4                A429ProcessA825
 .text.BinAsciiCRC
                0x080e4250      0x1a8 D:\Work\Howell\MD\S17HOWDSPSW\ACCORD\Trunk\SourceCode\DisplayBoard\COMMON\Release\libCOMMON.a(hdudispfa429.o)
                0x080e4250                BinAsciiCRC
 .text.MemCpy   0x080e43f8       0x44 D:\Work\Howell\MD\S17HOWDSPSW\ACCORD\Trunk\SourceCode\DisplayBoard\COMMON\Release\libCOMMON.a(hdudispfa429.o)
                0x080e43f8                MemCpy
 .text.MemSet   0x080e443c       0x38 D:\Work\Howell\MD\S17HOWDSPSW\ACCORD\Trunk\SourceCode\DisplayBoard\COMMON\Release\libCOMMON.a(hdudispfa429.o)
                0x080e443c                MemSet
 .text.ProcessSWPartNum
                0x080e4474      0x1d0 D:\Work\Howell\MD\S17HOWDSPSW\ACCORD\Trunk\SourceCode\DisplayBoard\COMMON\Release\libCOMMON.a(hdudispfa429.o)
                0x080e4474                ProcessSWPartNum
 .text.SetSysInfoWords
                0x080e4644       0xa4 D:\Work\Howell\MD\S17HOWDSPSW\ACCORD\Trunk\SourceCode\DisplayBoard\COMMON\Release\libCOMMON.a(hdudispfa429.o)
                0x080e4644                SetSysInfoWords
 .text.SetSysAirFrameWords
                0x080e46e8       0x9c D:\Work\Howell\MD\S17HOWDSPSW\ACCORD\Trunk\SourceCode\DisplayBoard\COMMON\Release\libCOMMON.a(hdudispfa429.o)
                0x080e46e8                SetSysAirFrameWords
 .text.ProcessSysInfoWords
                0x080e4784      0x9b8 D:\Work\Howell\MD\S17HOWDSPSW\ACCORD\Trunk\SourceCode\DisplayBoard\COMMON\Release\libCOMMON.a(hdudispfa429.o)
                0x080e4784                ProcessSysInfoWords
 .text.ProcessAirframeInfoWords
                0x080e513c      0x3b4 D:\Work\Howell\MD\S17HOWDSPSW\ACCORD\Trunk\SourceCode\DisplayBoard\COMMON\Release\libCOMMON.a(hdudispfa429.o)
                0x080e513c                ProcessAirframeInfoWords
 .text.StringCompare
                0x080e54f0       0x70 D:\Work\Howell\MD\S17HOWDSPSW\ACCORD\Trunk\SourceCode\DisplayBoard\COMMON\Release\libCOMMON.a(hdudispfa429.o)
                0x080e54f0                StringCompare
 .text.CalibrationLabels
                0x080e5560       0xa8 D:\Work\Howell\MD\S17HOWDSPSW\ACCORD\Trunk\SourceCode\DisplayBoard\COMMON\Release\libCOMMON.a(hdudispfa429.o)
                0x080e5560                CalibrationLabels
 .text.BspNorInit
                0x080e5608       0xc8 D:\Work\Howell\MD\S17HOWDSPSW\ACCORD\Trunk\SourceCode\DisplayBoard\COMMON\Release\libCOMMON.a(hdudispfbspnor.o)
                0x080e5608                BspNorInit
 .text.BspNorMspInit
                0x080e56d0      0x12c D:\Work\Howell\MD\S17HOWDSPSW\ACCORD\Trunk\SourceCode\DisplayBoard\COMMON\Release\libCOMMON.a(hdudispfbspnor.o)
                0x080e56d0                BspNorMspInit
 .text.CasSetCasWord
                0x080e57fc       0x30 D:\Work\Howell\MD\S17HOWDSPSW\ACCORD\Trunk\SourceCode\DisplayBoard\COMMON\Release\libCOMMON.a(hdudispfcas.o)
                0x080e57fc                CasSetCasWord
 .text.CasInit  0x080e582c       0x40 D:\Work\Howell\MD\S17HOWDSPSW\ACCORD\Trunk\SourceCode\DisplayBoard\COMMON\Release\libCOMMON.a(hdudispfcas.o)
                0x080e582c                CasInit
 .text.FormulateNewCas
                0x080e586c       0x84 D:\Work\Howell\MD\S17HOWDSPSW\ACCORD\Trunk\SourceCode\DisplayBoard\COMMON\Release\libCOMMON.a(hdudispfcas.o)
 .text.ResetNewTimers
                0x080e58f0       0x78 D:\Work\Howell\MD\S17HOWDSPSW\ACCORD\Trunk\SourceCode\DisplayBoard\COMMON\Release\libCOMMON.a(hdudispfcas.o)
 .text.SetCasStatus
                0x080e5968       0x98 D:\Work\Howell\MD\S17HOWDSPSW\ACCORD\Trunk\SourceCode\DisplayBoard\COMMON\Release\libCOMMON.a(hdudispfcas.o)
                0x080e5968                SetCasStatus
 .text.CasUpdate
                0x080e5a00       0xd0 D:\Work\Howell\MD\S17HOWDSPSW\ACCORD\Trunk\SourceCode\DisplayBoard\COMMON\Release\libCOMMON.a(hdudispfcas.o)
                0x080e5a00                CasUpdate
 .text.CasSort  0x080e5ad0      0x55c D:\Work\Howell\MD\S17HOWDSPSW\ACCORD\Trunk\SourceCode\DisplayBoard\COMMON\Release\libCOMMON.a(hdudispfcas.o)
                0x080e5ad0                CasSort
 .text.CasDisplay
                0x080e602c      0x674 D:\Work\Howell\MD\S17HOWDSPSW\ACCORD\Trunk\SourceCode\DisplayBoard\COMMON\Release\libCOMMON.a(hdudispfcas.o)
                0x080e602c                CasDisplay
 .text.CrcInit  0x080e66a0       0x3c D:\Work\Howell\MD\S17HOWDSPSW\ACCORD\Trunk\SourceCode\DisplayBoard\COMMON\Release\libCOMMON.a(hdudispfcrc.o)
 .text.CrcCalculate
                0x080e66dc       0x2c D:\Work\Howell\MD\S17HOWDSPSW\ACCORD\Trunk\SourceCode\DisplayBoard\COMMON\Release\libCOMMON.a(hdudispfcrc.o)
                0x080e66dc                CrcCalculate
 .text.DmaConfig
                0x080e6708       0xc8 D:\Work\Howell\MD\S17HOWDSPSW\ACCORD\Trunk\SourceCode\DisplayBoard\COMMON\Release\libCOMMON.a(hdudispfdma2.o)
 .text.TransferComplete
                0x080e67d0       0x94 D:\Work\Howell\MD\S17HOWDSPSW\ACCORD\Trunk\SourceCode\DisplayBoard\COMMON\Release\libCOMMON.a(hdudispfdma2.o)
 .text.TransferError
                0x080e6864       0x18 D:\Work\Howell\MD\S17HOWDSPSW\ACCORD\Trunk\SourceCode\DisplayBoard\COMMON\Release\libCOMMON.a(hdudispfdma2.o)
 .text.ErrorHandler
                0x080e687c       0x10 D:\Work\Howell\MD\S17HOWDSPSW\ACCORD\Trunk\SourceCode\DisplayBoard\COMMON\Release\libCOMMON.a(hdudispfdma2.o)
 .text.Dma2ClearForeground
                0x080e688c       0x34 D:\Work\Howell\MD\S17HOWDSPSW\ACCORD\Trunk\SourceCode\DisplayBoard\COMMON\Release\libCOMMON.a(hdudispfdma2.o)
                0x080e688c                Dma2ClearForeground
 .text.Dma2Init
                0x080e68c0        0xc D:\Work\Howell\MD\S17HOWDSPSW\ACCORD\Trunk\SourceCode\DisplayBoard\COMMON\Release\libCOMMON.a(hdudispfdma2.o)
                0x080e68c0                Dma2Init
 .text.HalDma2dConfigLayer
                0x080e68cc      0x194 D:\Work\Howell\MD\S17HOWDSPSW\ACCORD\Trunk\SourceCode\DisplayBoard\COMMON\Release\libCOMMON.a(hdudispfdma2d.o)
                0x080e68cc                HalDma2dConfigLayer
 .text.Dma2dSetConfig
                0x080e6a60      0x1a0 D:\Work\Howell\MD\S17HOWDSPSW\ACCORD\Trunk\SourceCode\DisplayBoard\COMMON\Release\libCOMMON.a(hdudispfdma2d.o)
 .text.HalDma2dBlendingStartIt
                0x080e6c00       0x4c D:\Work\Howell\MD\S17HOWDSPSW\ACCORD\Trunk\SourceCode\DisplayBoard\COMMON\Release\libCOMMON.a(hdudispfdma2d.o)
                0x080e6c00                HalDma2dBlendingStartIt
 .text.HalDma2dStartIt
                0x080e6c4c       0x44 D:\Work\Howell\MD\S17HOWDSPSW\ACCORD\Trunk\SourceCode\DisplayBoard\COMMON\Release\libCOMMON.a(hdudispfdma2d.o)
                0x080e6c4c                HalDma2dStartIt
 .text.HalDma2dInit
                0x080e6c90       0x54 D:\Work\Howell\MD\S17HOWDSPSW\ACCORD\Trunk\SourceCode\DisplayBoard\COMMON\Release\libCOMMON.a(hdudispfdma2d.o)
                0x080e6c90                HalDma2dInit
 .text.Dma2dWait
                0x080e6ce4       0x44 D:\Work\Howell\MD\S17HOWDSPSW\ACCORD\Trunk\SourceCode\DisplayBoard\COMMON\Release\libCOMMON.a(hdudispfdma2d.o)
                0x080e6ce4                Dma2dWait
 .text.Dma2dIsBusy
                0x080e6d28       0x28 D:\Work\Howell\MD\S17HOWDSPSW\ACCORD\Trunk\SourceCode\DisplayBoard\COMMON\Release\libCOMMON.a(hdudispfdma2d.o)
                0x080e6d28                Dma2dIsBusy
 .text.Dma2dInitRtoM
                0x080e6d50       0x54 D:\Work\Howell\MD\S17HOWDSPSW\ACCORD\Trunk\SourceCode\DisplayBoard\COMMON\Release\libCOMMON.a(hdudispfdma2d.o)
 .text.Dma2dFillBox
                0x080e6da4       0xa0 D:\Work\Howell\MD\S17HOWDSPSW\ACCORD\Trunk\SourceCode\DisplayBoard\COMMON\Release\libCOMMON.a(hdudispfdma2d.o)
                0x080e6da4                Dma2dFillBox
 .text.Dma2dInitChartoM
                0x080e6e44       0x70 D:\Work\Howell\MD\S17HOWDSPSW\ACCORD\Trunk\SourceCode\DisplayBoard\COMMON\Release\libCOMMON.a(hdudispfdma2d.o)
 .text.Dma2dDrawChar
                0x080e6eb4       0xa8 D:\Work\Howell\MD\S17HOWDSPSW\ACCORD\Trunk\SourceCode\DisplayBoard\COMMON\Release\libCOMMON.a(hdudispfdma2d.o)
                0x080e6eb4                Dma2dDrawChar
 .text.ClearScanLine
                0x080e6f5c       0x6c D:\Work\Howell\MD\S17HOWDSPSW\ACCORD\Trunk\SourceCode\DisplayBoard\COMMON\Release\libCOMMON.a(hdudispfdma2d.o)
 .text.Dma2dInitScanLine
                0x080e6fc8       0x7c D:\Work\Howell\MD\S17HOWDSPSW\ACCORD\Trunk\SourceCode\DisplayBoard\COMMON\Release\libCOMMON.a(hdudispfdma2d.o)
 .text.Dma2dScanLineBlend
                0x080e7044      0x174 D:\Work\Howell\MD\S17HOWDSPSW\ACCORD\Trunk\SourceCode\DisplayBoard\COMMON\Release\libCOMMON.a(hdudispfdma2d.o)
                0x080e7044                Dma2dScanLineBlend
 .text.Dma2dInitRgbToArgb4444
                0x080e71b8       0x5c D:\Work\Howell\MD\S17HOWDSPSW\ACCORD\Trunk\SourceCode\DisplayBoard\COMMON\Release\libCOMMON.a(hdudispfdma2d.o)
 .text.Dma2dRgbToArgb4444
                0x080e7214       0x68 D:\Work\Howell\MD\S17HOWDSPSW\ACCORD\Trunk\SourceCode\DisplayBoard\COMMON\Release\libCOMMON.a(hdudispfdma2d.o)
                0x080e7214                Dma2dRgbToArgb4444
 .text.Dma2dInit
                0x080e727c       0x3c D:\Work\Howell\MD\S17HOWDSPSW\ACCORD\Trunk\SourceCode\DisplayBoard\COMMON\Release\libCOMMON.a(hdudispfdma2d.o)
                0x080e727c                Dma2dInit
 .text.GlobalSettingsPush
                0x080e72b8      0x284 D:\Work\Howell\MD\S17HOWDSPSW\ACCORD\Trunk\SourceCode\DisplayBoard\COMMON\Release\libCOMMON.a(hdudispfglobalsettings.o)
                0x080e72b8                GlobalSettingsPush
 .text.GlobalSettingsPull
                0x080e753c       0x98 D:\Work\Howell\MD\S17HOWDSPSW\ACCORD\Trunk\SourceCode\DisplayBoard\COMMON\Release\libCOMMON.a(hdudispfglobalsettings.o)
                0x080e753c                GlobalSettingsPull
 .text.GlobalSettingsProcessNSC
                0x080e75d4      0x214 D:\Work\Howell\MD\S17HOWDSPSW\ACCORD\Trunk\SourceCode\DisplayBoard\COMMON\Release\libCOMMON.a(hdudispfglobalsettings.o)
                0x080e75d4                GlobalSettingsProcessNSC
 .text.GlobalSettingsSetEIU
                0x080e77e8       0xcc D:\Work\Howell\MD\S17HOWDSPSW\ACCORD\Trunk\SourceCode\DisplayBoard\COMMON\Release\libCOMMON.a(hdudispfglobalsettings.o)
                0x080e77e8                GlobalSettingsSetEIU
 .text.GlobalSettingsSetSysInfo
                0x080e78b4       0x80 D:\Work\Howell\MD\S17HOWDSPSW\ACCORD\Trunk\SourceCode\DisplayBoard\COMMON\Release\libCOMMON.a(hdudispfglobalsettings.o)
                0x080e78b4                GlobalSettingsSetSysInfo
 .text.GlobalSettingsPushPeakLog
                0x080e7934      0x2f4 D:\Work\Howell\MD\S17HOWDSPSW\ACCORD\Trunk\SourceCode\DisplayBoard\COMMON\Release\libCOMMON.a(hdudispfglobalsettings.o)
                0x080e7934                GlobalSettingsPushPeakLog
 .text.GlobalSettingsCheckExParam
                0x080e7c28      0x724 D:\Work\Howell\MD\S17HOWDSPSW\ACCORD\Trunk\SourceCode\DisplayBoard\COMMON\Release\libCOMMON.a(hdudispfglobalsettings.o)
                0x080e7c28                GlobalSettingsCheckExParam
 .text.GlobalSettingsCheckTrig
                0x080e834c      0x8a0 D:\Work\Howell\MD\S17HOWDSPSW\ACCORD\Trunk\SourceCode\DisplayBoard\COMMON\Release\libCOMMON.a(hdudispfglobalsettings.o)
                0x080e834c                GlobalSettingsCheckTrig
 .text.FlightTimerStart
                0x080e8bec      0x110 D:\Work\Howell\MD\S17HOWDSPSW\ACCORD\Trunk\SourceCode\DisplayBoard\COMMON\Release\libCOMMON.a(hdudispfglobalsettings.o)
                0x080e8bec                FlightTimerStart
 .text.FlightTimerStartExceed
                0x080e8cfc       0x7c D:\Work\Howell\MD\S17HOWDSPSW\ACCORD\Trunk\SourceCode\DisplayBoard\COMMON\Release\libCOMMON.a(hdudispfglobalsettings.o)
                0x080e8cfc                FlightTimerStartExceed
 .text.ScuRTDGetParam
                0x080e8d78      0x194 D:\Work\Howell\MD\S17HOWDSPSW\ACCORD\Trunk\SourceCode\DisplayBoard\COMMON\Release\libCOMMON.a(hdudispflmsscu.o)
                0x080e8d78                ScuRTDGetParam
 .text.ScuRTDWatchdog
                0x080e8f0c       0xa8 D:\Work\Howell\MD\S17HOWDSPSW\ACCORD\Trunk\SourceCode\DisplayBoard\COMMON\Release\libCOMMON.a(hdudispflmsscu.o)
                0x080e8f0c                ScuRTDWatchdog
 .text.ScuRTDSetParam
                0x080e8fb4      0x150 D:\Work\Howell\MD\S17HOWDSPSW\ACCORD\Trunk\SourceCode\DisplayBoard\COMMON\Release\libCOMMON.a(hdudispflmsscu.o)
                0x080e8fb4                ScuRTDSetParam
 .text.ScuRTDInit
                0x080e9104       0x50 D:\Work\Howell\MD\S17HOWDSPSW\ACCORD\Trunk\SourceCode\DisplayBoard\COMMON\Release\libCOMMON.a(hdudispflmsscu.o)
                0x080e9104                ScuRTDInit
 .text.FaultTimer
                0x080e9154       0x7c D:\Work\Howell\MD\S17HOWDSPSW\ACCORD\Trunk\SourceCode\DisplayBoard\COMMON\Release\libCOMMON.a(hdudispflmsscu.o)
 .text.ProcessLmsScuSysStatusErr
                0x080e91d0      0x504 D:\Work\Howell\MD\S17HOWDSPSW\ACCORD\Trunk\SourceCode\DisplayBoard\COMMON\Release\libCOMMON.a(hdudispflmsscu.o)
                0x080e91d0                ProcessLmsScuSysStatusErr
 .text.ProcessLmsScuProbeErr
                0x080e96d4      0x3ec D:\Work\Howell\MD\S17HOWDSPSW\ACCORD\Trunk\SourceCode\DisplayBoard\COMMON\Release\libCOMMON.a(hdudispflmsscu.o)
                0x080e96d4                ProcessLmsScuProbeErr
 .text.StartProcessingFaultLog
                0x080e9ac0      0x25c D:\Work\Howell\MD\S17HOWDSPSW\ACCORD\Trunk\SourceCode\DisplayBoard\COMMON\Release\libCOMMON.a(hdudispflmsscu.o)
 .text.StopProcessingFaultLog
                0x080e9d1c      0x180 D:\Work\Howell\MD\S17HOWDSPSW\ACCORD\Trunk\SourceCode\DisplayBoard\COMMON\Release\libCOMMON.a(hdudispflmsscu.o)
 .text.ProcessingArinc01Fault
                0x080e9e9c      0x1b4 D:\Work\Howell\MD\S17HOWDSPSW\ACCORD\Trunk\SourceCode\DisplayBoard\COMMON\Release\libCOMMON.a(hdudispflmsscu.o)
                0x080e9e9c                ProcessingArinc01Fault
 .text.GetFaultParamData
                0x080ea050      0x274 D:\Work\Howell\MD\S17HOWDSPSW\ACCORD\Trunk\SourceCode\DisplayBoard\COMMON\Release\libCOMMON.a(hdudispflmsscu.o)
 .text.PushFaultLog
                0x080ea2c4      0x31c D:\Work\Howell\MD\S17HOWDSPSW\ACCORD\Trunk\SourceCode\DisplayBoard\COMMON\Release\libCOMMON.a(hdudispflmsscu.o)
                0x080ea2c4                PushFaultLog
 .text.OffsideSwitchScreen
                0x080ea5e0       0xa4 D:\Work\Howell\MD\S17HOWDSPSW\ACCORD\Trunk\SourceCode\DisplayBoard\COMMON\Release\libCOMMON.a(hdudispfoffside.o)
                0x080ea5e0                OffsideSwitchScreen
 .text.OffsideTimerStart
                0x080ea684       0xc8 D:\Work\Howell\MD\S17HOWDSPSW\ACCORD\Trunk\SourceCode\DisplayBoard\COMMON\Release\libCOMMON.a(hdudispfoffside.o)
                0x080ea684                OffsideTimerStart
 .text.OffsideCoolTimer
                0x080ea74c       0xc4 D:\Work\Howell\MD\S17HOWDSPSW\ACCORD\Trunk\SourceCode\DisplayBoard\COMMON\Release\libCOMMON.a(hdudispfoffside.o)
                0x080ea74c                OffsideCoolTimer
 .text.OffsideFuelFlow
                0x080ea810       0xc4 D:\Work\Howell\MD\S17HOWDSPSW\ACCORD\Trunk\SourceCode\DisplayBoard\COMMON\Release\libCOMMON.a(hdudispfoffside.o)
                0x080ea810                OffsideFuelFlow
 .text.OffsideTimerStop
                0x080ea8d4       0xc8 D:\Work\Howell\MD\S17HOWDSPSW\ACCORD\Trunk\SourceCode\DisplayBoard\COMMON\Release\libCOMMON.a(hdudispfoffside.o)
                0x080ea8d4                OffsideTimerStop
 .text.OffsideTimerReset
                0x080ea99c       0xb8 D:\Work\Howell\MD\S17HOWDSPSW\ACCORD\Trunk\SourceCode\DisplayBoard\COMMON\Release\libCOMMON.a(hdudispfoffside.o)
                0x080ea99c                OffsideTimerReset
 .text.OffsideProcessA825NSC
                0x080eaa54      0x170 D:\Work\Howell\MD\S17HOWDSPSW\ACCORD\Trunk\SourceCode\DisplayBoard\COMMON\Release\libCOMMON.a(hdudispfoffside.o)
                0x080eaa54                OffsideProcessA825NSC
 .text.OffsideHeartBeat
                0x080eabc4       0x90 D:\Work\Howell\MD\S17HOWDSPSW\ACCORD\Trunk\SourceCode\DisplayBoard\COMMON\Release\libCOMMON.a(hdudispfoffside.o)
                0x080eabc4                OffsideHeartBeat
 .text.OffsideProcessA825NOC
                0x080eac54       0x40 D:\Work\Howell\MD\S17HOWDSPSW\ACCORD\Trunk\SourceCode\DisplayBoard\COMMON\Release\libCOMMON.a(hdudispfoffside.o)
                0x080eac54                OffsideProcessA825NOC
 .text.OffsideCalibrationA825
                0x080eac94       0xf4 D:\Work\Howell\MD\S17HOWDSPSW\ACCORD\Trunk\SourceCode\DisplayBoard\COMMON\Release\libCOMMON.a(hdudispfoffside.o)
                0x080eac94                OffsideCalibrationA825
 .text.OffsideCalibration
                0x080ead88      0x114 D:\Work\Howell\MD\S17HOWDSPSW\ACCORD\Trunk\SourceCode\DisplayBoard\COMMON\Release\libCOMMON.a(hdudispfoffside.o)
                0x080ead88                OffsideCalibration
 .text.ProcessCaliA825
                0x080eae9c       0x6c D:\Work\Howell\MD\S17HOWDSPSW\ACCORD\Trunk\SourceCode\DisplayBoard\COMMON\Release\libCOMMON.a(hdudispfoffside.o)
                0x080eae9c                ProcessCaliA825
 .text.CheckforNewMessages
                0x080eaf08       0xc8 D:\Work\Howell\MD\S17HOWDSPSW\ACCORD\Trunk\SourceCode\DisplayBoard\COMMON\Release\libCOMMON.a(hdudispfpara.o)
                0x080eaf08                CheckforNewMessages
 .text.BuildMessageList
                0x080eafd0       0x98 D:\Work\Howell\MD\S17HOWDSPSW\ACCORD\Trunk\SourceCode\DisplayBoard\COMMON\Release\libCOMMON.a(hdudispfpara.o)
                0x080eafd0                BuildMessageList
 .text.ParaGetMessageCount
                0x080eb068       0x3c D:\Work\Howell\MD\S17HOWDSPSW\ACCORD\Trunk\SourceCode\DisplayBoard\COMMON\Release\libCOMMON.a(hdudispfpara.o)
                0x080eb068                ParaGetMessageCount
 .text.BuildSysInfoList
                0x080eb0a4       0x98 D:\Work\Howell\MD\S17HOWDSPSW\ACCORD\Trunk\SourceCode\DisplayBoard\COMMON\Release\libCOMMON.a(hdudispfpara.o)
                0x080eb0a4                BuildSysInfoList
 .text.ParaGetSysInfoCount
                0x080eb13c       0x3c D:\Work\Howell\MD\S17HOWDSPSW\ACCORD\Trunk\SourceCode\DisplayBoard\COMMON\Release\libCOMMON.a(hdudispfpara.o)
                0x080eb13c                ParaGetSysInfoCount
 .text.ParaConfigTopMenu
                0x080eb178       0x70 D:\Work\Howell\MD\S17HOWDSPSW\ACCORD\Trunk\SourceCode\DisplayBoard\COMMON\Release\libCOMMON.a(hdudispfpara.o)
                0x080eb178                ParaConfigTopMenu
 .text.RTDGetParam
                0x080eb1e8       0xf8 D:\Work\Howell\MD\S17HOWDSPSW\ACCORD\Trunk\SourceCode\DisplayBoard\COMMON\Release\libCOMMON.a(hdudispfrtd.o)
                0x080eb1e8                RTDGetParam
 .text.RTDGetParamDdw
                0x080eb2e0       0xcc D:\Work\Howell\MD\S17HOWDSPSW\ACCORD\Trunk\SourceCode\DisplayBoard\COMMON\Release\libCOMMON.a(hdudispfrtd.o)
                0x080eb2e0                RTDGetParamDdw
 .text.RTDWatchdog
                0x080eb3ac       0xb8 D:\Work\Howell\MD\S17HOWDSPSW\ACCORD\Trunk\SourceCode\DisplayBoard\COMMON\Release\libCOMMON.a(hdudispfrtd.o)
                0x080eb3ac                RTDWatchdog
 .text.RTDSetParam
                0x080eb464       0xd0 D:\Work\Howell\MD\S17HOWDSPSW\ACCORD\Trunk\SourceCode\DisplayBoard\COMMON\Release\libCOMMON.a(hdudispfrtd.o)
                0x080eb464                RTDSetParam
 .text.RTDInit  0x080eb534       0x50 D:\Work\Howell\MD\S17HOWDSPSW\ACCORD\Trunk\SourceCode\DisplayBoard\COMMON\Release\libCOMMON.a(hdudispfrtd.o)
                0x080eb534                RTDInit
 .text.BspSdramInit
                0x080eb584       0xb8 D:\Work\Howell\MD\S17HOWDSPSW\ACCORD\Trunk\SourceCode\DisplayBoard\HAL_Driver\Release\libHAL_Driver.a(hdulibstm32756gevalsdram.o)
                0x080eb584                BspSdramInit
 .text.BspSdramInitializationSequence
                0x080eb63c       0xc0 D:\Work\Howell\MD\S17HOWDSPSW\ACCORD\Trunk\SourceCode\DisplayBoard\HAL_Driver\Release\libHAL_Driver.a(hdulibstm32756gevalsdram.o)
                0x080eb63c                BspSdramInitializationSequence
 .text.BspSdramMspInit
                0x080eb6fc      0x200 D:\Work\Howell\MD\S17HOWDSPSW\ACCORD\Trunk\SourceCode\DisplayBoard\HAL_Driver\Release\libHAL_Driver.a(hdulibstm32756gevalsdram.o)
                0x080eb6fc                BspSdramMspInit
 .text.HalInit  0x080eb8fc       0x28 D:\Work\Howell\MD\S17HOWDSPSW\ACCORD\Trunk\SourceCode\DisplayBoard\HAL_Driver\Release\libHAL_Driver.a(hdulibstm32f7xxhal.o)
                0x080eb8fc                HalInit
 .text.HALInitTick
                0x080eb924       0x38 D:\Work\Howell\MD\S17HOWDSPSW\ACCORD\Trunk\SourceCode\DisplayBoard\HAL_Driver\Release\libHAL_Driver.a(hdulibstm32f7xxhal.o)
                0x080eb924                HALInitTick
 .text.HalIncTick
                0x080eb95c       0x1c D:\Work\Howell\MD\S17HOWDSPSW\ACCORD\Trunk\SourceCode\DisplayBoard\HAL_Driver\Release\libHAL_Driver.a(hdulibstm32f7xxhal.o)
                0x080eb95c                HalIncTick
 .text.HALGetTick
                0x080eb978       0x18 D:\Work\Howell\MD\S17HOWDSPSW\ACCORD\Trunk\SourceCode\DisplayBoard\HAL_Driver\Release\libHAL_Driver.a(hdulibstm32f7xxhal.o)
                0x080eb978                HALGetTick
 .text.HalDelay
                0x080eb990       0x2c D:\Work\Howell\MD\S17HOWDSPSW\ACCORD\Trunk\SourceCode\DisplayBoard\HAL_Driver\Release\libHAL_Driver.a(hdulibstm32f7xxhal.o)
                0x080eb990                HalDelay
 .text.HalAdcInit
                0x080eb9bc       0x90 D:\Work\Howell\MD\S17HOWDSPSW\ACCORD\Trunk\SourceCode\DisplayBoard\HAL_Driver\Release\libHAL_Driver.a(hdulibstm32f7xxhaladc.o)
                0x080eb9bc                HalAdcInit
 .text.HalAdcMspInit
                0x080eba4c       0x14 D:\Work\Howell\MD\S17HOWDSPSW\ACCORD\Trunk\SourceCode\DisplayBoard\HAL_Driver\Release\libHAL_Driver.a(hdulibstm32f7xxhaladc.o)
                0x080eba4c                HalAdcMspInit
 .text.HalAdcStart
                0x080eba60      0x15c D:\Work\Howell\MD\S17HOWDSPSW\ACCORD\Trunk\SourceCode\DisplayBoard\HAL_Driver\Release\libHAL_Driver.a(hdulibstm32f7xxhaladc.o)
                0x080eba60                HalAdcStart
 .text.HalAdcPollForConversion
                0x080ebbbc      0x12c D:\Work\Howell\MD\S17HOWDSPSW\ACCORD\Trunk\SourceCode\DisplayBoard\HAL_Driver\Release\libHAL_Driver.a(hdulibstm32f7xxhaladc.o)
                0x080ebbbc                HalAdcPollForConversion
 .text.HalAdcGetValue
                0x080ebce8       0x1c D:\Work\Howell\MD\S17HOWDSPSW\ACCORD\Trunk\SourceCode\DisplayBoard\HAL_Driver\Release\libHAL_Driver.a(hdulibstm32f7xxhaladc.o)
                0x080ebce8                HalAdcGetValue
 .text.HalAdcConfigChannel
                0x080ebd04      0x26c D:\Work\Howell\MD\S17HOWDSPSW\ACCORD\Trunk\SourceCode\DisplayBoard\HAL_Driver\Release\libHAL_Driver.a(hdulibstm32f7xxhaladc.o)
                0x080ebd04                HalAdcConfigChannel
 .text.AdcInit  0x080ebf70      0x240 D:\Work\Howell\MD\S17HOWDSPSW\ACCORD\Trunk\SourceCode\DisplayBoard\HAL_Driver\Release\libHAL_Driver.a(hdulibstm32f7xxhaladc.o)
 .text.HalCanInit
                0x080ec1b0      0x248 D:\Work\Howell\MD\S17HOWDSPSW\ACCORD\Trunk\SourceCode\DisplayBoard\HAL_Driver\Release\libHAL_Driver.a(hdulibstm32f7xxhalcan.o)
                0x080ec1b0                HalCanInit
 .text.HalCanConfigFilter
                0x080ec3f8      0x1a0 D:\Work\Howell\MD\S17HOWDSPSW\ACCORD\Trunk\SourceCode\DisplayBoard\HAL_Driver\Release\libHAL_Driver.a(hdulibstm32f7xxhalcan.o)
                0x080ec3f8                HalCanConfigFilter
 .text.HalCanTransmit
                0x080ec598      0x288 D:\Work\Howell\MD\S17HOWDSPSW\ACCORD\Trunk\SourceCode\DisplayBoard\HAL_Driver\Release\libHAL_Driver.a(hdulibstm32f7xxhalcan.o)
                0x080ec598                HalCanTransmit
 .text.HalCanReceive
                0x080ec820      0x250 D:\Work\Howell\MD\S17HOWDSPSW\ACCORD\Trunk\SourceCode\DisplayBoard\HAL_Driver\Release\libHAL_Driver.a(hdulibstm32f7xxhalcan.o)
                0x080ec820                HalCanReceive
 .text.NVICSetPriorityGrouping
                0x080eca70       0x4c D:\Work\Howell\MD\S17HOWDSPSW\ACCORD\Trunk\SourceCode\DisplayBoard\HAL_Driver\Release\libHAL_Driver.a(hdulibstm32f7xxhalcortex.o)
 .text.NVICGetPriorityGrouping
                0x080ecabc       0x1c D:\Work\Howell\MD\S17HOWDSPSW\ACCORD\Trunk\SourceCode\DisplayBoard\HAL_Driver\Release\libHAL_Driver.a(hdulibstm32f7xxhalcortex.o)
 .text.NVICSetPriority
                0x080ecad8       0x54 D:\Work\Howell\MD\S17HOWDSPSW\ACCORD\Trunk\SourceCode\DisplayBoard\HAL_Driver\Release\libHAL_Driver.a(hdulibstm32f7xxhalcortex.o)
 .text.NVICEncodePriority
                0x080ecb2c       0x6c D:\Work\Howell\MD\S17HOWDSPSW\ACCORD\Trunk\SourceCode\DisplayBoard\HAL_Driver\Release\libHAL_Driver.a(hdulibstm32f7xxhalcortex.o)
 .text.SysTickConfig
                0x080ecb98       0x44 D:\Work\Howell\MD\S17HOWDSPSW\ACCORD\Trunk\SourceCode\DisplayBoard\HAL_Driver\Release\libHAL_Driver.a(hdulibstm32f7xxhalcortex.o)
 .text.NVICEnableIRQ
                0x080ecbdc       0x34 D:\Work\Howell\MD\S17HOWDSPSW\ACCORD\Trunk\SourceCode\DisplayBoard\HAL_Driver\Release\libHAL_Driver.a(hdulibstm32f7xxhalcortex.o)
 .text.HALNvicSetPriorityGrouping
                0x080ecc10       0x18 D:\Work\Howell\MD\S17HOWDSPSW\ACCORD\Trunk\SourceCode\DisplayBoard\HAL_Driver\Release\libHAL_Driver.a(hdulibstm32f7xxhalcortex.o)
                0x080ecc10                HALNvicSetPriorityGrouping
 .text.HalNvicSetPriority
                0x080ecc28       0x38 D:\Work\Howell\MD\S17HOWDSPSW\ACCORD\Trunk\SourceCode\DisplayBoard\HAL_Driver\Release\libHAL_Driver.a(hdulibstm32f7xxhalcortex.o)
                0x080ecc28                HalNvicSetPriority
 .text.HalNvicEnableIrq
                0x080ecc60       0x1c D:\Work\Howell\MD\S17HOWDSPSW\ACCORD\Trunk\SourceCode\DisplayBoard\HAL_Driver\Release\libHAL_Driver.a(hdulibstm32f7xxhalcortex.o)
                0x080ecc60                HalNvicEnableIrq
 .text.HALSysTickConfig
                0x080ecc7c       0x18 D:\Work\Howell\MD\S17HOWDSPSW\ACCORD\Trunk\SourceCode\DisplayBoard\HAL_Driver\Release\libHAL_Driver.a(hdulibstm32f7xxhalcortex.o)
                0x080ecc7c                HALSysTickConfig
 .text.HalMpuDisable
                0x080ecc94       0x2c D:\Work\Howell\MD\S17HOWDSPSW\ACCORD\Trunk\SourceCode\DisplayBoard\HAL_Driver\Release\libHAL_Driver.a(hdulibstm32f7xxhalcortex.o)
                0x080ecc94                HalMpuDisable
 .text.HalMpuEnable
                0x080eccc0       0x3c D:\Work\Howell\MD\S17HOWDSPSW\ACCORD\Trunk\SourceCode\DisplayBoard\HAL_Driver\Release\libHAL_Driver.a(hdulibstm32f7xxhalcortex.o)
                0x080eccc0                HalMpuEnable
 .text.HalMpuConfigRegion
                0x080eccfc       0x88 D:\Work\Howell\MD\S17HOWDSPSW\ACCORD\Trunk\SourceCode\DisplayBoard\HAL_Driver\Release\libHAL_Driver.a(hdulibstm32f7xxhalcortex.o)
                0x080eccfc                HalMpuConfigRegion
 .text.HalCrcInit
                0x080ecd84       0xc8 D:\Work\Howell\MD\S17HOWDSPSW\ACCORD\Trunk\SourceCode\DisplayBoard\HAL_Driver\Release\libHAL_Driver.a(hdulibstm32f7xxhalcrc.o)
                0x080ecd84                HalCrcInit
 .text.HalCrcAccumulate
                0x080ece4c       0xa0 D:\Work\Howell\MD\S17HOWDSPSW\ACCORD\Trunk\SourceCode\DisplayBoard\HAL_Driver\Release\libHAL_Driver.a(hdulibstm32f7xxhalcrc.o)
                0x080ece4c                HalCrcAccumulate
 .text.CrcHandle8
                0x080eceec      0x11c D:\Work\Howell\MD\S17HOWDSPSW\ACCORD\Trunk\SourceCode\DisplayBoard\HAL_Driver\Release\libHAL_Driver.a(hdulibstm32f7xxhalcrc.o)
 .text.CrcHandle16
                0x080ed008       0x74 D:\Work\Howell\MD\S17HOWDSPSW\ACCORD\Trunk\SourceCode\DisplayBoard\HAL_Driver\Release\libHAL_Driver.a(hdulibstm32f7xxhalcrc.o)
 .text.HalCrcExPolynomialSet
                0x080ed07c       0xf4 D:\Work\Howell\MD\S17HOWDSPSW\ACCORD\Trunk\SourceCode\DisplayBoard\HAL_Driver\Release\libHAL_Driver.a(hdulibstm32f7xxhalcrcex.o)
                0x080ed07c                HalCrcExPolynomialSet
 .text.HalDmaInit
                0x080ed170      0x158 D:\Work\Howell\MD\S17HOWDSPSW\ACCORD\Trunk\SourceCode\DisplayBoard\HAL_Driver\Release\libHAL_Driver.a(hdulibstm32f7xxhaldma.o)
                0x080ed170                HalDmaInit
 .text.HalDmaDeInit
                0x080ed2c8       0x9c D:\Work\Howell\MD\S17HOWDSPSW\ACCORD\Trunk\SourceCode\DisplayBoard\HAL_Driver\Release\libHAL_Driver.a(hdulibstm32f7xxhaldma.o)
                0x080ed2c8                HalDmaDeInit
 .text.HALDmaStartIT
                0x080ed364       0xc0 D:\Work\Howell\MD\S17HOWDSPSW\ACCORD\Trunk\SourceCode\DisplayBoard\HAL_Driver\Release\libHAL_Driver.a(hdulibstm32f7xxhaldma.o)
                0x080ed364                HALDmaStartIT
 .text.HALDmaIrqHandler
                0x080ed424      0x324 D:\Work\Howell\MD\S17HOWDSPSW\ACCORD\Trunk\SourceCode\DisplayBoard\HAL_Driver\Release\libHAL_Driver.a(hdulibstm32f7xxhaldma.o)
                0x080ed424                HALDmaIrqHandler
 .text.HALDmaRegisterCallback
                0x080ed748       0xa8 D:\Work\Howell\MD\S17HOWDSPSW\ACCORD\Trunk\SourceCode\DisplayBoard\HAL_Driver\Release\libHAL_Driver.a(hdulibstm32f7xxhaldma.o)
                0x080ed748                HALDmaRegisterCallback
 .text.DmaSetConfig
                0x080ed7f0       0x5c D:\Work\Howell\MD\S17HOWDSPSW\ACCORD\Trunk\SourceCode\DisplayBoard\HAL_Driver\Release\libHAL_Driver.a(hdulibstm32f7xxhaldma.o)
 .text.DmaCalcBaseAndBitShift
                0x080ed84c       0x6c D:\Work\Howell\MD\S17HOWDSPSW\ACCORD\Trunk\SourceCode\DisplayBoard\HAL_Driver\Release\libHAL_Driver.a(hdulibstm32f7xxhaldma.o)
 .text.DmaCheckFifoParam
                0x080ed8b8      0x134 D:\Work\Howell\MD\S17HOWDSPSW\ACCORD\Trunk\SourceCode\DisplayBoard\HAL_Driver\Release\libHAL_Driver.a(hdulibstm32f7xxhaldma.o)
 .text.HalGpioInit
                0x080ed9ec      0x354 D:\Work\Howell\MD\S17HOWDSPSW\ACCORD\Trunk\SourceCode\DisplayBoard\HAL_Driver\Release\libHAL_Driver.a(hdulibstm32f7xxhalgpio.o)
                0x080ed9ec                HalGpioInit
 .text.HALGpioWritePin
                0x080edd40       0x34 D:\Work\Howell\MD\S17HOWDSPSW\ACCORD\Trunk\SourceCode\DisplayBoard\HAL_Driver\Release\libHAL_Driver.a(hdulibstm32f7xxhalgpio.o)
                0x080edd40                HALGpioWritePin
 .text.HALGpioTogglePin
                0x080edd74       0x24 D:\Work\Howell\MD\S17HOWDSPSW\ACCORD\Trunk\SourceCode\DisplayBoard\HAL_Driver\Release\libHAL_Driver.a(hdulibstm32f7xxhalgpio.o)
                0x080edd74                HALGpioTogglePin
 .text.HalIwdgInit
                0x080edd98       0x90 D:\Work\Howell\MD\S17HOWDSPSW\ACCORD\Trunk\SourceCode\DisplayBoard\HAL_Driver\Release\libHAL_Driver.a(hdulibstm32f7xxhaliwdg.o)
                0x080edd98                HalIwdgInit
 .text.HalIwdgRefresh
                0x080ede28       0x20 D:\Work\Howell\MD\S17HOWDSPSW\ACCORD\Trunk\SourceCode\DisplayBoard\HAL_Driver\Release\libHAL_Driver.a(hdulibstm32f7xxhaliwdg.o)
                0x080ede28                HalIwdgRefresh
 .text.HalLtdcInit
                0x080ede48      0x1b4 D:\Work\Howell\MD\S17HOWDSPSW\ACCORD\Trunk\SourceCode\DisplayBoard\HAL_Driver\Release\libHAL_Driver.a(hdulibstm32f7xxhalltdc.o)
                0x080ede48                HalLtdcInit
 .text.HalLtdcConfigLayer
                0x080edffc       0x7c D:\Work\Howell\MD\S17HOWDSPSW\ACCORD\Trunk\SourceCode\DisplayBoard\HAL_Driver\Release\libHAL_Driver.a(hdulibstm32f7xxhalltdc.o)
                0x080edffc                HalLtdcConfigLayer
 .text.HalLtdcSetAddress
                0x080ee078       0x70 D:\Work\Howell\MD\S17HOWDSPSW\ACCORD\Trunk\SourceCode\DisplayBoard\HAL_Driver\Release\libHAL_Driver.a(hdulibstm32f7xxhalltdc.o)
                0x080ee078                HalLtdcSetAddress
 .text.LtdcSetConfig
                0x080ee0e8      0x354 D:\Work\Howell\MD\S17HOWDSPSW\ACCORD\Trunk\SourceCode\DisplayBoard\HAL_Driver\Release\libHAL_Driver.a(hdulibstm32f7xxhalltdc.o)
 .text.HalLtdcMspInit
                0x080ee43c      0x124 D:\Work\Howell\MD\S17HOWDSPSW\ACCORD\Trunk\SourceCode\DisplayBoard\HAL_Driver\Release\libHAL_Driver.a(hdulibstm32f7xxhalmsp.o)
                0x080ee43c                HalLtdcMspInit
 .text.HalCRCMspInit
                0x080ee560       0x30 D:\Work\Howell\MD\S17HOWDSPSW\ACCORD\Trunk\SourceCode\DisplayBoard\HAL_Driver\Release\libHAL_Driver.a(hdulibstm32f7xxhalmsp.o)
                0x080ee560                HalCRCMspInit
 .text.HalNorInit
                0x080ee590       0xa8 D:\Work\Howell\MD\S17HOWDSPSW\ACCORD\Trunk\SourceCode\DisplayBoard\HAL_Driver\Release\libHAL_Driver.a(hdulibstm32f7xxhalnor.o)
                0x080ee590                HalNorInit
 .text.HalNorMspInit
                0x080ee638       0x14 D:\Work\Howell\MD\S17HOWDSPSW\ACCORD\Trunk\SourceCode\DisplayBoard\HAL_Driver\Release\libHAL_Driver.a(hdulibstm32f7xxhalnor.o)
                0x080ee638                HalNorMspInit
 .text.HalPwrExEnableOverDrive
                0x080ee64c       0x9c D:\Work\Howell\MD\S17HOWDSPSW\ACCORD\Trunk\SourceCode\DisplayBoard\HAL_Driver\Release\libHAL_Driver.a(hdulibstm32f7xxhalpwrex.o)
                0x080ee64c                HalPwrExEnableOverDrive
 .text.HalRccOscConfig
                0x080ee6e8      0x684 D:\Work\Howell\MD\S17HOWDSPSW\ACCORD\Trunk\SourceCode\DisplayBoard\HAL_Driver\Release\libHAL_Driver.a(hdulibstm32f7xxhalrcc.o)
                0x080ee6e8                HalRccOscConfig
 .text.HalRccClockConfig
                0x080eed6c      0x238 D:\Work\Howell\MD\S17HOWDSPSW\ACCORD\Trunk\SourceCode\DisplayBoard\HAL_Driver\Release\libHAL_Driver.a(hdulibstm32f7xxhalrcc.o)
                0x080eed6c                HalRccClockConfig
 .text.HalRccGetSysClockFreq
                0x080eefa4      0x1b4 D:\Work\Howell\MD\S17HOWDSPSW\ACCORD\Trunk\SourceCode\DisplayBoard\HAL_Driver\Release\libHAL_Driver.a(hdulibstm32f7xxhalrcc.o)
                0x080eefa4                HalRccGetSysClockFreq
 .text.HalRccExPeriphCLKConfig
                0x080ef158     0x214c D:\Work\Howell\MD\S17HOWDSPSW\ACCORD\Trunk\SourceCode\DisplayBoard\HAL_Driver\Release\libHAL_Driver.a(hdulibstm32f7xxhalrccex.o)
                0x080ef158                HalRccExPeriphCLKConfig
 .text.HALSdramInit
                0x080f12a4       0x68 D:\Work\Howell\MD\S17HOWDSPSW\ACCORD\Trunk\SourceCode\DisplayBoard\HAL_Driver\Release\libHAL_Driver.a(hdulibstm32f7xxhalsdram.o)
                0x080f12a4                HALSdramInit
 .text.HALSdramMspInit
                0x080f130c       0x14 D:\Work\Howell\MD\S17HOWDSPSW\ACCORD\Trunk\SourceCode\DisplayBoard\HAL_Driver\Release\libHAL_Driver.a(hdulibstm32f7xxhalsdram.o)
                0x080f130c                HALSdramMspInit
 .text.HalSdramSendCommand
                0x080f1320       0x58 D:\Work\Howell\MD\S17HOWDSPSW\ACCORD\Trunk\SourceCode\DisplayBoard\HAL_Driver\Release\libHAL_Driver.a(hdulibstm32f7xxhalsdram.o)
                0x080f1320                HalSdramSendCommand
 .text.HalSdramProgramRefreshRate
                0x080f1378       0x40 D:\Work\Howell\MD\S17HOWDSPSW\ACCORD\Trunk\SourceCode\DisplayBoard\HAL_Driver\Release\libHAL_Driver.a(hdulibstm32f7xxhalsdram.o)
                0x080f1378                HalSdramProgramRefreshRate
 .text.HalTimPwmInit
                0x080f13b8       0x58 D:\Work\Howell\MD\S17HOWDSPSW\ACCORD\Trunk\SourceCode\DisplayBoard\HAL_Driver\Release\libHAL_Driver.a(hdulibstm32f7xxhaltim.o)
                0x080f13b8                HalTimPwmInit
 .text.HalTimPwmMspInit
                0x080f1410       0x14 D:\Work\Howell\MD\S17HOWDSPSW\ACCORD\Trunk\SourceCode\DisplayBoard\HAL_Driver\Release\libHAL_Driver.a(hdulibstm32f7xxhaltim.o)
                0x080f1410                HalTimPwmMspInit
 .text.HalTimPwmStart
                0x080f1424       0x68 D:\Work\Howell\MD\S17HOWDSPSW\ACCORD\Trunk\SourceCode\DisplayBoard\HAL_Driver\Release\libHAL_Driver.a(hdulibstm32f7xxhaltim.o)
                0x080f1424                HalTimPwmStart
 .text.HalTimPwmConfigChannel
                0x080f148c      0x18c D:\Work\Howell\MD\S17HOWDSPSW\ACCORD\Trunk\SourceCode\DisplayBoard\HAL_Driver\Release\libHAL_Driver.a(hdulibstm32f7xxhaltim.o)
                0x080f148c                HalTimPwmConfigChannel
 .text.TimBaseSetConfig
                0x080f1618      0x154 D:\Work\Howell\MD\S17HOWDSPSW\ACCORD\Trunk\SourceCode\DisplayBoard\HAL_Driver\Release\libHAL_Driver.a(hdulibstm32f7xxhaltim.o)
                0x080f1618                TimBaseSetConfig
 .text.TimOc1SetConfig
                0x080f176c       0xec D:\Work\Howell\MD\S17HOWDSPSW\ACCORD\Trunk\SourceCode\DisplayBoard\HAL_Driver\Release\libHAL_Driver.a(hdulibstm32f7xxhaltim.o)
                0x080f176c                TimOc1SetConfig
 .text.TimOc2SetConfig
                0x080f1858       0xf4 D:\Work\Howell\MD\S17HOWDSPSW\ACCORD\Trunk\SourceCode\DisplayBoard\HAL_Driver\Release\libHAL_Driver.a(hdulibstm32f7xxhaltim.o)
                0x080f1858                TimOc2SetConfig
 .text.TimOc3SetConfig
                0x080f194c       0xf4 D:\Work\Howell\MD\S17HOWDSPSW\ACCORD\Trunk\SourceCode\DisplayBoard\HAL_Driver\Release\libHAL_Driver.a(hdulibstm32f7xxhaltim.o)
                0x080f194c                TimOc3SetConfig
 .text.TimOc4SetConfig
                0x080f1a40       0xc4 D:\Work\Howell\MD\S17HOWDSPSW\ACCORD\Trunk\SourceCode\DisplayBoard\HAL_Driver\Release\libHAL_Driver.a(hdulibstm32f7xxhaltim.o)
                0x080f1a40                TimOc4SetConfig
 .text.TimCcxChannelCmd
                0x080f1b04       0x48 D:\Work\Howell\MD\S17HOWDSPSW\ACCORD\Trunk\SourceCode\DisplayBoard\HAL_Driver\Release\libHAL_Driver.a(hdulibstm32f7xxhaltim.o)
                0x080f1b04                TimCcxChannelCmd
 .text.NVICSetPriority
                0x080f1b4c       0x54 D:\Work\Howell\MD\S17HOWDSPSW\ACCORD\Trunk\SourceCode\DisplayBoard\HAL_Driver\Release\libHAL_Driver.a(hdulibstm32f7xxit.o)
 .text.NVICEnableIRQ
                0x080f1ba0       0x34 D:\Work\Howell\MD\S17HOWDSPSW\ACCORD\Trunk\SourceCode\DisplayBoard\HAL_Driver\Release\libHAL_Driver.a(hdulibstm32f7xxit.o)
 .text.NmiHandler
                0x080f1bd4       0x10 D:\Work\Howell\MD\S17HOWDSPSW\ACCORD\Trunk\SourceCode\DisplayBoard\HAL_Driver\Release\libHAL_Driver.a(hdulibstm32f7xxit.o)
                0x080f1bd4                NmiHandler
 .text.HardFaultHandler
                0x080f1be4        0x8 D:\Work\Howell\MD\S17HOWDSPSW\ACCORD\Trunk\SourceCode\DisplayBoard\HAL_Driver\Release\libHAL_Driver.a(hdulibstm32f7xxit.o)
                0x080f1be4                HardFaultHandler
 .text.MemManageHandler
                0x080f1bec        0x8 D:\Work\Howell\MD\S17HOWDSPSW\ACCORD\Trunk\SourceCode\DisplayBoard\HAL_Driver\Release\libHAL_Driver.a(hdulibstm32f7xxit.o)
                0x080f1bec                MemManageHandler
 .text.BusFaultHandler
                0x080f1bf4        0x8 D:\Work\Howell\MD\S17HOWDSPSW\ACCORD\Trunk\SourceCode\DisplayBoard\HAL_Driver\Release\libHAL_Driver.a(hdulibstm32f7xxit.o)
                0x080f1bf4                BusFaultHandler
 .text.UsageFaultHandler
                0x080f1bfc        0x8 D:\Work\Howell\MD\S17HOWDSPSW\ACCORD\Trunk\SourceCode\DisplayBoard\HAL_Driver\Release\libHAL_Driver.a(hdulibstm32f7xxit.o)
                0x080f1bfc                UsageFaultHandler
 .text.SvcHandler
                0x080f1c04       0x10 D:\Work\Howell\MD\S17HOWDSPSW\ACCORD\Trunk\SourceCode\DisplayBoard\HAL_Driver\Release\libHAL_Driver.a(hdulibstm32f7xxit.o)
                0x080f1c04                SvcHandler
 .text.DebugMonHandler
                0x080f1c14       0x10 D:\Work\Howell\MD\S17HOWDSPSW\ACCORD\Trunk\SourceCode\DisplayBoard\HAL_Driver\Release\libHAL_Driver.a(hdulibstm32f7xxit.o)
                0x080f1c14                DebugMonHandler
 .text.LtdcIrqHandler
                0x080f1c24       0x50 D:\Work\Howell\MD\S17HOWDSPSW\ACCORD\Trunk\SourceCode\DisplayBoard\HAL_Driver\Release\libHAL_Driver.a(hdulibstm32f7xxit.o)
                0x080f1c24                LtdcIrqHandler
 .text.ITInterrupsInit
                0x080f1c74       0x28 D:\Work\Howell\MD\S17HOWDSPSW\ACCORD\Trunk\SourceCode\DisplayBoard\HAL_Driver\Release\libHAL_Driver.a(hdulibstm32f7xxit.o)
                0x080f1c74                ITInterrupsInit
 .text.Dma2Stream0IrqHandler
                0x080f1c9c       0x14 D:\Work\Howell\MD\S17HOWDSPSW\ACCORD\Trunk\SourceCode\DisplayBoard\HAL_Driver\Release\libHAL_Driver.a(hdulibstm32f7xxit.o)
                0x080f1c9c                Dma2Stream0IrqHandler
 .text.SystemInit
                0x080f1cb0       0x8c D:\Work\Howell\MD\S17HOWDSPSW\ACCORD\Trunk\SourceCode\DisplayBoard\HAL_Driver\Release\libHAL_Driver.a(hdulibsystemstm32f7xx.o)
                0x080f1cb0                SystemInit
 .text.FmcNorSramInit
                0x080f1d3c       0xe0 D:\Work\Howell\MD\S17HOWDSPSW\ACCORD\Trunk\SourceCode\DisplayBoard\HAL_Driver\Release\libHAL_Driver.a(hdulibstm32f7xxhalfmc.o)
                0x080f1d3c                FmcNorSramInit
 .text.FmcNorSramTimingInit
                0x080f1e1c       0xb0 D:\Work\Howell\MD\S17HOWDSPSW\ACCORD\Trunk\SourceCode\DisplayBoard\HAL_Driver\Release\libHAL_Driver.a(hdulibstm32f7xxhalfmc.o)
                0x080f1e1c                FmcNorSramTimingInit
 .text.FmcNorSramExtendedTimingInit
                0x080f1ecc       0x80 D:\Work\Howell\MD\S17HOWDSPSW\ACCORD\Trunk\SourceCode\DisplayBoard\HAL_Driver\Release\libHAL_Driver.a(hdulibstm32f7xxhalfmc.o)
                0x080f1ecc                FmcNorSramExtendedTimingInit
 .text.FmcSdramInit
                0x080f1f4c       0xe4 D:\Work\Howell\MD\S17HOWDSPSW\ACCORD\Trunk\SourceCode\DisplayBoard\HAL_Driver\Release\libHAL_Driver.a(hdulibstm32f7xxhalfmc.o)
                0x080f1f4c                FmcSdramInit
 .text.FmcSdramTimingInit
                0x080f2030      0x100 D:\Work\Howell\MD\S17HOWDSPSW\ACCORD\Trunk\SourceCode\DisplayBoard\HAL_Driver\Release\libHAL_Driver.a(hdulibstm32f7xxhalfmc.o)
                0x080f2030                FmcSdramTimingInit
 .text.FmcSdramSendCommand
                0x080f2130       0x84 D:\Work\Howell\MD\S17HOWDSPSW\ACCORD\Trunk\SourceCode\DisplayBoard\HAL_Driver\Release\libHAL_Driver.a(hdulibstm32f7xxhalfmc.o)
                0x080f2130                FmcSdramSendCommand
 .text.FmcSdramProgramRefreshRate
                0x080f21b4       0x28 D:\Work\Howell\MD\S17HOWDSPSW\ACCORD\Trunk\SourceCode\DisplayBoard\HAL_Driver\Release\libHAL_Driver.a(hdulibstm32f7xxhalfmc.o)
                0x080f21b4                FmcSdramProgramRefreshRate
 .text.ConfigSetConfig
                0x080f21dc       0x44 D:\Work\Howell\MD\S17HOWDSPSW\ACCORD\Trunk\SourceCode\DisplayBoard\WIDGETS\Release\libWIDGETS.a(hdudispfconfig.o)
                0x080f21dc                ConfigSetConfig
 .text.Pu8FindCharBitMap
                0x080f2220       0x64 D:\Work\Howell\MD\S17HOWDSPSW\ACCORD\Trunk\SourceCode\DisplayBoard\WIDGETS\Release\libWIDGETS.a(hdudispffonts.o)
 .text.Pu8GetCharBitMap
                0x080f2284       0x38 D:\Work\Howell\MD\S17HOWDSPSW\ACCORD\Trunk\SourceCode\DisplayBoard\WIDGETS\Release\libWIDGETS.a(hdudispffonts.o)
                0x080f2284                Pu8GetCharBitMap
 .text.PsGetCharInfo
                0x080f22bc       0x64 D:\Work\Howell\MD\S17HOWDSPSW\ACCORD\Trunk\SourceCode\DisplayBoard\WIDGETS\Release\libWIDGETS.a(hdudispffonts.o)
                0x080f22bc                PsGetCharInfo
 .text.FontsGetFont
                0x080f2320       0xf4 D:\Work\Howell\MD\S17HOWDSPSW\ACCORD\Trunk\SourceCode\DisplayBoard\WIDGETS\Release\libWIDGETS.a(hdudispffonts.o)
                0x080f2320                FontsGetFont
 .text.FontsGetCharWidth
                0x080f2414       0x54 D:\Work\Howell\MD\S17HOWDSPSW\ACCORD\Trunk\SourceCode\DisplayBoard\WIDGETS\Release\libWIDGETS.a(hdudispffonts.o)
                0x080f2414                FontsGetCharWidth
 .text.FontsGetFontHeight
                0x080f2468       0x38 D:\Work\Howell\MD\S17HOWDSPSW\ACCORD\Trunk\SourceCode\DisplayBoard\WIDGETS\Release\libWIDGETS.a(hdudispffonts.o)
                0x080f2468                FontsGetFontHeight
 .text.FontsGetStringWidth
                0x080f24a0       0x60 D:\Work\Howell\MD\S17HOWDSPSW\ACCORD\Trunk\SourceCode\DisplayBoard\WIDGETS\Release\libWIDGETS.a(hdudispffonts.o)
                0x080f24a0                FontsGetStringWidth
 .text.BargraphAllocat
                0x080f2500      0x144 D:\Work\Howell\MD\S17HOWDSPSW\ACCORD\Trunk\SourceCode\DisplayBoard\WIDGETS\Release\libWIDGETS.a(hdudispfbargraphs.o)
                0x080f2500                BargraphAllocat
 .text.BargraphUpdate
                0x080f2644      0x18c D:\Work\Howell\MD\S17HOWDSPSW\ACCORD\Trunk\SourceCode\DisplayBoard\WIDGETS\Release\libWIDGETS.a(hdudispfbargraphs.o)
                0x080f2644                BargraphUpdate
 .text.BargraphDraw
                0x080f27d0      0x3cc D:\Work\Howell\MD\S17HOWDSPSW\ACCORD\Trunk\SourceCode\DisplayBoard\WIDGETS\Release\libWIDGETS.a(hdudispfbargraphs.o)
                0x080f27d0                BargraphDraw
 .text.BargraphClear
                0x080f2b9c       0x44 D:\Work\Howell\MD\S17HOWDSPSW\ACCORD\Trunk\SourceCode\DisplayBoard\WIDGETS\Release\libWIDGETS.a(hdudispfbargraphs.o)
                0x080f2b9c                BargraphClear
 .text.CarrotGraphAllocat
                0x080f2be0      0x2ec D:\Work\Howell\MD\S17HOWDSPSW\ACCORD\Trunk\SourceCode\DisplayBoard\WIDGETS\Release\libWIDGETS.a(hdudispfcarrotgraph.o)
                0x080f2be0                CarrotGraphAllocat
 .text.CarrotGraphUpdate
                0x080f2ecc      0x220 D:\Work\Howell\MD\S17HOWDSPSW\ACCORD\Trunk\SourceCode\DisplayBoard\WIDGETS\Release\libWIDGETS.a(hdudispfcarrotgraph.o)
                0x080f2ecc                CarrotGraphUpdate
 .text.CarrotGraphDraw
                0x080f30ec      0x15c D:\Work\Howell\MD\S17HOWDSPSW\ACCORD\Trunk\SourceCode\DisplayBoard\WIDGETS\Release\libWIDGETS.a(hdudispfcarrotgraph.o)
                0x080f30ec                CarrotGraphDraw
 .text.CarrotGraphClear
                0x080f3248       0x44 D:\Work\Howell\MD\S17HOWDSPSW\ACCORD\Trunk\SourceCode\DisplayBoard\WIDGETS\Release\libWIDGETS.a(hdudispfcarrotgraph.o)
                0x080f3248                CarrotGraphClear
 .text.NumboxAllocat
                0x080f328c      0x164 D:\Work\Howell\MD\S17HOWDSPSW\ACCORD\Trunk\SourceCode\DisplayBoard\WIDGETS\Release\libWIDGETS.a(hdudispfnumbox.o)
                0x080f328c                NumboxAllocat
 .text.NumboxUpdate
                0x080f33f0      0x1c4 D:\Work\Howell\MD\S17HOWDSPSW\ACCORD\Trunk\SourceCode\DisplayBoard\WIDGETS\Release\libWIDGETS.a(hdudispfnumbox.o)
                0x080f33f0                NumboxUpdate
 .text.NumboxDraw
                0x080f35b4      0x100 D:\Work\Howell\MD\S17HOWDSPSW\ACCORD\Trunk\SourceCode\DisplayBoard\WIDGETS\Release\libWIDGETS.a(hdudispfnumbox.o)
                0x080f35b4                NumboxDraw
 .text.NumboxClear
                0x080f36b4       0x44 D:\Work\Howell\MD\S17HOWDSPSW\ACCORD\Trunk\SourceCode\DisplayBoard\WIDGETS\Release\libWIDGETS.a(hdudispfnumbox.o)
                0x080f36b4                NumboxClear
 .text.VFreeVertList
                0x080f36f8       0x28 D:\Work\Howell\MD\S17HOWDSPSW\ACCORD\Trunk\SourceCode\DisplayBoard\WIDGETS\Release\libWIDGETS.a(hdudispfpolygon1.o)
 .text.PsAllocVert
                0x080f3720       0x94 D:\Work\Howell\MD\S17HOWDSPSW\ACCORD\Trunk\SourceCode\DisplayBoard\WIDGETS\Release\libWIDGETS.a(hdudispfpolygon1.o)
 .text.SpFindLine
                0x080f37b4       0xd4 D:\Work\Howell\MD\S17HOWDSPSW\ACCORD\Trunk\SourceCode\DisplayBoard\WIDGETS\Release\libWIDGETS.a(hdudispfpolygon1.o)
 .text.VInsertVert
                0x080f3888       0xbc D:\Work\Howell\MD\S17HOWDSPSW\ACCORD\Trunk\SourceCode\DisplayBoard\WIDGETS\Release\libWIDGETS.a(hdudispfpolygon1.o)
 .text.VBuildVertList
                0x080f3944       0x80 D:\Work\Howell\MD\S17HOWDSPSW\ACCORD\Trunk\SourceCode\DisplayBoard\WIDGETS\Release\libWIDGETS.a(hdudispfpolygon1.o)
 .text.VFreeEdgeList
                0x080f39c4       0x34 D:\Work\Howell\MD\S17HOWDSPSW\ACCORD\Trunk\SourceCode\DisplayBoard\WIDGETS\Release\libWIDGETS.a(hdudispfpolygon1.o)
 .text.PsAllocEdge
                0x080f39f8       0x84 D:\Work\Howell\MD\S17HOWDSPSW\ACCORD\Trunk\SourceCode\DisplayBoard\WIDGETS\Release\libWIDGETS.a(hdudispfpolygon1.o)
 .text.VEdgeInsert
                0x080f3a7c       0xa0 D:\Work\Howell\MD\S17HOWDSPSW\ACCORD\Trunk\SourceCode\DisplayBoard\WIDGETS\Release\libWIDGETS.a(hdudispfpolygon1.o)
 .text.VEdgeInit
                0x080f3b1c       0xa8 D:\Work\Howell\MD\S17HOWDSPSW\ACCORD\Trunk\SourceCode\DisplayBoard\WIDGETS\Release\libWIDGETS.a(hdudispfpolygon1.o)
 .text.VAddEdges
                0x080f3bc4       0x78 D:\Work\Howell\MD\S17HOWDSPSW\ACCORD\Trunk\SourceCode\DisplayBoard\WIDGETS\Release\libWIDGETS.a(hdudispfpolygon1.o)
 .text.VProcessMagLine
                0x080f3c3c       0xf8 D:\Work\Howell\MD\S17HOWDSPSW\ACCORD\Trunk\SourceCode\DisplayBoard\WIDGETS\Release\libWIDGETS.a(hdudispfpolygon1.o)
 .text.VProcessPairsHR
                0x080f3d34      0x234 D:\Work\Howell\MD\S17HOWDSPSW\ACCORD\Trunk\SourceCode\DisplayBoard\WIDGETS\Release\libWIDGETS.a(hdudispfpolygon1.o)
 .text.VRemoveEdges
                0x080f3f68       0x74 D:\Work\Howell\MD\S17HOWDSPSW\ACCORD\Trunk\SourceCode\DisplayBoard\WIDGETS\Release\libWIDGETS.a(hdudispfpolygon1.o)
 .text.VCalculateIntersections
                0x080f3fdc       0x50 D:\Work\Howell\MD\S17HOWDSPSW\ACCORD\Trunk\SourceCode\DisplayBoard\WIDGETS\Release\libWIDGETS.a(hdudispfpolygon1.o)
 .text.VScanLines
                0x080f402c       0x8c D:\Work\Howell\MD\S17HOWDSPSW\ACCORD\Trunk\SourceCode\DisplayBoard\WIDGETS\Release\libWIDGETS.a(hdudispfpolygon1.o)
 .text.PolygonFillRectTranslate
                0x080f40b8      0x14c D:\Work\Howell\MD\S17HOWDSPSW\ACCORD\Trunk\SourceCode\DisplayBoard\WIDGETS\Release\libWIDGETS.a(hdudispfpolygon1.o)
 .text.PolygonFillRect
                0x080f4204       0x44 D:\Work\Howell\MD\S17HOWDSPSW\ACCORD\Trunk\SourceCode\DisplayBoard\WIDGETS\Release\libWIDGETS.a(hdudispfpolygon1.o)
                0x080f4204                PolygonFillRect
 .text.PolygonFillRectNT
                0x080f4248       0x44 D:\Work\Howell\MD\S17HOWDSPSW\ACCORD\Trunk\SourceCode\DisplayBoard\WIDGETS\Release\libWIDGETS.a(hdudispfpolygon1.o)
                0x080f4248                PolygonFillRectNT
 .text.PolygonDrawFrame
                0x080f428c      0x118 D:\Work\Howell\MD\S17HOWDSPSW\ACCORD\Trunk\SourceCode\DisplayBoard\WIDGETS\Release\libWIDGETS.a(hdudispfpolygon1.o)
                0x080f428c                PolygonDrawFrame
 .text.PolygonDrawPoly
                0x080f43a4       0x4c D:\Work\Howell\MD\S17HOWDSPSW\ACCORD\Trunk\SourceCode\DisplayBoard\WIDGETS\Release\libWIDGETS.a(hdudispfpolygon1.o)
                0x080f43a4                PolygonDrawPoly
 .text.ModulusFunc
                0x080f43f0       0x60 D:\Work\Howell\MD\S17HOWDSPSW\ACCORD\Trunk\SourceCode\DisplayBoard\WIDGETS\Release\libWIDGETS.a(hdudispfpolygon2.o)
 .text.Tan32Func
                0x080f4450       0x58 D:\Work\Howell\MD\S17HOWDSPSW\ACCORD\Trunk\SourceCode\DisplayBoard\WIDGETS\Release\libWIDGETS.a(hdudispfpolygon2.o)
 .text.TangentFunc
                0x080f44a8      0x1e8 D:\Work\Howell\MD\S17HOWDSPSW\ACCORD\Trunk\SourceCode\DisplayBoard\WIDGETS\Release\libWIDGETS.a(hdudispfpolygon2.o)
 .text.InverseTangent
                0x080f4690      0x16c D:\Work\Howell\MD\S17HOWDSPSW\ACCORD\Trunk\SourceCode\DisplayBoard\WIDGETS\Release\libWIDGETS.a(hdudispfpolygon2.o)
 .text.SquareRoot
                0x080f47fc       0x78 D:\Work\Howell\MD\S17HOWDSPSW\ACCORD\Trunk\SourceCode\DisplayBoard\WIDGETS\Release\libWIDGETS.a(hdudispfpolygon2.o)
 .text.ClearElements
                0x080f4874       0x30 D:\Work\Howell\MD\S17HOWDSPSW\ACCORD\Trunk\SourceCode\DisplayBoard\WIDGETS\Release\libWIDGETS.a(hdudispfpolygon2.o)
 .text.AllocateElements
                0x080f48a4       0x60 D:\Work\Howell\MD\S17HOWDSPSW\ACCORD\Trunk\SourceCode\DisplayBoard\WIDGETS\Release\libWIDGETS.a(hdudispfpolygon2.o)
 .text.ClearPolys
                0x080f4904       0x30 D:\Work\Howell\MD\S17HOWDSPSW\ACCORD\Trunk\SourceCode\DisplayBoard\WIDGETS\Release\libWIDGETS.a(hdudispfpolygon2.o)
 .text.PolygonsClear
                0x080f4934       0x10 D:\Work\Howell\MD\S17HOWDSPSW\ACCORD\Trunk\SourceCode\DisplayBoard\WIDGETS\Release\libWIDGETS.a(hdudispfpolygon2.o)
                0x080f4934                PolygonsClear
 .text.PsAllocatePoly
                0x080f4944      0x144 D:\Work\Howell\MD\S17HOWDSPSW\ACCORD\Trunk\SourceCode\DisplayBoard\WIDGETS\Release\libWIDGETS.a(hdudispfpolygon2.o)
 .text.PolygonsPsDuplicate
                0x080f4a88       0xc8 D:\Work\Howell\MD\S17HOWDSPSW\ACCORD\Trunk\SourceCode\DisplayBoard\WIDGETS\Release\libWIDGETS.a(hdudispfpolygon2.o)
                0x080f4a88                PolygonsPsDuplicate
 .text.PolygonsAngle
                0x080f4b50       0xd4 D:\Work\Howell\MD\S17HOWDSPSW\ACCORD\Trunk\SourceCode\DisplayBoard\WIDGETS\Release\libWIDGETS.a(hdudispfpolygon2.o)
 .text.PolygonsvPolarToRect
                0x080f4c24      0x230 D:\Work\Howell\MD\S17HOWDSPSW\ACCORD\Trunk\SourceCode\DisplayBoard\WIDGETS\Release\libWIDGETS.a(hdudispfpolygon2.o)
                0x080f4c24                PolygonsvPolarToRect
 .text.PsGetShape
                0x080f4e54       0xcc D:\Work\Howell\MD\S17HOWDSPSW\ACCORD\Trunk\SourceCode\DisplayBoard\WIDGETS\Release\libWIDGETS.a(hdudispfpolygon2.o)
 .text.VInitPolar
                0x080f4f20      0x2b8 D:\Work\Howell\MD\S17HOWDSPSW\ACCORD\Trunk\SourceCode\DisplayBoard\WIDGETS\Release\libWIDGETS.a(hdudispfpolygon2.o)
 .text.PolygonsPsPolyInit
                0x080f51d8      0x134 D:\Work\Howell\MD\S17HOWDSPSW\ACCORD\Trunk\SourceCode\DisplayBoard\WIDGETS\Release\libWIDGETS.a(hdudispfpolygon2.o)
                0x080f51d8                PolygonsPsPolyInit
 .text.RoundDialAllocat
                0x080f530c      0x2ec D:\Work\Howell\MD\S17HOWDSPSW\ACCORD\Trunk\SourceCode\DisplayBoard\WIDGETS\Release\libWIDGETS.a(hdudispfrounddial.o)
                0x080f530c                RoundDialAllocat
 .text.RoundDialUpdate
                0x080f55f8      0x3ec D:\Work\Howell\MD\S17HOWDSPSW\ACCORD\Trunk\SourceCode\DisplayBoard\WIDGETS\Release\libWIDGETS.a(hdudispfrounddial.o)
                0x080f55f8                RoundDialUpdate
 .text.RoundDialDraw
                0x080f59e4      0x158 D:\Work\Howell\MD\S17HOWDSPSW\ACCORD\Trunk\SourceCode\DisplayBoard\WIDGETS\Release\libWIDGETS.a(hdudispfrounddial.o)
                0x080f59e4                RoundDialDraw
 .text.RoundDialClear
                0x080f5b3c       0x44 D:\Work\Howell\MD\S17HOWDSPSW\ACCORD\Trunk\SourceCode\DisplayBoard\WIDGETS\Release\libWIDGETS.a(hdudispfrounddial.o)
                0x080f5b3c                RoundDialClear
 .text.TextDrawChar
                0x080f5b80      0x190 D:\Work\Howell\MD\S17HOWDSPSW\ACCORD\Trunk\SourceCode\DisplayBoard\WIDGETS\Release\libWIDGETS.a(hdudispftext.o)
                0x080f5b80                TextDrawChar
 .text.DispStringAt
                0x080f5d10       0xec D:\Work\Howell\MD\S17HOWDSPSW\ACCORD\Trunk\SourceCode\DisplayBoard\WIDGETS\Release\libWIDGETS.a(hdudispftext.o)
 .text.TextDispString
                0x080f5dfc      0x104 D:\Work\Howell\MD\S17HOWDSPSW\ACCORD\Trunk\SourceCode\DisplayBoard\WIDGETS\Release\libWIDGETS.a(hdudispftext.o)
                0x080f5dfc                TextDispString
 .text.TextAllocat
                0x080f5f00       0x8c D:\Work\Howell\MD\S17HOWDSPSW\ACCORD\Trunk\SourceCode\DisplayBoard\WIDGETS\Release\libWIDGETS.a(hdudispftext.o)
                0x080f5f00                TextAllocat
 .text.TextDraw
                0x080f5f8c       0x74 D:\Work\Howell\MD\S17HOWDSPSW\ACCORD\Trunk\SourceCode\DisplayBoard\WIDGETS\Release\libWIDGETS.a(hdudispftext.o)
                0x080f5f8c                TextDraw
 .text.TextUpdate
                0x080f6000       0x38 D:\Work\Howell\MD\S17HOWDSPSW\ACCORD\Trunk\SourceCode\DisplayBoard\WIDGETS\Release\libWIDGETS.a(hdudispftext.o)
                0x080f6000                TextUpdate
 .text.TextClear
                0x080f6038       0x24 D:\Work\Howell\MD\S17HOWDSPSW\ACCORD\Trunk\SourceCode\DisplayBoard\WIDGETS\Release\libWIDGETS.a(hdudispftext.o)
                0x080f6038                TextClear
 .text.TextDrawPDI
                0x080f605c      0x1f4 D:\Work\Howell\MD\S17HOWDSPSW\ACCORD\Trunk\SourceCode\DisplayBoard\WIDGETS\Release\libWIDGETS.a(hdudispftext.o)
                0x080f605c                TextDrawPDI
 .text.TextAllocatPdi
                0x080f6250       0xc8 D:\Work\Howell\MD\S17HOWDSPSW\ACCORD\Trunk\SourceCode\DisplayBoard\WIDGETS\Release\libWIDGETS.a(hdudispftext.o)
                0x080f6250                TextAllocatPdi
 .text.StrLen   0x080f6318       0x3c D:\Work\Howell\MD\S17HOWDSPSW\ACCORD\Trunk\SourceCode\DisplayBoard\WIDGETS\Release\libWIDGETS.a(hdudispftextbox.o)
                0x080f6318                StrLen
 .text.TextBoxInit
                0x080f6354      0x370 D:\Work\Howell\MD\S17HOWDSPSW\ACCORD\Trunk\SourceCode\DisplayBoard\WIDGETS\Release\libWIDGETS.a(hdudispftextbox.o)
                0x080f6354                TextBoxInit
 .text.TextBoxPdiAllocate
                0x080f66c4      0x334 D:\Work\Howell\MD\S17HOWDSPSW\ACCORD\Trunk\SourceCode\DisplayBoard\WIDGETS\Release\libWIDGETS.a(hdudispftextbox.o)
                0x080f66c4                TextBoxPdiAllocate
 .text.TBPrint  0x080f69f8      0x13c D:\Work\Howell\MD\S17HOWDSPSW\ACCORD\Trunk\SourceCode\DisplayBoard\WIDGETS\Release\libWIDGETS.a(hdudispftextbox.o)
 .text.LBPrintMore
                0x080f6b34       0xc8 D:\Work\Howell\MD\S17HOWDSPSW\ACCORD\Trunk\SourceCode\DisplayBoard\WIDGETS\Release\libWIDGETS.a(hdudispftextbox.o)
 .text.LBPrint  0x080f6bfc      0x124 D:\Work\Howell\MD\S17HOWDSPSW\ACCORD\Trunk\SourceCode\DisplayBoard\WIDGETS\Release\libWIDGETS.a(hdudispftextbox.o)
 .text.TBDisplayString
                0x080f6d20      0x260 D:\Work\Howell\MD\S17HOWDSPSW\ACCORD\Trunk\SourceCode\DisplayBoard\WIDGETS\Release\libWIDGETS.a(hdudispftextbox.o)
 .text.TextBoxDraw
                0x080f6f80      0x224 D:\Work\Howell\MD\S17HOWDSPSW\ACCORD\Trunk\SourceCode\DisplayBoard\WIDGETS\Release\libWIDGETS.a(hdudispftextbox.o)
                0x080f6f80                TextBoxDraw
 .text.TextBoxOn
                0x080f71a4       0x34 D:\Work\Howell\MD\S17HOWDSPSW\ACCORD\Trunk\SourceCode\DisplayBoard\WIDGETS\Release\libWIDGETS.a(hdudispftextbox.o)
                0x080f71a4                TextBoxOn
 .text.TextBoxOff
                0x080f71d8       0x34 D:\Work\Howell\MD\S17HOWDSPSW\ACCORD\Trunk\SourceCode\DisplayBoard\WIDGETS\Release\libWIDGETS.a(hdudispftextbox.o)
                0x080f71d8                TextBoxOff
 .text.TextBoxFlash
                0x080f720c       0x34 D:\Work\Howell\MD\S17HOWDSPSW\ACCORD\Trunk\SourceCode\DisplayBoard\WIDGETS\Release\libWIDGETS.a(hdudispftextbox.o)
                0x080f720c                TextBoxFlash
 .text.TextBoxNoFlash
                0x080f7240       0x34 D:\Work\Howell\MD\S17HOWDSPSW\ACCORD\Trunk\SourceCode\DisplayBoard\WIDGETS\Release\libWIDGETS.a(hdudispftextbox.o)
                0x080f7240                TextBoxNoFlash
 .text.TextBoxClear
                0x080f7274       0x48 D:\Work\Howell\MD\S17HOWDSPSW\ACCORD\Trunk\SourceCode\DisplayBoard\WIDGETS\Release\libWIDGETS.a(hdudispftextbox.o)
                0x080f7274                TextBoxClear
 .text.TextBoxPdiDraw
                0x080f72bc      0x414 D:\Work\Howell\MD\S17HOWDSPSW\ACCORD\Trunk\SourceCode\DisplayBoard\WIDGETS\Release\libWIDGETS.a(hdudispftextbox.o)
                0x080f72bc                TextBoxPdiDraw
 .text.TBPrintPDI
                0x080f76d0      0x160 D:\Work\Howell\MD\S17HOWDSPSW\ACCORD\Trunk\SourceCode\DisplayBoard\WIDGETS\Release\libWIDGETS.a(hdudispftextbox.o)
 .text.TBDisplayStringPDI
                0x080f7830      0x16c D:\Work\Howell\MD\S17HOWDSPSW\ACCORD\Trunk\SourceCode\DisplayBoard\WIDGETS\Release\libWIDGETS.a(hdudispftextbox.o)
 .text.FindTimerColor
                0x080f799c       0x44 D:\Work\Howell\MD\S17HOWDSPSW\ACCORD\Trunk\SourceCode\DisplayBoard\WIDGETS\Release\libWIDGETS.a(hdudispftimers.o)
 .text.FindTimerParam
                0x080f79e0       0x64 D:\Work\Howell\MD\S17HOWDSPSW\ACCORD\Trunk\SourceCode\DisplayBoard\WIDGETS\Release\libWIDGETS.a(hdudispftimers.o)
 .text.AppExTimerDraw
                0x080f7a44      0x5d4 D:\Work\Howell\MD\S17HOWDSPSW\ACCORD\Trunk\SourceCode\DisplayBoard\WIDGETS\Release\libWIDGETS.a(hdudispftimers.o)
                0x080f7a44                AppExTimerDraw
 .text.RedXGauge
                0x080f8018       0xd8 D:\Work\Howell\MD\S17HOWDSPSW\ACCORD\Trunk\SourceCode\DisplayBoard\WIDGETS\Release\libWIDGETS.a(hdudispfwidgets.o)
                0x080f8018                RedXGauge
 .text.RedXNumber
                0x080f80f0       0x1c D:\Work\Howell\MD\S17HOWDSPSW\ACCORD\Trunk\SourceCode\DisplayBoard\WIDGETS\Release\libWIDGETS.a(hdudispfwidgets.o)
 .text.WidgetsRedX
                0x080f810c       0xf0 D:\Work\Howell\MD\S17HOWDSPSW\ACCORD\Trunk\SourceCode\DisplayBoard\WIDGETS\Release\libWIDGETS.a(hdudispfwidgets.o)
                0x080f810c                WidgetsRedX
 .text.WidgetsRGB444ToRGB888
                0x080f81fc       0x84 D:\Work\Howell\MD\S17HOWDSPSW\ACCORD\Trunk\SourceCode\DisplayBoard\WIDGETS\Release\libWIDGETS.a(hdudispfwidgets.o)
                0x080f81fc                WidgetsRGB444ToRGB888
 .text.WidgetsDotAddr
                0x080f8280       0x44 D:\Work\Howell\MD\S17HOWDSPSW\ACCORD\Trunk\SourceCode\DisplayBoard\WIDGETS\Release\libWIDGETS.a(hdudispfwidgets.o)
                0x080f8280                WidgetsDotAddr
 .text.WidgetsUpdateRT
                0x080f82c4      0x114 D:\Work\Howell\MD\S17HOWDSPSW\ACCORD\Trunk\SourceCode\DisplayBoard\WIDGETS\Release\libWIDGETS.a(hdudispfwidgets.o)
                0x080f82c4                WidgetsUpdateRT
 .text.WidgetsNumUpdate
                0x080f83d8       0x98 D:\Work\Howell\MD\S17HOWDSPSW\ACCORD\Trunk\SourceCode\DisplayBoard\WIDGETS\Release\libWIDGETS.a(hdudispfwidgets.o)
                0x080f83d8                WidgetsNumUpdate
 .text.BinasByte
                0x080f8470       0xa8 D:\Work\Howell\MD\S17HOWDSPSW\ACCORD\Trunk\SourceCode\DisplayBoard\WIDGETS\Release\libWIDGETS.a(hdudispfbinascii.o)
 .text.BinasByteFormatInfo
                0x080f8518      0x33c D:\Work\Howell\MD\S17HOWDSPSW\ACCORD\Trunk\SourceCode\DisplayBoard\WIDGETS\Release\libWIDGETS.a(hdudispfbinascii.o)
                0x080f8518                BinasByteFormatInfo
 .text.BinasByteFormatInfoBE
                0x080f8854       0x70 D:\Work\Howell\MD\S17HOWDSPSW\ACCORD\Trunk\SourceCode\DisplayBoard\WIDGETS\Release\libWIDGETS.a(hdudispfbinascii.o)
                0x080f8854                BinasByteFormatInfoBE
 .text.BinasGetWidth
                0x080f88c4       0x20 D:\Work\Howell\MD\S17HOWDSPSW\ACCORD\Trunk\SourceCode\DisplayBoard\WIDGETS\Release\libWIDGETS.a(hdudispfbinascii.o)
                0x080f88c4                BinasGetWidth
 .text.LookupTableLookup
                0x080f88e4      0x260 D:\Work\Howell\MD\S17HOWDSPSW\ACCORD\Trunk\SourceCode\DisplayBoard\WIDGETS\Release\libWIDGETS.a(hdudispflookup.o)
                0x080f88e4                LookupTableLookup
 .text.RterrWidget
                0x080f8b44      0x194 D:\Work\Howell\MD\S17HOWDSPSW\ACCORD\Trunk\SourceCode\DisplayBoard\WIDGETS\Release\libWIDGETS.a(hdudispfrterror.o)
                0x080f8b44                RterrWidget
 .text.TimerInstall
                0x080f8cd8       0xd0 D:\Work\Howell\MD\S17HOWDSPSW\ACCORD\Trunk\SourceCode\DisplayBoard\WIDGETS\Release\libWIDGETS.a(hdudispftimer.o)
                0x080f8cd8                TimerInstall
 .text.TimerDriver
                0x080f8da8       0x4c D:\Work\Howell\MD\S17HOWDSPSW\ACCORD\Trunk\SourceCode\DisplayBoard\WIDGETS\Release\libWIDGETS.a(hdudispftimer.o)
                0x080f8da8                TimerDriver
 .text.TimerReset
                0x080f8df4       0x30 D:\Work\Howell\MD\S17HOWDSPSW\ACCORD\Trunk\SourceCode\DisplayBoard\WIDGETS\Release\libWIDGETS.a(hdudispftimer.o)
                0x080f8df4                TimerReset
 .text.TimerPreset
                0x080f8e24       0x30 D:\Work\Howell\MD\S17HOWDSPSW\ACCORD\Trunk\SourceCode\DisplayBoard\WIDGETS\Release\libWIDGETS.a(hdudispftimer.o)
                0x080f8e24                TimerPreset
 .text.ArmCosQ15
                0x080f8e54       0xa8 D:\Work\Howell\MD\S17HOWDSPSW\ACCORD\Trunk\SourceCode\DisplayBoard\WIDGETS\Release\libWIDGETS.a(hdudispfbfarmcosq15.o)
                0x080f8e54                ArmCosQ15
 .text.ArmSinQ15
                0x080f8efc       0x8c D:\Work\Howell\MD\S17HOWDSPSW\ACCORD\Trunk\SourceCode\DisplayBoard\WIDGETS\Release\libWIDGETS.a(hdudispfbfarmsinq15.o)
                0x080f8efc                ArmSinQ15
 .text.__libc_init_array
                0x080f8f88       0x50 c:/ac6/systemworkbench/plugins/fr.ac6.mcu.externaltools.arm-none.win32_1.13.2.201705091103/tools/compiler/bin/../lib/gcc/arm-none-eabi/5.4.1/../../../../arm-none-eabi/lib/armv7e-m/fpu/fpv5-sp-d16\libc.a(lib_a-init.o)
                0x080f8f88                __libc_init_array
 .text.memset   0x080f8fd8       0x9c c:/ac6/systemworkbench/plugins/fr.ac6.mcu.externaltools.arm-none.win32_1.13.2.201705091103/tools/compiler/bin/../lib/gcc/arm-none-eabi/5.4.1/../../../../arm-none-eabi/lib/armv7e-m/fpu/fpv5-sp-d16\libc.a(lib_a-memset.o)
                0x080f8fd8                memset
 .text.startup.register_fini
                0x080f9074       0x14 c:/ac6/systemworkbench/plugins/fr.ac6.mcu.externaltools.arm-none.win32_1.13.2.201705091103/tools/compiler/bin/../lib/gcc/arm-none-eabi/5.4.1/../../../../arm-none-eabi/lib/armv7e-m/fpu/fpv5-sp-d16\libc.a(lib_a-__call_atexit.o)
 .text.atexit   0x080f9088        0xc c:/ac6/systemworkbench/plugins/fr.ac6.mcu.externaltools.arm-none.win32_1.13.2.201705091103/tools/compiler/bin/../lib/gcc/arm-none-eabi/5.4.1/../../../../arm-none-eabi/lib/armv7e-m/fpu/fpv5-sp-d16\libc.a(lib_a-atexit.o)
                0x080f9088                atexit
 .text.__libc_fini_array
                0x080f9094       0x28 c:/ac6/systemworkbench/plugins/fr.ac6.mcu.externaltools.arm-none.win32_1.13.2.201705091103/tools/compiler/bin/../lib/gcc/arm-none-eabi/5.4.1/../../../../arm-none-eabi/lib/armv7e-m/fpu/fpv5-sp-d16\libc.a(lib_a-fini.o)
                0x080f9094                __libc_fini_array
 .text.__register_exitproc
                0x080f90bc       0xa4 c:/ac6/systemworkbench/plugins/fr.ac6.mcu.externaltools.arm-none.win32_1.13.2.201705091103/tools/compiler/bin/../lib/gcc/arm-none-eabi/5.4.1/../../../../arm-none-eabi/lib/armv7e-m/fpu/fpv5-sp-d16\libc.a(lib_a-__atexit.o)
                0x080f90bc                __register_exitproc
 *(.glue_7)
 .glue_7        0x080f9160        0x0 linker stubs
 *(.glue_7t)
 .glue_7t       0x080f9160        0x0 linker stubs
 *(.eh_frame)
 .eh_frame      0x080f9160        0x0 c:/ac6/systemworkbench/plugins/fr.ac6.mcu.externaltools.arm-none.win32_1.13.2.201705091103/tools/compiler/bin/../lib/gcc/arm-none-eabi/5.4.1/armv7e-m/fpu/fpv5-sp-d16/crtbegin.o
 *(.init)
 .init          0x080f9160        0x4 c:/ac6/systemworkbench/plugins/fr.ac6.mcu.externaltools.arm-none.win32_1.13.2.201705091103/tools/compiler/bin/../lib/gcc/arm-none-eabi/5.4.1/armv7e-m/fpu/fpv5-sp-d16/crti.o
                0x080f9160                _init
 .init          0x080f9164        0x8 c:/ac6/systemworkbench/plugins/fr.ac6.mcu.externaltools.arm-none.win32_1.13.2.201705091103/tools/compiler/bin/../lib/gcc/arm-none-eabi/5.4.1/armv7e-m/fpu/fpv5-sp-d16/crtn.o
 *(.fini)
 .fini          0x080f916c        0x4 c:/ac6/systemworkbench/plugins/fr.ac6.mcu.externaltools.arm-none.win32_1.13.2.201705091103/tools/compiler/bin/../lib/gcc/arm-none-eabi/5.4.1/armv7e-m/fpu/fpv5-sp-d16/crti.o
                0x080f916c                _fini
 .fini          0x080f9170        0x8 c:/ac6/systemworkbench/plugins/fr.ac6.mcu.externaltools.arm-none.win32_1.13.2.201705091103/tools/compiler/bin/../lib/gcc/arm-none-eabi/5.4.1/armv7e-m/fpu/fpv5-sp-d16/crtn.o
                0x080f9178                . = ALIGN (0x4)
                0x080f9178                _etext = .

.vfp11_veneer   0x080f9178        0x0
 .vfp11_veneer  0x080f9178        0x0 linker stubs

.v4_bx          0x080f9178        0x0
 .v4_bx         0x080f9178        0x0 linker stubs

.iplt           0x080f9178        0x0
 .iplt          0x080f9178        0x0 c:/ac6/systemworkbench/plugins/fr.ac6.mcu.externaltools.arm-none.win32_1.13.2.201705091103/tools/compiler/bin/../lib/gcc/arm-none-eabi/5.4.1/armv7e-m/fpu/fpv5-sp-d16/crtbegin.o

.rodata         0x080f9178    0x73c6c
                0x080f9178                . = ALIGN (0x4)
 *(.rodata)
 .rodata        0x080f9178       0x2d app/hdudispfgrapp.o
 *fill*         0x080f91a5        0x3 
 .rodata        0x080f91a8       0x15 app/hdudispfmdff.o
 *fill*         0x080f91bd        0x3 
 .rodata        0x080f91c0       0x16 app/hdudispfmenu.o
 *fill*         0x080f91d6        0x2 
 .rodata        0x080f91d8      0xb39 app/hdudispfpdicheck.o
 *fill*         0x080f9d11        0x3 
 .rodata        0x080f9d14       0x28 src/hdudispfcbit.o
 .rodata        0x080f9d3c       0x72 D:\Work\Howell\MD\S17HOWDSPSW\ACCORD\Trunk\SourceCode\DisplayBoard\COMMON\Release\libCOMMON.a(hdudispfa429.o)
 *fill*         0x080f9dae        0x2 
 .rodata        0x080f9db0       0x2e D:\Work\Howell\MD\S17HOWDSPSW\ACCORD\Trunk\SourceCode\DisplayBoard\COMMON\Release\libCOMMON.a(hdudispfcas.o)
 *fill*         0x080f9dde        0x2 
 .rodata        0x080f9de0       0x1b D:\Work\Howell\MD\S17HOWDSPSW\ACCORD\Trunk\SourceCode\DisplayBoard\WIDGETS\Release\libWIDGETS.a(hdudispfbargraphs.o)
 *fill*         0x080f9dfb        0x1 
 .rodata        0x080f9dfc       0x1d D:\Work\Howell\MD\S17HOWDSPSW\ACCORD\Trunk\SourceCode\DisplayBoard\WIDGETS\Release\libWIDGETS.a(hdudispfcarrotgraph.o)
 *fill*         0x080f9e19        0x3 
 .rodata        0x080f9e1c       0x18 D:\Work\Howell\MD\S17HOWDSPSW\ACCORD\Trunk\SourceCode\DisplayBoard\WIDGETS\Release\libWIDGETS.a(hdudispfnumbox.o)
 .rodata        0x080f9e34       0x1a D:\Work\Howell\MD\S17HOWDSPSW\ACCORD\Trunk\SourceCode\DisplayBoard\WIDGETS\Release\libWIDGETS.a(hdudispfpolygon1.o)
 *fill*         0x080f9e4e        0x2 
 .rodata        0x080f9e50       0x97 D:\Work\Howell\MD\S17HOWDSPSW\ACCORD\Trunk\SourceCode\DisplayBoard\WIDGETS\Release\libWIDGETS.a(hdudispfpolygon2.o)
 *fill*         0x080f9ee7        0x1 
 .rodata        0x080f9ee8       0x1b D:\Work\Howell\MD\S17HOWDSPSW\ACCORD\Trunk\SourceCode\DisplayBoard\WIDGETS\Release\libWIDGETS.a(hdudispfrounddial.o)
 *fill*         0x080f9f03        0x1 
 .rodata        0x080f9f04       0x16 D:\Work\Howell\MD\S17HOWDSPSW\ACCORD\Trunk\SourceCode\DisplayBoard\WIDGETS\Release\libWIDGETS.a(hdudispftext.o)
 *fill*         0x080f9f1a        0x2 
 .rodata        0x080f9f1c       0x19 D:\Work\Howell\MD\S17HOWDSPSW\ACCORD\Trunk\SourceCode\DisplayBoard\WIDGETS\Release\libWIDGETS.a(hdudispftextbox.o)
 *fill*         0x080f9f35        0x3 
 .rodata        0x080f9f38       0x4b D:\Work\Howell\MD\S17HOWDSPSW\ACCORD\Trunk\SourceCode\DisplayBoard\WIDGETS\Release\libWIDGETS.a(hdudispftimers.o)
 *fill*         0x080f9f83        0x1 
 .rodata        0x080f9f84       0x19 D:\Work\Howell\MD\S17HOWDSPSW\ACCORD\Trunk\SourceCode\DisplayBoard\WIDGETS\Release\libWIDGETS.a(hdudispftimer.o)
 *(.rodata*)
 *fill*         0x080f9f9d        0x3 
 .rodata.Photo_table
                0x080f9fa0        0x8 BSP/hdudispfpwm.o
                0x080f9fa0                Photo_table
 .rodata.Abc_font_18haa4_0010
                0x080f9fa8       0x6c fonts/hdudispfConsolas18hAA4.o
                0x080f9fa8                Abc_font_18haa4_0010
 .rodata.Abc_font_18haa4_0011
                0x080fa014       0x6c fonts/hdudispfConsolas18hAA4.o
                0x080fa014                Abc_font_18haa4_0011
 .rodata.Abc_font_18haa4_0012
                0x080fa080       0x6c fonts/hdudispfConsolas18hAA4.o
                0x080fa080                Abc_font_18haa4_0012
 .rodata.Abc_font_18haa4_0013
                0x080fa0ec       0x6c fonts/hdudispfConsolas18hAA4.o
                0x080fa0ec                Abc_font_18haa4_0013
 .rodata.Abc_font_18haa4_0014
                0x080fa158       0x6c fonts/hdudispfConsolas18hAA4.o
                0x080fa158                Abc_font_18haa4_0014
 .rodata.Abc_font_18haa4_0015
                0x080fa1c4       0x6c fonts/hdudispfConsolas18hAA4.o
                0x080fa1c4                Abc_font_18haa4_0015
 .rodata.Abc_font_18haa4_0016
                0x080fa230       0x6c fonts/hdudispfConsolas18hAA4.o
                0x080fa230                Abc_font_18haa4_0016
 .rodata.Abc_font_18haa4_0017
                0x080fa29c       0x24 fonts/hdudispfConsolas18hAA4.o
                0x080fa29c                Abc_font_18haa4_0017
 .rodata.Abc_font_18haa4_0018
                0x080fa2c0       0x24 fonts/hdudispfConsolas18hAA4.o
                0x080fa2c0                Abc_font_18haa4_0018
 .rodata.Abc_font_18haa4_0019
                0x080fa2e4       0x5a fonts/hdudispfConsolas18hAA4.o
                0x080fa2e4                Abc_font_18haa4_0019
 *fill*         0x080fa33e        0x2 
 .rodata.Abc_font_18haa4_001a
                0x080fa340       0x5a fonts/hdudispfConsolas18hAA4.o
                0x080fa340                Abc_font_18haa4_001a
 *fill*         0x080fa39a        0x2 
 .rodata.Abc_font_18haa4_001b
                0x080fa39c       0x5a fonts/hdudispfConsolas18hAA4.o
                0x080fa39c                Abc_font_18haa4_001b
 *fill*         0x080fa3f6        0x2 
 .rodata.Abc_font_18haa4_001c
                0x080fa3f8       0x5a fonts/hdudispfConsolas18hAA4.o
                0x080fa3f8                Abc_font_18haa4_001c
 *fill*         0x080fa452        0x2 
 .rodata.Abc_font_18haa4_001d
                0x080fa454       0x5a fonts/hdudispfConsolas18hAA4.o
                0x080fa454                Abc_font_18haa4_001d
 *fill*         0x080fa4ae        0x2 
 .rodata.Abc_font_18haa4_001e
                0x080fa4b0       0x5a fonts/hdudispfConsolas18hAA4.o
                0x080fa4b0                Abc_font_18haa4_001e
 *fill*         0x080fa50a        0x2 
 .rodata.Abc_font_18haa4_001f
                0x080fa50c       0x5a fonts/hdudispfConsolas18hAA4.o
                0x080fa50c                Abc_font_18haa4_001f
 *fill*         0x080fa566        0x2 
 .rodata.Abc_font_18haa4_0020
                0x080fa568       0x6c fonts/hdudispfConsolas18hAA4.o
                0x080fa568                Abc_font_18haa4_0020
 .rodata.Abc_font_18haa4_0021
                0x080fa5d4       0x6c fonts/hdudispfConsolas18hAA4.o
                0x080fa5d4                Abc_font_18haa4_0021
 .rodata.Abc_font_18haa4_0022
                0x080fa640       0x6c fonts/hdudispfConsolas18hAA4.o
                0x080fa640                Abc_font_18haa4_0022
 .rodata.Abc_font_18haa4_0023
                0x080fa6ac       0x6c fonts/hdudispfConsolas18hAA4.o
                0x080fa6ac                Abc_font_18haa4_0023
 .rodata.Abc_font_18haa4_0024
                0x080fa718       0x6c fonts/hdudispfConsolas18hAA4.o
                0x080fa718                Abc_font_18haa4_0024
 .rodata.Abc_font_18haa4_0025
                0x080fa784       0x6c fonts/hdudispfConsolas18hAA4.o
                0x080fa784                Abc_font_18haa4_0025
 .rodata.Abc_font_18haa4_0026
                0x080fa7f0       0x6c fonts/hdudispfConsolas18hAA4.o
                0x080fa7f0                Abc_font_18haa4_0026
 .rodata.Abc_font_18haa4_0027
                0x080fa85c       0x6c fonts/hdudispfConsolas18hAA4.o
                0x080fa85c                Abc_font_18haa4_0027
 .rodata.Abc_font_18haa4_0028
                0x080fa8c8       0x6c fonts/hdudispfConsolas18hAA4.o
                0x080fa8c8                Abc_font_18haa4_0028
 .rodata.Abc_font_18haa4_0029
                0x080fa934       0x6c fonts/hdudispfConsolas18hAA4.o
                0x080fa934                Abc_font_18haa4_0029
 .rodata.Abc_font_18haa4_002a
                0x080fa9a0       0x6c fonts/hdudispfConsolas18hAA4.o
                0x080fa9a0                Abc_font_18haa4_002a
 .rodata.Abc_font_18haa4_002b
                0x080faa0c       0x6c fonts/hdudispfConsolas18hAA4.o
                0x080faa0c                Abc_font_18haa4_002b
 .rodata.Abc_font_18haa4_002c
                0x080faa78       0x6c fonts/hdudispfConsolas18hAA4.o
                0x080faa78                Abc_font_18haa4_002c
 .rodata.Abc_font_18haa4_002d
                0x080faae4       0x6c fonts/hdudispfConsolas18hAA4.o
                0x080faae4                Abc_font_18haa4_002d
 .rodata.Abc_font_18haa4_002e
                0x080fab50       0x6c fonts/hdudispfConsolas18hAA4.o
                0x080fab50                Abc_font_18haa4_002e
 .rodata.Abc_font_18haa4_002f
                0x080fabbc       0x6c fonts/hdudispfConsolas18hAA4.o
                0x080fabbc                Abc_font_18haa4_002f
 .rodata.Abc_font_18haa4_0030
                0x080fac28       0x6c fonts/hdudispfConsolas18hAA4.o
                0x080fac28                Abc_font_18haa4_0030
 .rodata.Abc_font_18haa4_0031
                0x080fac94       0x6c fonts/hdudispfConsolas18hAA4.o
                0x080fac94                Abc_font_18haa4_0031
 .rodata.Abc_font_18haa4_0032
                0x080fad00       0x6c fonts/hdudispfConsolas18hAA4.o
                0x080fad00                Abc_font_18haa4_0032
 .rodata.Abc_font_18haa4_0033
                0x080fad6c       0x6c fonts/hdudispfConsolas18hAA4.o
                0x080fad6c                Abc_font_18haa4_0033
 .rodata.Abc_font_18haa4_0034
                0x080fadd8       0x6c fonts/hdudispfConsolas18hAA4.o
                0x080fadd8                Abc_font_18haa4_0034
 .rodata.Abc_font_18haa4_0035
                0x080fae44       0x6c fonts/hdudispfConsolas18hAA4.o
                0x080fae44                Abc_font_18haa4_0035
 .rodata.Abc_font_18haa4_0036
                0x080faeb0       0x6c fonts/hdudispfConsolas18hAA4.o
                0x080faeb0                Abc_font_18haa4_0036
 .rodata.Abc_font_18haa4_0037
                0x080faf1c       0x6c fonts/hdudispfConsolas18hAA4.o
                0x080faf1c                Abc_font_18haa4_0037
 .rodata.Abc_font_18haa4_0038
                0x080faf88       0x6c fonts/hdudispfConsolas18hAA4.o
                0x080faf88                Abc_font_18haa4_0038
 .rodata.Abc_font_18haa4_0039
                0x080faff4       0x6c fonts/hdudispfConsolas18hAA4.o
                0x080faff4                Abc_font_18haa4_0039
 .rodata.Abc_font_18haa4_003a
                0x080fb060       0x6c fonts/hdudispfConsolas18hAA4.o
                0x080fb060                Abc_font_18haa4_003a
 .rodata.Abc_font_18haa4_003b
                0x080fb0cc       0x6c fonts/hdudispfConsolas18hAA4.o
                0x080fb0cc                Abc_font_18haa4_003b
 .rodata.Abc_font_18haa4_003c
                0x080fb138       0x6c fonts/hdudispfConsolas18hAA4.o
                0x080fb138                Abc_font_18haa4_003c
 .rodata.Abc_font_18haa4_003d
                0x080fb1a4       0x6c fonts/hdudispfConsolas18hAA4.o
                0x080fb1a4                Abc_font_18haa4_003d
 .rodata.Abc_font_18haa4_003e
                0x080fb210       0x6c fonts/hdudispfConsolas18hAA4.o
                0x080fb210                Abc_font_18haa4_003e
 .rodata.Abc_font_18haa4_003f
                0x080fb27c       0x6c fonts/hdudispfConsolas18hAA4.o
                0x080fb27c                Abc_font_18haa4_003f
 .rodata.Abc_font_18haa4_0040
                0x080fb2e8       0x6c fonts/hdudispfConsolas18hAA4.o
                0x080fb2e8                Abc_font_18haa4_0040
 .rodata.Abc_font_18haa4_0041
                0x080fb354       0x6c fonts/hdudispfConsolas18hAA4.o
                0x080fb354                Abc_font_18haa4_0041
 .rodata.Abc_font_18haa4_0042
                0x080fb3c0       0x6c fonts/hdudispfConsolas18hAA4.o
                0x080fb3c0                Abc_font_18haa4_0042
 .rodata.Abc_font_18haa4_0043
                0x080fb42c       0x6c fonts/hdudispfConsolas18hAA4.o
                0x080fb42c                Abc_font_18haa4_0043
 .rodata.Abc_font_18haa4_0044
                0x080fb498       0x6c fonts/hdudispfConsolas18hAA4.o
                0x080fb498                Abc_font_18haa4_0044
 .rodata.Abc_font_18haa4_0045
                0x080fb504       0x6c fonts/hdudispfConsolas18hAA4.o
                0x080fb504                Abc_font_18haa4_0045
 .rodata.Abc_font_18haa4_0046
                0x080fb570       0x6c fonts/hdudispfConsolas18hAA4.o
                0x080fb570                Abc_font_18haa4_0046
 .rodata.Abc_font_18haa4_0047
                0x080fb5dc       0x6c fonts/hdudispfConsolas18hAA4.o
                0x080fb5dc                Abc_font_18haa4_0047
 .rodata.Abc_font_18haa4_0048
                0x080fb648       0x6c fonts/hdudispfConsolas18hAA4.o
                0x080fb648                Abc_font_18haa4_0048
 .rodata.Abc_font_18haa4_0049
                0x080fb6b4       0x6c fonts/hdudispfConsolas18hAA4.o
                0x080fb6b4                Abc_font_18haa4_0049
 .rodata.Abc_font_18haa4_004a
                0x080fb720       0x6c fonts/hdudispfConsolas18hAA4.o
                0x080fb720                Abc_font_18haa4_004a
 .rodata.Abc_font_18haa4_004b
                0x080fb78c       0x6c fonts/hdudispfConsolas18hAA4.o
                0x080fb78c                Abc_font_18haa4_004b
 .rodata.Abc_font_18haa4_004c
                0x080fb7f8       0x6c fonts/hdudispfConsolas18hAA4.o
                0x080fb7f8                Abc_font_18haa4_004c
 .rodata.Abc_font_18haa4_004d
                0x080fb864       0x6c fonts/hdudispfConsolas18hAA4.o
                0x080fb864                Abc_font_18haa4_004d
 .rodata.Abc_font_18haa4_004e
                0x080fb8d0       0x6c fonts/hdudispfConsolas18hAA4.o
                0x080fb8d0                Abc_font_18haa4_004e
 .rodata.Abc_font_18haa4_004f
                0x080fb93c       0x6c fonts/hdudispfConsolas18hAA4.o
                0x080fb93c                Abc_font_18haa4_004f
 .rodata.Abc_font_18haa4_0050
                0x080fb9a8       0x6c fonts/hdudispfConsolas18hAA4.o
                0x080fb9a8                Abc_font_18haa4_0050
 .rodata.Abc_font_18haa4_0051
                0x080fba14       0x6c fonts/hdudispfConsolas18hAA4.o
                0x080fba14                Abc_font_18haa4_0051
 .rodata.Abc_font_18haa4_0052
                0x080fba80       0x6c fonts/hdudispfConsolas18hAA4.o
                0x080fba80                Abc_font_18haa4_0052
 .rodata.Abc_font_18haa4_0053
                0x080fbaec       0x6c fonts/hdudispfConsolas18hAA4.o
                0x080fbaec                Abc_font_18haa4_0053
 .rodata.Abc_font_18haa4_0054
                0x080fbb58       0x6c fonts/hdudispfConsolas18hAA4.o
                0x080fbb58                Abc_font_18haa4_0054
 .rodata.Abc_font_18haa4_0055
                0x080fbbc4       0x6c fonts/hdudispfConsolas18hAA4.o
                0x080fbbc4                Abc_font_18haa4_0055
 .rodata.Abc_font_18haa4_0056
                0x080fbc30       0x6c fonts/hdudispfConsolas18hAA4.o
                0x080fbc30                Abc_font_18haa4_0056
 .rodata.Abc_font_18haa4_0057
                0x080fbc9c       0x6c fonts/hdudispfConsolas18hAA4.o
                0x080fbc9c                Abc_font_18haa4_0057
 .rodata.Abc_font_18haa4_0058
                0x080fbd08       0x6c fonts/hdudispfConsolas18hAA4.o
                0x080fbd08                Abc_font_18haa4_0058
 .rodata.Abc_font_18haa4_0059
                0x080fbd74       0x6c fonts/hdudispfConsolas18hAA4.o
                0x080fbd74                Abc_font_18haa4_0059
 .rodata.Abc_font_18haa4_005a
                0x080fbde0       0x6c fonts/hdudispfConsolas18hAA4.o
                0x080fbde0                Abc_font_18haa4_005a
 .rodata.Abc_font_18haa4_005b
                0x080fbe4c       0x6c fonts/hdudispfConsolas18hAA4.o
                0x080fbe4c                Abc_font_18haa4_005b
 .rodata.Abc_font_18haa4_005c
                0x080fbeb8       0x6c fonts/hdudispfConsolas18hAA4.o
                0x080fbeb8                Abc_font_18haa4_005c
 .rodata.Abc_font_18haa4_005d
                0x080fbf24       0x6c fonts/hdudispfConsolas18hAA4.o
                0x080fbf24                Abc_font_18haa4_005d
 .rodata.Abc_font_18haa4_005e
                0x080fbf90       0x6c fonts/hdudispfConsolas18hAA4.o
                0x080fbf90                Abc_font_18haa4_005e
 .rodata.Abc_font_18haa4_005f
                0x080fbffc       0x6c fonts/hdudispfConsolas18hAA4.o
                0x080fbffc                Abc_font_18haa4_005f
 .rodata.Abc_font_18haa4_0060
                0x080fc068       0x6c fonts/hdudispfConsolas18hAA4.o
                0x080fc068                Abc_font_18haa4_0060
 .rodata.Abc_font_18haa4_0061
                0x080fc0d4       0x6c fonts/hdudispfConsolas18hAA4.o
                0x080fc0d4                Abc_font_18haa4_0061
 .rodata.Abc_font_18haa4_0062
                0x080fc140       0x6c fonts/hdudispfConsolas18hAA4.o
                0x080fc140                Abc_font_18haa4_0062
 .rodata.Abc_font_18haa4_0063
                0x080fc1ac       0x6c fonts/hdudispfConsolas18hAA4.o
                0x080fc1ac                Abc_font_18haa4_0063
 .rodata.Abc_font_18haa4_0064
                0x080fc218       0x6c fonts/hdudispfConsolas18hAA4.o
                0x080fc218                Abc_font_18haa4_0064
 .rodata.Abc_font_18haa4_0065
                0x080fc284       0x6c fonts/hdudispfConsolas18hAA4.o
                0x080fc284                Abc_font_18haa4_0065
 .rodata.Abc_font_18haa4_0066
                0x080fc2f0       0x6c fonts/hdudispfConsolas18hAA4.o
                0x080fc2f0                Abc_font_18haa4_0066
 .rodata.Abc_font_18haa4_0067
                0x080fc35c       0x6c fonts/hdudispfConsolas18hAA4.o
                0x080fc35c                Abc_font_18haa4_0067
 .rodata.Abc_font_18haa4_0068
                0x080fc3c8       0x6c fonts/hdudispfConsolas18hAA4.o
                0x080fc3c8                Abc_font_18haa4_0068
 .rodata.Abc_font_18haa4_0069
                0x080fc434       0x6c fonts/hdudispfConsolas18hAA4.o
                0x080fc434                Abc_font_18haa4_0069
 .rodata.Abc_font_18haa4_006a
                0x080fc4a0       0x6c fonts/hdudispfConsolas18hAA4.o
                0x080fc4a0                Abc_font_18haa4_006a
 .rodata.Abc_font_18haa4_006b
                0x080fc50c       0x6c fonts/hdudispfConsolas18hAA4.o
                0x080fc50c                Abc_font_18haa4_006b
 .rodata.Abc_font_18haa4_006c
                0x080fc578       0x6c fonts/hdudispfConsolas18hAA4.o
                0x080fc578                Abc_font_18haa4_006c
 .rodata.Abc_font_18haa4_006d
                0x080fc5e4       0x6c fonts/hdudispfConsolas18hAA4.o
                0x080fc5e4                Abc_font_18haa4_006d
 .rodata.Abc_font_18haa4_006e
                0x080fc650       0x6c fonts/hdudispfConsolas18hAA4.o
                0x080fc650                Abc_font_18haa4_006e
 .rodata.Abc_font_18haa4_006f
                0x080fc6bc       0x6c fonts/hdudispfConsolas18hAA4.o
                0x080fc6bc                Abc_font_18haa4_006f
 .rodata.Abc_font_18haa4_0070
                0x080fc728       0x6c fonts/hdudispfConsolas18hAA4.o
                0x080fc728                Abc_font_18haa4_0070
 .rodata.Abc_font_18haa4_0071
                0x080fc794       0x6c fonts/hdudispfConsolas18hAA4.o
                0x080fc794                Abc_font_18haa4_0071
 .rodata.Abc_font_18haa4_0072
                0x080fc800       0x6c fonts/hdudispfConsolas18hAA4.o
                0x080fc800                Abc_font_18haa4_0072
 .rodata.Abc_font_18haa4_0073
                0x080fc86c       0x6c fonts/hdudispfConsolas18hAA4.o
                0x080fc86c                Abc_font_18haa4_0073
 .rodata.Abc_font_18haa4_0074
                0x080fc8d8       0x6c fonts/hdudispfConsolas18hAA4.o
                0x080fc8d8                Abc_font_18haa4_0074
 .rodata.Abc_font_18haa4_0075
                0x080fc944       0x6c fonts/hdudispfConsolas18hAA4.o
                0x080fc944                Abc_font_18haa4_0075
 .rodata.Abc_font_18haa4_0076
                0x080fc9b0       0x6c fonts/hdudispfConsolas18hAA4.o
                0x080fc9b0                Abc_font_18haa4_0076
 .rodata.Abc_font_18haa4_0077
                0x080fca1c       0x6c fonts/hdudispfConsolas18hAA4.o
                0x080fca1c                Abc_font_18haa4_0077
 .rodata.Abc_font_18haa4_0078
                0x080fca88       0x6c fonts/hdudispfConsolas18hAA4.o
                0x080fca88                Abc_font_18haa4_0078
 .rodata.Abc_font_18haa4_0079
                0x080fcaf4       0x6c fonts/hdudispfConsolas18hAA4.o
                0x080fcaf4                Abc_font_18haa4_0079
 .rodata.Abc_font_18haa4_007a
                0x080fcb60       0x6c fonts/hdudispfConsolas18hAA4.o
                0x080fcb60                Abc_font_18haa4_007a
 .rodata.Abc_font_18haa4_007b
                0x080fcbcc       0x6c fonts/hdudispfConsolas18hAA4.o
                0x080fcbcc                Abc_font_18haa4_007b
 .rodata.Abc_font_18haa4_007c
                0x080fcc38       0x6c fonts/hdudispfConsolas18hAA4.o
                0x080fcc38                Abc_font_18haa4_007c
 .rodata.Abc_font_18haa4_007d
                0x080fcca4       0x6c fonts/hdudispfConsolas18hAA4.o
                0x080fcca4                Abc_font_18haa4_007d
 .rodata.Abc_font_18haa4_007e
                0x080fcd10       0x6c fonts/hdudispfConsolas18hAA4.o
                0x080fcd10                Abc_font_18haa4_007e
 .rodata.Abc_font_18haa4_007f
                0x080fcd7c       0x5a fonts/hdudispfConsolas18hAA4.o
                0x080fcd7c                Abc_font_18haa4_007f
 *fill*         0x080fcdd6        0x2 
 .rodata.Abc_font_18haa4_0090
                0x080fcdd8       0x6c fonts/hdudispfConsolas18hAA4.o
                0x080fcdd8                Abc_font_18haa4_0090
 .rodata.Abc_font_18haa4_0091
                0x080fce44       0x6c fonts/hdudispfConsolas18hAA4.o
                0x080fce44                Abc_font_18haa4_0091
 .rodata.Abc_font_18haa4_0092
                0x080fceb0       0x6c fonts/hdudispfConsolas18hAA4.o
                0x080fceb0                Abc_font_18haa4_0092
 .rodata.Abc_font_18haa4_0093
                0x080fcf1c       0x6c fonts/hdudispfConsolas18hAA4.o
                0x080fcf1c                Abc_font_18haa4_0093
 .rodata.Abc_font_18haa4_0094
                0x080fcf88       0x6c fonts/hdudispfConsolas18hAA4.o
                0x080fcf88                Abc_font_18haa4_0094
 .rodata.Abc_font_18haa4_0095
                0x080fcff4       0x6c fonts/hdudispfConsolas18hAA4.o
                0x080fcff4                Abc_font_18haa4_0095
 .rodata.Abc_font_18haa4_0096
                0x080fd060       0x6c fonts/hdudispfConsolas18hAA4.o
                0x080fd060                Abc_font_18haa4_0096
 .rodata.Abc_font_18haa4_0097
                0x080fd0cc       0x24 fonts/hdudispfConsolas18hAA4.o
                0x080fd0cc                Abc_font_18haa4_0097
 .rodata.Abc_font_18haa4_0098
                0x080fd0f0       0x24 fonts/hdudispfConsolas18hAA4.o
                0x080fd0f0                Abc_font_18haa4_0098
 .rodata.Abc_font_18haa4_0099
                0x080fd114       0x24 fonts/hdudispfConsolas18hAA4.o
                0x080fd114                Abc_font_18haa4_0099
 .rodata.Abc_font_18haa4_009a
                0x080fd138       0x24 fonts/hdudispfConsolas18hAA4.o
                0x080fd138                Abc_font_18haa4_009a
 .rodata.Abc_font_18haa4_009b
                0x080fd15c       0x24 fonts/hdudispfConsolas18hAA4.o
                0x080fd15c                Abc_font_18haa4_009b
 .rodata.Abc_font_18haa4_009c
                0x080fd180       0x24 fonts/hdudispfConsolas18hAA4.o
                0x080fd180                Abc_font_18haa4_009c
 .rodata.Abc_font_18haa4_009d
                0x080fd1a4       0x5a fonts/hdudispfConsolas18hAA4.o
                0x080fd1a4                Abc_font_18haa4_009d
 *fill*         0x080fd1fe        0x2 
 .rodata.Abc_font_18haa4_009e
                0x080fd200       0x24 fonts/hdudispfConsolas18hAA4.o
                0x080fd200                Abc_font_18haa4_009e
 .rodata.Abc_font_18haa4_009f
                0x080fd224       0x24 fonts/hdudispfConsolas18hAA4.o
                0x080fd224                Abc_font_18haa4_009f
 .rodata.Abc_font_18haa4_00a0
                0x080fd248       0x6c fonts/hdudispfConsolas18hAA4.o
                0x080fd248                Abc_font_18haa4_00a0
 .rodata.Abc_font_18haa4_00a1
                0x080fd2b4       0x6c fonts/hdudispfConsolas18hAA4.o
                0x080fd2b4                Abc_font_18haa4_00a1
 .rodata.Abc_font_18haa4_00a2
                0x080fd320       0x6c fonts/hdudispfConsolas18hAA4.o
                0x080fd320                Abc_font_18haa4_00a2
 .rodata.Abc_font_18haa4_00a3
                0x080fd38c       0x6c fonts/hdudispfConsolas18hAA4.o
                0x080fd38c                Abc_font_18haa4_00a3
 .rodata.Abc_font_18haa4_00a4
                0x080fd3f8       0x6c fonts/hdudispfConsolas18hAA4.o
                0x080fd3f8                Abc_font_18haa4_00a4
 .rodata.Abc_font_18haa4_00a5
                0x080fd464       0x6c fonts/hdudispfConsolas18hAA4.o
                0x080fd464                Abc_font_18haa4_00a5
 .rodata.Abc_font_18haa4_00a6
                0x080fd4d0       0x6c fonts/hdudispfConsolas18hAA4.o
                0x080fd4d0                Abc_font_18haa4_00a6
 .rodata.Abc_font_18haa4_00a7
                0x080fd53c       0x6c fonts/hdudispfConsolas18hAA4.o
                0x080fd53c                Abc_font_18haa4_00a7
 .rodata.Abc_font_18haa4_00a8
                0x080fd5a8       0x6c fonts/hdudispfConsolas18hAA4.o
                0x080fd5a8                Abc_font_18haa4_00a8
 .rodata.Abc_font_18haa4_00a9
                0x080fd614       0x6c fonts/hdudispfConsolas18hAA4.o
                0x080fd614                Abc_font_18haa4_00a9
 .rodata.Abc_font_18haa4_00aa
                0x080fd680       0x6c fonts/hdudispfConsolas18hAA4.o
                0x080fd680                Abc_font_18haa4_00aa
 .rodata.Abc_font_18haa4_00ab
                0x080fd6ec       0x6c fonts/hdudispfConsolas18hAA4.o
                0x080fd6ec                Abc_font_18haa4_00ab
 .rodata.Abc_font_18haa4_00ac
                0x080fd758       0x6c fonts/hdudispfConsolas18hAA4.o
                0x080fd758                Abc_font_18haa4_00ac
 .rodata.Abc_font_18haa4_00ad
                0x080fd7c4       0x6c fonts/hdudispfConsolas18hAA4.o
                0x080fd7c4                Abc_font_18haa4_00ad
 .rodata.Abc_font_18haa4_00ae
                0x080fd830       0x6c fonts/hdudispfConsolas18hAA4.o
                0x080fd830                Abc_font_18haa4_00ae
 .rodata.Abc_font_18haa4_00af
                0x080fd89c       0x6c fonts/hdudispfConsolas18hAA4.o
                0x080fd89c                Abc_font_18haa4_00af
 .rodata.Abc_font_18haa4_00b0
                0x080fd908       0x6c fonts/hdudispfConsolas18hAA4.o
                0x080fd908                Abc_font_18haa4_00b0
 .rodata.Abc_font_18haa4_00b1
                0x080fd974       0x6c fonts/hdudispfConsolas18hAA4.o
                0x080fd974                Abc_font_18haa4_00b1
 .rodata.Abc_font_18haa4_00b2
                0x080fd9e0       0x6c fonts/hdudispfConsolas18hAA4.o
                0x080fd9e0                Abc_font_18haa4_00b2
 .rodata.Abc_font_18haa4_00b3
                0x080fda4c       0x6c fonts/hdudispfConsolas18hAA4.o
                0x080fda4c                Abc_font_18haa4_00b3
 .rodata.Abc_font_18haa4_00b4
                0x080fdab8       0x6c fonts/hdudispfConsolas18hAA4.o
                0x080fdab8                Abc_font_18haa4_00b4
 .rodata.Abc_font_18haa4_00b5
                0x080fdb24       0x6c fonts/hdudispfConsolas18hAA4.o
                0x080fdb24                Abc_font_18haa4_00b5
 .rodata.Abc_font_18haa4_00b6
                0x080fdb90       0x6c fonts/hdudispfConsolas18hAA4.o
                0x080fdb90                Abc_font_18haa4_00b6
 .rodata.Abc_font_18haa4_00b7
                0x080fdbfc       0x6c fonts/hdudispfConsolas18hAA4.o
                0x080fdbfc                Abc_font_18haa4_00b7
 .rodata.Abc_font_18haa4_00b8
                0x080fdc68       0x6c fonts/hdudispfConsolas18hAA4.o
                0x080fdc68                Abc_font_18haa4_00b8
 .rodata.Abc_font_18haa4_00b9
                0x080fdcd4       0x6c fonts/hdudispfConsolas18hAA4.o
                0x080fdcd4                Abc_font_18haa4_00b9
 .rodata.Abc_font_18haa4_00ba
                0x080fdd40       0x6c fonts/hdudispfConsolas18hAA4.o
                0x080fdd40                Abc_font_18haa4_00ba
 .rodata.Abc_font_18haa4_00bb
                0x080fddac       0x6c fonts/hdudispfConsolas18hAA4.o
                0x080fddac                Abc_font_18haa4_00bb
 .rodata.Abc_font_18haa4_00bc
                0x080fde18       0x6c fonts/hdudispfConsolas18hAA4.o
                0x080fde18                Abc_font_18haa4_00bc
 .rodata.Abc_font_18haa4_00bd
                0x080fde84       0x6c fonts/hdudispfConsolas18hAA4.o
                0x080fde84                Abc_font_18haa4_00bd
 .rodata.Abc_font_18haa4_00be
                0x080fdef0       0x6c fonts/hdudispfConsolas18hAA4.o
                0x080fdef0                Abc_font_18haa4_00be
 .rodata.Abc_font_18haa4_00bf
                0x080fdf5c       0x6c fonts/hdudispfConsolas18hAA4.o
                0x080fdf5c                Abc_font_18haa4_00bf
 .rodata.Abc_font_18haa4_00c0
                0x080fdfc8       0x6c fonts/hdudispfConsolas18hAA4.o
                0x080fdfc8                Abc_font_18haa4_00c0
 .rodata.Abc_font_18haa4_00c1
                0x080fe034       0x6c fonts/hdudispfConsolas18hAA4.o
                0x080fe034                Abc_font_18haa4_00c1
 .rodata.Abc_font_18haa4_00c2
                0x080fe0a0       0x6c fonts/hdudispfConsolas18hAA4.o
                0x080fe0a0                Abc_font_18haa4_00c2
 .rodata.Abc_font_18haa4_00c3
                0x080fe10c       0x6c fonts/hdudispfConsolas18hAA4.o
                0x080fe10c                Abc_font_18haa4_00c3
 .rodata.Abc_font_18haa4_00c4
                0x080fe178       0x6c fonts/hdudispfConsolas18hAA4.o
                0x080fe178                Abc_font_18haa4_00c4
 .rodata.Abc_font_18haa4_00c5
                0x080fe1e4       0x6c fonts/hdudispfConsolas18hAA4.o
                0x080fe1e4                Abc_font_18haa4_00c5
 .rodata.Abc_font_18haa4_00c6
                0x080fe250       0x6c fonts/hdudispfConsolas18hAA4.o
                0x080fe250                Abc_font_18haa4_00c6
 .rodata.Abc_font_18haa4_00c7
                0x080fe2bc       0x6c fonts/hdudispfConsolas18hAA4.o
                0x080fe2bc                Abc_font_18haa4_00c7
 .rodata.Abc_font_18haa4_00c8
                0x080fe328       0x6c fonts/hdudispfConsolas18hAA4.o
                0x080fe328                Abc_font_18haa4_00c8
 .rodata.Abc_font_18haa4_00c9
                0x080fe394       0x6c fonts/hdudispfConsolas18hAA4.o
                0x080fe394                Abc_font_18haa4_00c9
 .rodata.Abc_font_18haa4_00ca
                0x080fe400       0x6c fonts/hdudispfConsolas18hAA4.o
                0x080fe400                Abc_font_18haa4_00ca
 .rodata.Abc_font_18haa4_00cb
                0x080fe46c       0x6c fonts/hdudispfConsolas18hAA4.o
                0x080fe46c                Abc_font_18haa4_00cb
 .rodata.Abc_font_18haa4_00cc
                0x080fe4d8       0x6c fonts/hdudispfConsolas18hAA4.o
                0x080fe4d8                Abc_font_18haa4_00cc
 .rodata.Abc_font_18haa4_00cd
                0x080fe544       0x6c fonts/hdudispfConsolas18hAA4.o
                0x080fe544                Abc_font_18haa4_00cd
 .rodata.Abc_font_18haa4_00ce
                0x080fe5b0       0x6c fonts/hdudispfConsolas18hAA4.o
                0x080fe5b0                Abc_font_18haa4_00ce
 .rodata.Abc_font_18haa4_00cf
                0x080fe61c       0x6c fonts/hdudispfConsolas18hAA4.o
                0x080fe61c                Abc_font_18haa4_00cf
 .rodata.Abc_font_18haa4_00d0
                0x080fe688       0x6c fonts/hdudispfConsolas18hAA4.o
                0x080fe688                Abc_font_18haa4_00d0
 .rodata.Abc_font_18haa4_00d1
                0x080fe6f4       0x6c fonts/hdudispfConsolas18hAA4.o
                0x080fe6f4                Abc_font_18haa4_00d1
 .rodata.Abc_font_18haa4_00d2
                0x080fe760       0x6c fonts/hdudispfConsolas18hAA4.o
                0x080fe760                Abc_font_18haa4_00d2
 .rodata.Abc_font_18haa4_00d3
                0x080fe7cc       0x6c fonts/hdudispfConsolas18hAA4.o
                0x080fe7cc                Abc_font_18haa4_00d3
 .rodata.Abc_font_18haa4_00d4
                0x080fe838       0x6c fonts/hdudispfConsolas18hAA4.o
                0x080fe838                Abc_font_18haa4_00d4
 .rodata.Abc_font_18haa4_00d5
                0x080fe8a4       0x6c fonts/hdudispfConsolas18hAA4.o
                0x080fe8a4                Abc_font_18haa4_00d5
 .rodata.Abc_font_18haa4_00d6
                0x080fe910       0x6c fonts/hdudispfConsolas18hAA4.o
                0x080fe910                Abc_font_18haa4_00d6
 .rodata.Abc_font_18haa4_00d7
                0x080fe97c       0x6c fonts/hdudispfConsolas18hAA4.o
                0x080fe97c                Abc_font_18haa4_00d7
 .rodata.Abc_font_18haa4_00d8
                0x080fe9e8       0x6c fonts/hdudispfConsolas18hAA4.o
                0x080fe9e8                Abc_font_18haa4_00d8
 .rodata.Abc_font_18haa4_00d9
                0x080fea54       0x6c fonts/hdudispfConsolas18hAA4.o
                0x080fea54                Abc_font_18haa4_00d9
 .rodata.Abc_font_18haa4_00da
                0x080feac0       0x6c fonts/hdudispfConsolas18hAA4.o
                0x080feac0                Abc_font_18haa4_00da
 .rodata.Abc_font_18haa4_00db
                0x080feb2c       0x6c fonts/hdudispfConsolas18hAA4.o
                0x080feb2c                Abc_font_18haa4_00db
 .rodata.Abc_font_18haa4_00dc
                0x080feb98       0x6c fonts/hdudispfConsolas18hAA4.o
                0x080feb98                Abc_font_18haa4_00dc
 .rodata.Abc_font_18haa4_00dd
                0x080fec04       0x6c fonts/hdudispfConsolas18hAA4.o
                0x080fec04                Abc_font_18haa4_00dd
 .rodata.Abc_font_18haa4_00de
                0x080fec70       0x6c fonts/hdudispfConsolas18hAA4.o
                0x080fec70                Abc_font_18haa4_00de
 .rodata.Abc_font_18haa4_00df
                0x080fecdc       0x6c fonts/hdudispfConsolas18hAA4.o
                0x080fecdc                Abc_font_18haa4_00df
 .rodata.Abc_font_18haa4_00e0
                0x080fed48       0x6c fonts/hdudispfConsolas18hAA4.o
                0x080fed48                Abc_font_18haa4_00e0
 .rodata.Abc_font_18haa4_00e1
                0x080fedb4       0x6c fonts/hdudispfConsolas18hAA4.o
                0x080fedb4                Abc_font_18haa4_00e1
 .rodata.Abc_font_18haa4_00e2
                0x080fee20       0x6c fonts/hdudispfConsolas18hAA4.o
                0x080fee20                Abc_font_18haa4_00e2
 .rodata.Abc_font_18haa4_00e3
                0x080fee8c       0x6c fonts/hdudispfConsolas18hAA4.o
                0x080fee8c                Abc_font_18haa4_00e3
 .rodata.Abc_font_18haa4_00e4
                0x080feef8       0x6c fonts/hdudispfConsolas18hAA4.o
                0x080feef8                Abc_font_18haa4_00e4
 .rodata.Abc_font_18haa4_00e5
                0x080fef64       0x6c fonts/hdudispfConsolas18hAA4.o
                0x080fef64                Abc_font_18haa4_00e5
 .rodata.Abc_font_18haa4_00e6
                0x080fefd0       0x6c fonts/hdudispfConsolas18hAA4.o
                0x080fefd0                Abc_font_18haa4_00e6
 .rodata.Abc_font_18haa4_00e7
                0x080ff03c       0x6c fonts/hdudispfConsolas18hAA4.o
                0x080ff03c                Abc_font_18haa4_00e7
 .rodata.Abc_font_18haa4_00e8
                0x080ff0a8       0x6c fonts/hdudispfConsolas18hAA4.o
                0x080ff0a8                Abc_font_18haa4_00e8
 .rodata.Abc_font_18haa4_00e9
                0x080ff114       0x6c fonts/hdudispfConsolas18hAA4.o
                0x080ff114                Abc_font_18haa4_00e9
 .rodata.Abc_font_18haa4_00ea
                0x080ff180       0x6c fonts/hdudispfConsolas18hAA4.o
                0x080ff180                Abc_font_18haa4_00ea
 .rodata.Abc_font_18haa4_00eb
                0x080ff1ec       0x6c fonts/hdudispfConsolas18hAA4.o
                0x080ff1ec                Abc_font_18haa4_00eb
 .rodata.Abc_font_18haa4_00ec
                0x080ff258       0x6c fonts/hdudispfConsolas18hAA4.o
                0x080ff258                Abc_font_18haa4_00ec
 .rodata.Abc_font_18haa4_00ed
                0x080ff2c4       0x6c fonts/hdudispfConsolas18hAA4.o
                0x080ff2c4                Abc_font_18haa4_00ed
 .rodata.Abc_font_18haa4_00ee
                0x080ff330       0x6c fonts/hdudispfConsolas18hAA4.o
                0x080ff330                Abc_font_18haa4_00ee
 .rodata.Abc_font_18haa4_00ef
                0x080ff39c       0x6c fonts/hdudispfConsolas18hAA4.o
                0x080ff39c                Abc_font_18haa4_00ef
 .rodata.Abc_font_18haa4_00f0
                0x080ff408       0x6c fonts/hdudispfConsolas18hAA4.o
                0x080ff408                Abc_font_18haa4_00f0
 .rodata.Abc_font_18haa4_00f1
                0x080ff474       0x6c fonts/hdudispfConsolas18hAA4.o
                0x080ff474                Abc_font_18haa4_00f1
 .rodata.Abc_font_18haa4_00f2
                0x080ff4e0       0x6c fonts/hdudispfConsolas18hAA4.o
                0x080ff4e0                Abc_font_18haa4_00f2
 .rodata.Abc_font_18haa4_00f3
                0x080ff54c       0x6c fonts/hdudispfConsolas18hAA4.o
                0x080ff54c                Abc_font_18haa4_00f3
 .rodata.Abc_font_18haa4_00f4
                0x080ff5b8       0x6c fonts/hdudispfConsolas18hAA4.o
                0x080ff5b8                Abc_font_18haa4_00f4
 .rodata.Abc_font_18haa4_00f5
                0x080ff624       0x6c fonts/hdudispfConsolas18hAA4.o
                0x080ff624                Abc_font_18haa4_00f5
 .rodata.Abc_font_18haa4_00f6
                0x080ff690       0x6c fonts/hdudispfConsolas18hAA4.o
                0x080ff690                Abc_font_18haa4_00f6
 .rodata.Abc_font_18haa4_00f7
                0x080ff6fc       0x6c fonts/hdudispfConsolas18hAA4.o
                0x080ff6fc                Abc_font_18haa4_00f7
 .rodata.Abc_font_18haa4_00f8
                0x080ff768       0x6c fonts/hdudispfConsolas18hAA4.o
                0x080ff768                Abc_font_18haa4_00f8
 .rodata.Abc_font_18haa4_00f9
                0x080ff7d4       0x6c fonts/hdudispfConsolas18hAA4.o
                0x080ff7d4                Abc_font_18haa4_00f9
 .rodata.Abc_font_18haa4_00fa
                0x080ff840       0x6c fonts/hdudispfConsolas18hAA4.o
                0x080ff840                Abc_font_18haa4_00fa
 .rodata.Abc_font_18haa4_00fb
                0x080ff8ac       0x6c fonts/hdudispfConsolas18hAA4.o
                0x080ff8ac                Abc_font_18haa4_00fb
 .rodata.Abc_font_18haa4_00fc
                0x080ff918       0x6c fonts/hdudispfConsolas18hAA4.o
                0x080ff918                Abc_font_18haa4_00fc
 .rodata.Abc_font_18haa4_00fd
                0x080ff984       0x6c fonts/hdudispfConsolas18hAA4.o
                0x080ff984                Abc_font_18haa4_00fd
 .rodata.Abc_font_18haa4_00fe
                0x080ff9f0       0x6c fonts/hdudispfConsolas18hAA4.o
                0x080ff9f0                Abc_font_18haa4_00fe
 .rodata.Abc_font_18haa4_00ff
                0x080ffa5c       0xb4 fonts/hdudispfConsolas18hAA4.o
                0x080ffa5c                Abc_font_18haa4_00ff
 .rodata.Font_consolas18haa4_info
                0x080ffb10      0x700 fonts/hdudispfConsolas18hAA4.o
                0x080ffb10                Font_consolas18haa4_info
 .rodata.Font_consolas18haa4_clip_prop2
                0x08100210        0xc fonts/hdudispfConsolas18hAA4.o
                0x08100210                Font_consolas18haa4_clip_prop2
 .rodata.Font_consolas18haa4_clip_prop1
                0x0810021c        0xc fonts/hdudispfConsolas18hAA4.o
                0x0810021c                Font_consolas18haa4_clip_prop1
 .rodata.Font_tiny_10inch
                0x08100228       0x10 fonts/hdudispfConsolas18hAA4.o
                0x08100228                Font_tiny_10inch
 .rodata.Abc_font_consolas22haa4_0010
                0x08100238       0x9a fonts/hdudispfConsolas22haa5.o
                0x08100238                Abc_font_consolas22haa4_0010
 *fill*         0x081002d2        0x2 
 .rodata.Abc_font_consolas22haa4_0011
                0x081002d4       0x9a fonts/hdudispfConsolas22haa5.o
                0x081002d4                Abc_font_consolas22haa4_0011
 *fill*         0x0810036e        0x2 
 .rodata.Abc_font_consolas22haa4_0012
                0x08100370       0x9a fonts/hdudispfConsolas22haa5.o
                0x08100370                Abc_font_consolas22haa4_0012
 *fill*         0x0810040a        0x2 
 .rodata.Abc_font_consolas22haa4_0013
                0x0810040c       0x9a fonts/hdudispfConsolas22haa5.o
                0x0810040c                Abc_font_consolas22haa4_0013
 *fill*         0x081004a6        0x2 
 .rodata.Abc_font_consolas22haa4_0014
                0x081004a8       0x9a fonts/hdudispfConsolas22haa5.o
                0x081004a8                Abc_font_consolas22haa4_0014
 *fill*         0x08100542        0x2 
 .rodata.Abc_font_consolas22haa4_0015
                0x08100544       0x9a fonts/hdudispfConsolas22haa5.o
                0x08100544                Abc_font_consolas22haa4_0015
 *fill*         0x081005de        0x2 
 .rodata.Abc_font_consolas22haa4_0016
                0x081005e0       0x9a fonts/hdudispfConsolas22haa5.o
                0x081005e0                Abc_font_consolas22haa4_0016
 *fill*         0x0810067a        0x2 
 .rodata.Abc_font_consolas22haa4_0017
                0x0810067c       0x2c fonts/hdudispfConsolas22haa5.o
                0x0810067c                Abc_font_consolas22haa4_0017
 .rodata.Abc_font_consolas22haa4_0018
                0x081006a8       0x2c fonts/hdudispfConsolas22haa5.o
                0x081006a8                Abc_font_consolas22haa4_0018
 .rodata.Abc_font_consolas22haa4_0019
                0x081006d4       0x84 fonts/hdudispfConsolas22haa5.o
                0x081006d4                Abc_font_consolas22haa4_0019
 .rodata.Abc_font_consolas22haa4_001a
                0x08100758       0x84 fonts/hdudispfConsolas22haa5.o
                0x08100758                Abc_font_consolas22haa4_001a
 .rodata.Abc_font_consolas22haa4_001b
                0x081007dc       0x84 fonts/hdudispfConsolas22haa5.o
                0x081007dc                Abc_font_consolas22haa4_001b
 .rodata.Abc_font_consolas22haa4_001c
                0x08100860       0x84 fonts/hdudispfConsolas22haa5.o
                0x08100860                Abc_font_consolas22haa4_001c
 .rodata.Abc_font_consolas22haa4_001d
                0x081008e4       0x84 fonts/hdudispfConsolas22haa5.o
                0x081008e4                Abc_font_consolas22haa4_001d
 .rodata.Abc_font_consolas22haa4_001e
                0x08100968       0x84 fonts/hdudispfConsolas22haa5.o
                0x08100968                Abc_font_consolas22haa4_001e
 .rodata.Abc_font_consolas22haa4_001f
                0x081009ec       0x84 fonts/hdudispfConsolas22haa5.o
                0x081009ec                Abc_font_consolas22haa4_001f
 .rodata.Abc_font_consolas22haa4_0020
                0x08100a70       0x9a fonts/hdudispfConsolas22haa5.o
                0x08100a70                Abc_font_consolas22haa4_0020
 *fill*         0x08100b0a        0x2 
 .rodata.Abc_font_consolas22haa4_0021
                0x08100b0c       0x9a fonts/hdudispfConsolas22haa5.o
                0x08100b0c                Abc_font_consolas22haa4_0021
 *fill*         0x08100ba6        0x2 
 .rodata.Abc_font_consolas22haa4_0022
                0x08100ba8       0x9a fonts/hdudispfConsolas22haa5.o
                0x08100ba8                Abc_font_consolas22haa4_0022
 *fill*         0x08100c42        0x2 
 .rodata.Abc_font_consolas22haa4_0023
                0x08100c44       0x9a fonts/hdudispfConsolas22haa5.o
                0x08100c44                Abc_font_consolas22haa4_0023
 *fill*         0x08100cde        0x2 
 .rodata.Abc_font_consolas22haa4_0024
                0x08100ce0       0x9a fonts/hdudispfConsolas22haa5.o
                0x08100ce0                Abc_font_consolas22haa4_0024
 *fill*         0x08100d7a        0x2 
 .rodata.Abc_font_consolas22haa4_0025
                0x08100d7c       0x9a fonts/hdudispfConsolas22haa5.o
                0x08100d7c                Abc_font_consolas22haa4_0025
 *fill*         0x08100e16        0x2 
 .rodata.Abc_font_consolas22haa4_0026
                0x08100e18       0x9a fonts/hdudispfConsolas22haa5.o
                0x08100e18                Abc_font_consolas22haa4_0026
 *fill*         0x08100eb2        0x2 
 .rodata.Abc_font_consolas22haa4_0027
                0x08100eb4       0x9a fonts/hdudispfConsolas22haa5.o
                0x08100eb4                Abc_font_consolas22haa4_0027
 *fill*         0x08100f4e        0x2 
 .rodata.Abc_font_consolas22haa4_0028
                0x08100f50       0x9a fonts/hdudispfConsolas22haa5.o
                0x08100f50                Abc_font_consolas22haa4_0028
 *fill*         0x08100fea        0x2 
 .rodata.Abc_font_consolas22haa4_0029
                0x08100fec       0x9a fonts/hdudispfConsolas22haa5.o
                0x08100fec                Abc_font_consolas22haa4_0029
 *fill*         0x08101086        0x2 
 .rodata.Abc_font_consolas22haa4_002a
                0x08101088       0x9a fonts/hdudispfConsolas22haa5.o
                0x08101088                Abc_font_consolas22haa4_002a
 *fill*         0x08101122        0x2 
 .rodata.Abc_font_consolas22haa4_002b
                0x08101124       0x9a fonts/hdudispfConsolas22haa5.o
                0x08101124                Abc_font_consolas22haa4_002b
 *fill*         0x081011be        0x2 
 .rodata.Abc_font_consolas22haa4_002c
                0x081011c0       0x9a fonts/hdudispfConsolas22haa5.o
                0x081011c0                Abc_font_consolas22haa4_002c
 *fill*         0x0810125a        0x2 
 .rodata.Abc_font_consolas22haa4_002d
                0x0810125c       0x9a fonts/hdudispfConsolas22haa5.o
                0x0810125c                Abc_font_consolas22haa4_002d
 *fill*         0x081012f6        0x2 
 .rodata.Abc_font_consolas22haa4_002e
                0x081012f8       0x9a fonts/hdudispfConsolas22haa5.o
                0x081012f8                Abc_font_consolas22haa4_002e
 *fill*         0x08101392        0x2 
 .rodata.Abc_font_consolas22haa4_002f
                0x08101394       0x9a fonts/hdudispfConsolas22haa5.o
                0x08101394                Abc_font_consolas22haa4_002f
 *fill*         0x0810142e        0x2 
 .rodata.Abc_font_consolas22haa4_0030
                0x08101430       0x9a fonts/hdudispfConsolas22haa5.o
                0x08101430                Abc_font_consolas22haa4_0030
 *fill*         0x081014ca        0x2 
 .rodata.Abc_font_consolas22haa4_0031
                0x081014cc       0x9a fonts/hdudispfConsolas22haa5.o
                0x081014cc                Abc_font_consolas22haa4_0031
 *fill*         0x08101566        0x2 
 .rodata.Abc_font_consolas22haa4_0032
                0x08101568       0x9a fonts/hdudispfConsolas22haa5.o
                0x08101568                Abc_font_consolas22haa4_0032
 *fill*         0x08101602        0x2 
 .rodata.Abc_font_consolas22haa4_0033
                0x08101604       0x9a fonts/hdudispfConsolas22haa5.o
                0x08101604                Abc_font_consolas22haa4_0033
 *fill*         0x0810169e        0x2 
 .rodata.Abc_font_consolas22haa4_0034
                0x081016a0       0x9a fonts/hdudispfConsolas22haa5.o
                0x081016a0                Abc_font_consolas22haa4_0034
 *fill*         0x0810173a        0x2 
 .rodata.Abc_font_consolas22haa4_0035
                0x0810173c       0x9a fonts/hdudispfConsolas22haa5.o
                0x0810173c                Abc_font_consolas22haa4_0035
 *fill*         0x081017d6        0x2 
 .rodata.Abc_font_consolas22haa4_0036
                0x081017d8       0x9a fonts/hdudispfConsolas22haa5.o
                0x081017d8                Abc_font_consolas22haa4_0036
 *fill*         0x08101872        0x2 
 .rodata.Abc_font_consolas22haa4_0037
                0x08101874       0x9a fonts/hdudispfConsolas22haa5.o
                0x08101874                Abc_font_consolas22haa4_0037
 *fill*         0x0810190e        0x2 
 .rodata.Abc_font_consolas22haa4_0038
                0x08101910       0x9a fonts/hdudispfConsolas22haa5.o
                0x08101910                Abc_font_consolas22haa4_0038
 *fill*         0x081019aa        0x2 
 .rodata.Abc_font_consolas22haa4_0039
                0x081019ac       0x9a fonts/hdudispfConsolas22haa5.o
                0x081019ac                Abc_font_consolas22haa4_0039
 *fill*         0x08101a46        0x2 
 .rodata.Abc_font_consolas22haa4_003a
                0x08101a48       0x9a fonts/hdudispfConsolas22haa5.o
                0x08101a48                Abc_font_consolas22haa4_003a
 *fill*         0x08101ae2        0x2 
 .rodata.Abc_font_consolas22haa4_003b
                0x08101ae4       0x9a fonts/hdudispfConsolas22haa5.o
                0x08101ae4                Abc_font_consolas22haa4_003b
 *fill*         0x08101b7e        0x2 
 .rodata.Abc_font_consolas22haa4_003c
                0x08101b80       0x9a fonts/hdudispfConsolas22haa5.o
                0x08101b80                Abc_font_consolas22haa4_003c
 *fill*         0x08101c1a        0x2 
 .rodata.Abc_font_consolas22haa4_003d
                0x08101c1c       0x9a fonts/hdudispfConsolas22haa5.o
                0x08101c1c                Abc_font_consolas22haa4_003d
 *fill*         0x08101cb6        0x2 
 .rodata.Abc_font_consolas22haa4_003e
                0x08101cb8       0x9a fonts/hdudispfConsolas22haa5.o
                0x08101cb8                Abc_font_consolas22haa4_003e
 *fill*         0x08101d52        0x2 
 .rodata.Abc_font_consolas22haa4_003f
                0x08101d54       0x9a fonts/hdudispfConsolas22haa5.o
                0x08101d54                Abc_font_consolas22haa4_003f
 *fill*         0x08101dee        0x2 
 .rodata.Abc_font_consolas22haa4_0040
                0x08101df0       0x9a fonts/hdudispfConsolas22haa5.o
                0x08101df0                Abc_font_consolas22haa4_0040
 *fill*         0x08101e8a        0x2 
 .rodata.Abc_font_consolas22haa4_0041
                0x08101e8c       0x9a fonts/hdudispfConsolas22haa5.o
                0x08101e8c                Abc_font_consolas22haa4_0041
 *fill*         0x08101f26        0x2 
 .rodata.Abc_font_consolas22haa4_0042
                0x08101f28       0x9a fonts/hdudispfConsolas22haa5.o
                0x08101f28                Abc_font_consolas22haa4_0042
 *fill*         0x08101fc2        0x2 
 .rodata.Abc_font_consolas22haa4_0043
                0x08101fc4       0x9a fonts/hdudispfConsolas22haa5.o
                0x08101fc4                Abc_font_consolas22haa4_0043
 *fill*         0x0810205e        0x2 
 .rodata.Abc_font_consolas22haa4_0044
                0x08102060       0x9a fonts/hdudispfConsolas22haa5.o
                0x08102060                Abc_font_consolas22haa4_0044
 *fill*         0x081020fa        0x2 
 .rodata.Abc_font_consolas22haa4_0045
                0x081020fc       0x9a fonts/hdudispfConsolas22haa5.o
                0x081020fc                Abc_font_consolas22haa4_0045
 *fill*         0x08102196        0x2 
 .rodata.Abc_font_consolas22haa4_0046
                0x08102198       0x9a fonts/hdudispfConsolas22haa5.o
                0x08102198                Abc_font_consolas22haa4_0046
 *fill*         0x08102232        0x2 
 .rodata.Abc_font_consolas22haa4_0047
                0x08102234       0x9a fonts/hdudispfConsolas22haa5.o
                0x08102234                Abc_font_consolas22haa4_0047
 *fill*         0x081022ce        0x2 
 .rodata.Abc_font_consolas22haa4_0048
                0x081022d0       0x9a fonts/hdudispfConsolas22haa5.o
                0x081022d0                Abc_font_consolas22haa4_0048
 *fill*         0x0810236a        0x2 
 .rodata.Abc_font_consolas22haa4_0049
                0x0810236c       0x9a fonts/hdudispfConsolas22haa5.o
                0x0810236c                Abc_font_consolas22haa4_0049
 *fill*         0x08102406        0x2 
 .rodata.Abc_font_consolas22haa4_004a
                0x08102408       0x9a fonts/hdudispfConsolas22haa5.o
                0x08102408                Abc_font_consolas22haa4_004a
 *fill*         0x081024a2        0x2 
 .rodata.Abc_font_consolas22haa4_004b
                0x081024a4       0x9a fonts/hdudispfConsolas22haa5.o
                0x081024a4                Abc_font_consolas22haa4_004b
 *fill*         0x0810253e        0x2 
 .rodata.Abc_font_consolas22haa4_004c
                0x08102540       0x9a fonts/hdudispfConsolas22haa5.o
                0x08102540                Abc_font_consolas22haa4_004c
 *fill*         0x081025da        0x2 
 .rodata.Abc_font_consolas22haa4_004d
                0x081025dc       0x9a fonts/hdudispfConsolas22haa5.o
                0x081025dc                Abc_font_consolas22haa4_004d
 *fill*         0x08102676        0x2 
 .rodata.Abc_font_consolas22haa4_004e
                0x08102678       0x9a fonts/hdudispfConsolas22haa5.o
                0x08102678                Abc_font_consolas22haa4_004e
 *fill*         0x08102712        0x2 
 .rodata.Abc_font_consolas22haa4_004f
                0x08102714       0x9a fonts/hdudispfConsolas22haa5.o
                0x08102714                Abc_font_consolas22haa4_004f
 *fill*         0x081027ae        0x2 
 .rodata.Abc_font_consolas22haa4_0050
                0x081027b0       0x9a fonts/hdudispfConsolas22haa5.o
                0x081027b0                Abc_font_consolas22haa4_0050
 *fill*         0x0810284a        0x2 
 .rodata.Abc_font_consolas22haa4_0051
                0x0810284c       0x9a fonts/hdudispfConsolas22haa5.o
                0x0810284c                Abc_font_consolas22haa4_0051
 *fill*         0x081028e6        0x2 
 .rodata.Abc_font_consolas22haa4_0052
                0x081028e8       0x9a fonts/hdudispfConsolas22haa5.o
                0x081028e8                Abc_font_consolas22haa4_0052
 *fill*         0x08102982        0x2 
 .rodata.Abc_font_consolas22haa4_0053
                0x08102984       0x9a fonts/hdudispfConsolas22haa5.o
                0x08102984                Abc_font_consolas22haa4_0053
 *fill*         0x08102a1e        0x2 
 .rodata.Abc_font_consolas22haa4_0054
                0x08102a20       0x9a fonts/hdudispfConsolas22haa5.o
                0x08102a20                Abc_font_consolas22haa4_0054
 *fill*         0x08102aba        0x2 
 .rodata.Abc_font_consolas22haa4_0055
                0x08102abc       0x9a fonts/hdudispfConsolas22haa5.o
                0x08102abc                Abc_font_consolas22haa4_0055
 *fill*         0x08102b56        0x2 
 .rodata.Abc_font_consolas22haa4_0056
                0x08102b58       0x9a fonts/hdudispfConsolas22haa5.o
                0x08102b58                Abc_font_consolas22haa4_0056
 *fill*         0x08102bf2        0x2 
 .rodata.Abc_font_consolas22haa4_0057
                0x08102bf4       0x9a fonts/hdudispfConsolas22haa5.o
                0x08102bf4                Abc_font_consolas22haa4_0057
 *fill*         0x08102c8e        0x2 
 .rodata.Abc_font_consolas22haa4_0058
                0x08102c90       0x9a fonts/hdudispfConsolas22haa5.o
                0x08102c90                Abc_font_consolas22haa4_0058
 *fill*         0x08102d2a        0x2 
 .rodata.Abc_font_consolas22haa4_0059
                0x08102d2c       0x9a fonts/hdudispfConsolas22haa5.o
                0x08102d2c                Abc_font_consolas22haa4_0059
 *fill*         0x08102dc6        0x2 
 .rodata.Abc_font_consolas22haa4_005a
                0x08102dc8       0x9a fonts/hdudispfConsolas22haa5.o
                0x08102dc8                Abc_font_consolas22haa4_005a
 *fill*         0x08102e62        0x2 
 .rodata.Abc_font_consolas22haa4_005b
                0x08102e64       0x9a fonts/hdudispfConsolas22haa5.o
                0x08102e64                Abc_font_consolas22haa4_005b
 *fill*         0x08102efe        0x2 
 .rodata.Abc_font_consolas22haa4_005c
                0x08102f00       0x9a fonts/hdudispfConsolas22haa5.o
                0x08102f00                Abc_font_consolas22haa4_005c
 *fill*         0x08102f9a        0x2 
 .rodata.Abc_font_consolas22haa4_005d
                0x08102f9c       0x9a fonts/hdudispfConsolas22haa5.o
                0x08102f9c                Abc_font_consolas22haa4_005d
 *fill*         0x08103036        0x2 
 .rodata.Abc_font_consolas22haa4_005e
                0x08103038       0x9a fonts/hdudispfConsolas22haa5.o
                0x08103038                Abc_font_consolas22haa4_005e
 *fill*         0x081030d2        0x2 
 .rodata.Abc_font_consolas22haa4_005f
                0x081030d4       0x9a fonts/hdudispfConsolas22haa5.o
                0x081030d4                Abc_font_consolas22haa4_005f
 *fill*         0x0810316e        0x2 
 .rodata.Abc_font_consolas22haa4_0060
                0x08103170       0x9a fonts/hdudispfConsolas22haa5.o
                0x08103170                Abc_font_consolas22haa4_0060
 *fill*         0x0810320a        0x2 
 .rodata.Abc_font_consolas22haa4_0061
                0x0810320c       0x9a fonts/hdudispfConsolas22haa5.o
                0x0810320c                Abc_font_consolas22haa4_0061
 *fill*         0x081032a6        0x2 
 .rodata.Abc_font_consolas22haa4_0062
                0x081032a8       0x9a fonts/hdudispfConsolas22haa5.o
                0x081032a8                Abc_font_consolas22haa4_0062
 *fill*         0x08103342        0x2 
 .rodata.Abc_font_consolas22haa4_0063
                0x08103344       0x9a fonts/hdudispfConsolas22haa5.o
                0x08103344                Abc_font_consolas22haa4_0063
 *fill*         0x081033de        0x2 
 .rodata.Abc_font_consolas22haa4_0064
                0x081033e0       0x9a fonts/hdudispfConsolas22haa5.o
                0x081033e0                Abc_font_consolas22haa4_0064
 *fill*         0x0810347a        0x2 
 .rodata.Abc_font_consolas22haa4_0065
                0x0810347c       0x9a fonts/hdudispfConsolas22haa5.o
                0x0810347c                Abc_font_consolas22haa4_0065
 *fill*         0x08103516        0x2 
 .rodata.Abc_font_consolas22haa4_0066
                0x08103518       0x9a fonts/hdudispfConsolas22haa5.o
                0x08103518                Abc_font_consolas22haa4_0066
 *fill*         0x081035b2        0x2 
 .rodata.Abc_font_consolas22haa4_0067
                0x081035b4       0x9a fonts/hdudispfConsolas22haa5.o
                0x081035b4                Abc_font_consolas22haa4_0067
 *fill*         0x0810364e        0x2 
 .rodata.Abc_font_consolas22haa4_0068
                0x08103650       0x9a fonts/hdudispfConsolas22haa5.o
                0x08103650                Abc_font_consolas22haa4_0068
 *fill*         0x081036ea        0x2 
 .rodata.Abc_font_consolas22haa4_0069
                0x081036ec       0x9a fonts/hdudispfConsolas22haa5.o
                0x081036ec                Abc_font_consolas22haa4_0069
 *fill*         0x08103786        0x2 
 .rodata.Abc_font_consolas22haa4_006a
                0x08103788       0x9a fonts/hdudispfConsolas22haa5.o
                0x08103788                Abc_font_consolas22haa4_006a
 *fill*         0x08103822        0x2 
 .rodata.Abc_font_consolas22haa4_006b
                0x08103824       0x9a fonts/hdudispfConsolas22haa5.o
                0x08103824                Abc_font_consolas22haa4_006b
 *fill*         0x081038be        0x2 
 .rodata.Abc_font_consolas22haa4_006c
                0x081038c0       0x9a fonts/hdudispfConsolas22haa5.o
                0x081038c0                Abc_font_consolas22haa4_006c
 *fill*         0x0810395a        0x2 
 .rodata.Abc_font_consolas22haa4_006d
                0x0810395c       0x9a fonts/hdudispfConsolas22haa5.o
                0x0810395c                Abc_font_consolas22haa4_006d
 *fill*         0x081039f6        0x2 
 .rodata.Abc_font_consolas22haa4_006e
                0x081039f8       0x9a fonts/hdudispfConsolas22haa5.o
                0x081039f8                Abc_font_consolas22haa4_006e
 *fill*         0x08103a92        0x2 
 .rodata.Abc_font_consolas22haa4_006f
                0x08103a94       0x9a fonts/hdudispfConsolas22haa5.o
                0x08103a94                Abc_font_consolas22haa4_006f
 *fill*         0x08103b2e        0x2 
 .rodata.Abc_font_consolas22haa4_0070
                0x08103b30       0x9a fonts/hdudispfConsolas22haa5.o
                0x08103b30                Abc_font_consolas22haa4_0070
 *fill*         0x08103bca        0x2 
 .rodata.Abc_font_consolas22haa4_0071
                0x08103bcc       0x9a fonts/hdudispfConsolas22haa5.o
                0x08103bcc                Abc_font_consolas22haa4_0071
 *fill*         0x08103c66        0x2 
 .rodata.Abc_font_consolas22haa4_0072
                0x08103c68       0x9a fonts/hdudispfConsolas22haa5.o
                0x08103c68                Abc_font_consolas22haa4_0072
 *fill*         0x08103d02        0x2 
 .rodata.Abc_font_consolas22haa4_0073
                0x08103d04       0x9a fonts/hdudispfConsolas22haa5.o
                0x08103d04                Abc_font_consolas22haa4_0073
 *fill*         0x08103d9e        0x2 
 .rodata.Abc_font_consolas22haa4_0074
                0x08103da0       0x9a fonts/hdudispfConsolas22haa5.o
                0x08103da0                Abc_font_consolas22haa4_0074
 *fill*         0x08103e3a        0x2 
 .rodata.Abc_font_consolas22haa4_0075
                0x08103e3c       0x9a fonts/hdudispfConsolas22haa5.o
                0x08103e3c                Abc_font_consolas22haa4_0075
 *fill*         0x08103ed6        0x2 
 .rodata.Abc_font_consolas22haa4_0076
                0x08103ed8       0x9a fonts/hdudispfConsolas22haa5.o
                0x08103ed8                Abc_font_consolas22haa4_0076
 *fill*         0x08103f72        0x2 
 .rodata.Abc_font_consolas22haa4_0077
                0x08103f74       0x9a fonts/hdudispfConsolas22haa5.o
                0x08103f74                Abc_font_consolas22haa4_0077
 *fill*         0x0810400e        0x2 
 .rodata.Abc_font_consolas22haa4_0078
                0x08104010       0x9a fonts/hdudispfConsolas22haa5.o
                0x08104010                Abc_font_consolas22haa4_0078
 *fill*         0x081040aa        0x2 
 .rodata.Abc_font_consolas22haa4_0079
                0x081040ac       0x9a fonts/hdudispfConsolas22haa5.o
                0x081040ac                Abc_font_consolas22haa4_0079
 *fill*         0x08104146        0x2 
 .rodata.Abc_font_consolas22haa4_007a
                0x08104148       0x9a fonts/hdudispfConsolas22haa5.o
                0x08104148                Abc_font_consolas22haa4_007a
 *fill*         0x081041e2        0x2 
 .rodata.Abc_font_consolas22haa4_007b
                0x081041e4       0x9a fonts/hdudispfConsolas22haa5.o
                0x081041e4                Abc_font_consolas22haa4_007b
 *fill*         0x0810427e        0x2 
 .rodata.Abc_font_consolas22haa4_007c
                0x08104280       0x9a fonts/hdudispfConsolas22haa5.o
                0x08104280                Abc_font_consolas22haa4_007c
 *fill*         0x0810431a        0x2 
 .rodata.Abc_font_consolas22haa4_007d
                0x0810431c       0x9a fonts/hdudispfConsolas22haa5.o
                0x0810431c                Abc_font_consolas22haa4_007d
 *fill*         0x081043b6        0x2 
 .rodata.Abc_font_consolas22haa4_007e
                0x081043b8       0x9a fonts/hdudispfConsolas22haa5.o
                0x081043b8                Abc_font_consolas22haa4_007e
 *fill*         0x08104452        0x2 
 .rodata.Abc_font_consolas22haa4_007f
                0x08104454       0x84 fonts/hdudispfConsolas22haa5.o
                0x08104454                Abc_font_consolas22haa4_007f
 .rodata.Abc_font_consolas22haa4_0090
                0x081044d8       0x9a fonts/hdudispfConsolas22haa5.o
                0x081044d8                Abc_font_consolas22haa4_0090
 *fill*         0x08104572        0x2 
 .rodata.Abc_font_consolas22haa4_0091
                0x08104574       0x9a fonts/hdudispfConsolas22haa5.o
                0x08104574                Abc_font_consolas22haa4_0091
 *fill*         0x0810460e        0x2 
 .rodata.Abc_font_consolas22haa4_0092
                0x08104610       0x9a fonts/hdudispfConsolas22haa5.o
                0x08104610                Abc_font_consolas22haa4_0092
 *fill*         0x081046aa        0x2 
 .rodata.Abc_font_consolas22haa4_0093
                0x081046ac       0x9a fonts/hdudispfConsolas22haa5.o
                0x081046ac                Abc_font_consolas22haa4_0093
 *fill*         0x08104746        0x2 
 .rodata.Abc_font_consolas22haa4_0094
                0x08104748       0x9a fonts/hdudispfConsolas22haa5.o
                0x08104748                Abc_font_consolas22haa4_0094
 *fill*         0x081047e2        0x2 
 .rodata.Abc_font_consolas22haa4_0095
                0x081047e4       0x9a fonts/hdudispfConsolas22haa5.o
                0x081047e4                Abc_font_consolas22haa4_0095
 *fill*         0x0810487e        0x2 
 .rodata.Abc_font_consolas22haa4_0096
                0x08104880       0x9a fonts/hdudispfConsolas22haa5.o
                0x08104880                Abc_font_consolas22haa4_0096
 *fill*         0x0810491a        0x2 
 .rodata.Abc_font_consolas22haa4_0097
                0x0810491c       0x2c fonts/hdudispfConsolas22haa5.o
                0x0810491c                Abc_font_consolas22haa4_0097
 .rodata.Abc_font_consolas22haa4_0098
                0x08104948       0x2c fonts/hdudispfConsolas22haa5.o
                0x08104948                Abc_font_consolas22haa4_0098
 .rodata.Abc_font_consolas22haa4_0099
                0x08104974       0x2c fonts/hdudispfConsolas22haa5.o
                0x08104974                Abc_font_consolas22haa4_0099
 .rodata.Abc_font_consolas22haa4_009a
                0x081049a0       0x2c fonts/hdudispfConsolas22haa5.o
                0x081049a0                Abc_font_consolas22haa4_009a
 .rodata.Abc_font_consolas22haa4_009b
                0x081049cc       0x2c fonts/hdudispfConsolas22haa5.o
                0x081049cc                Abc_font_consolas22haa4_009b
 .rodata.Abc_font_consolas22haa4_009c
                0x081049f8       0x2c fonts/hdudispfConsolas22haa5.o
                0x081049f8                Abc_font_consolas22haa4_009c
 .rodata.Abc_font_consolas22haa4_009d
                0x08104a24       0x84 fonts/hdudispfConsolas22haa5.o
                0x08104a24                Abc_font_consolas22haa4_009d
 .rodata.Abc_font_consolas22haa4_009e
                0x08104aa8       0x2c fonts/hdudispfConsolas22haa5.o
                0x08104aa8                Abc_font_consolas22haa4_009e
 .rodata.Abc_font_consolas22haa4_009f
                0x08104ad4       0x2c fonts/hdudispfConsolas22haa5.o
                0x08104ad4                Abc_font_consolas22haa4_009f
 .rodata.Abc_font_consolas22haa4_00a0
                0x08104b00       0x9a fonts/hdudispfConsolas22haa5.o
                0x08104b00                Abc_font_consolas22haa4_00a0
 *fill*         0x08104b9a        0x2 
 .rodata.Abc_font_consolas22haa4_00a1
                0x08104b9c       0x9a fonts/hdudispfConsolas22haa5.o
                0x08104b9c                Abc_font_consolas22haa4_00a1
 *fill*         0x08104c36        0x2 
 .rodata.Abc_font_consolas22haa4_00a2
                0x08104c38       0x9a fonts/hdudispfConsolas22haa5.o
                0x08104c38                Abc_font_consolas22haa4_00a2
 *fill*         0x08104cd2        0x2 
 .rodata.Abc_font_consolas22haa4_00a3
                0x08104cd4       0x9a fonts/hdudispfConsolas22haa5.o
                0x08104cd4                Abc_font_consolas22haa4_00a3
 *fill*         0x08104d6e        0x2 
 .rodata.Abc_font_consolas22haa4_00a4
                0x08104d70       0x9a fonts/hdudispfConsolas22haa5.o
                0x08104d70                Abc_font_consolas22haa4_00a4
 *fill*         0x08104e0a        0x2 
 .rodata.Abc_font_consolas22haa4_00a5
                0x08104e0c       0x9a fonts/hdudispfConsolas22haa5.o
                0x08104e0c                Abc_font_consolas22haa4_00a5
 *fill*         0x08104ea6        0x2 
 .rodata.Abc_font_consolas22haa4_00a6
                0x08104ea8       0x9a fonts/hdudispfConsolas22haa5.o
                0x08104ea8                Abc_font_consolas22haa4_00a6
 *fill*         0x08104f42        0x2 
 .rodata.Abc_font_consolas22haa4_00a7
                0x08104f44       0x9a fonts/hdudispfConsolas22haa5.o
                0x08104f44                Abc_font_consolas22haa4_00a7
 *fill*         0x08104fde        0x2 
 .rodata.Abc_font_consolas22haa4_00a8
                0x08104fe0       0x9a fonts/hdudispfConsolas22haa5.o
                0x08104fe0                Abc_font_consolas22haa4_00a8
 *fill*         0x0810507a        0x2 
 .rodata.Abc_font_consolas22haa4_00a9
                0x0810507c       0x9a fonts/hdudispfConsolas22haa5.o
                0x0810507c                Abc_font_consolas22haa4_00a9
 *fill*         0x08105116        0x2 
 .rodata.Abc_font_consolas22haa4_00aa
                0x08105118       0x9a fonts/hdudispfConsolas22haa5.o
                0x08105118                Abc_font_consolas22haa4_00aa
 *fill*         0x081051b2        0x2 
 .rodata.Abc_font_consolas22haa4_00ab
                0x081051b4       0x9a fonts/hdudispfConsolas22haa5.o
                0x081051b4                Abc_font_consolas22haa4_00ab
 *fill*         0x0810524e        0x2 
 .rodata.Abc_font_consolas22haa4_00ac
                0x08105250       0x9a fonts/hdudispfConsolas22haa5.o
                0x08105250                Abc_font_consolas22haa4_00ac
 *fill*         0x081052ea        0x2 
 .rodata.Abc_font_consolas22haa4_00ad
                0x081052ec       0x9a fonts/hdudispfConsolas22haa5.o
                0x081052ec                Abc_font_consolas22haa4_00ad
 *fill*         0x08105386        0x2 
 .rodata.Abc_font_consolas22haa4_00ae
                0x08105388       0x9a fonts/hdudispfConsolas22haa5.o
                0x08105388                Abc_font_consolas22haa4_00ae
 *fill*         0x08105422        0x2 
 .rodata.Abc_font_consolas22haa4_00af
                0x08105424       0x9a fonts/hdudispfConsolas22haa5.o
                0x08105424                Abc_font_consolas22haa4_00af
 *fill*         0x081054be        0x2 
 .rodata.Abc_font_consolas22haa4_00b0
                0x081054c0       0x9a fonts/hdudispfConsolas22haa5.o
                0x081054c0                Abc_font_consolas22haa4_00b0
 *fill*         0x0810555a        0x2 
 .rodata.Abc_font_consolas22haa4_00b1
                0x0810555c       0x9a fonts/hdudispfConsolas22haa5.o
                0x0810555c                Abc_font_consolas22haa4_00b1
 *fill*         0x081055f6        0x2 
 .rodata.Abc_font_consolas22haa4_00b2
                0x081055f8       0x9a fonts/hdudispfConsolas22haa5.o
                0x081055f8                Abc_font_consolas22haa4_00b2
 *fill*         0x08105692        0x2 
 .rodata.Abc_font_consolas22haa4_00b3
                0x08105694       0x9a fonts/hdudispfConsolas22haa5.o
                0x08105694                Abc_font_consolas22haa4_00b3
 *fill*         0x0810572e        0x2 
 .rodata.Abc_font_consolas22haa4_00b4
                0x08105730       0x9a fonts/hdudispfConsolas22haa5.o
                0x08105730                Abc_font_consolas22haa4_00b4
 *fill*         0x081057ca        0x2 
 .rodata.Abc_font_consolas22haa4_00b5
                0x081057cc       0x9a fonts/hdudispfConsolas22haa5.o
                0x081057cc                Abc_font_consolas22haa4_00b5
 *fill*         0x08105866        0x2 
 .rodata.Abc_font_consolas22haa4_00b6
                0x08105868       0x9a fonts/hdudispfConsolas22haa5.o
                0x08105868                Abc_font_consolas22haa4_00b6
 *fill*         0x08105902        0x2 
 .rodata.Abc_font_consolas22haa4_00b7
                0x08105904       0x9a fonts/hdudispfConsolas22haa5.o
                0x08105904                Abc_font_consolas22haa4_00b7
 *fill*         0x0810599e        0x2 
 .rodata.Abc_font_consolas22haa4_00b8
                0x081059a0       0x9a fonts/hdudispfConsolas22haa5.o
                0x081059a0                Abc_font_consolas22haa4_00b8
 *fill*         0x08105a3a        0x2 
 .rodata.Abc_font_consolas22haa4_00b9
                0x08105a3c       0x9a fonts/hdudispfConsolas22haa5.o
                0x08105a3c                Abc_font_consolas22haa4_00b9
 *fill*         0x08105ad6        0x2 
 .rodata.Abc_font_consolas22haa4_00ba
                0x08105ad8       0x9a fonts/hdudispfConsolas22haa5.o
                0x08105ad8                Abc_font_consolas22haa4_00ba
 *fill*         0x08105b72        0x2 
 .rodata.Abc_font_consolas22haa4_00bb
                0x08105b74       0x9a fonts/hdudispfConsolas22haa5.o
                0x08105b74                Abc_font_consolas22haa4_00bb
 *fill*         0x08105c0e        0x2 
 .rodata.Abc_font_consolas22haa4_00bc
                0x08105c10       0x9a fonts/hdudispfConsolas22haa5.o
                0x08105c10                Abc_font_consolas22haa4_00bc
 *fill*         0x08105caa        0x2 
 .rodata.Abc_font_consolas22haa4_00bd
                0x08105cac       0x9a fonts/hdudispfConsolas22haa5.o
                0x08105cac                Abc_font_consolas22haa4_00bd
 *fill*         0x08105d46        0x2 
 .rodata.Abc_font_consolas22haa4_00be
                0x08105d48       0x9a fonts/hdudispfConsolas22haa5.o
                0x08105d48                Abc_font_consolas22haa4_00be
 *fill*         0x08105de2        0x2 
 .rodata.Abc_font_consolas22haa4_00bf
                0x08105de4       0x9a fonts/hdudispfConsolas22haa5.o
                0x08105de4                Abc_font_consolas22haa4_00bf
 *fill*         0x08105e7e        0x2 
 .rodata.Abc_font_consolas22haa4_00c0
                0x08105e80       0x9a fonts/hdudispfConsolas22haa5.o
                0x08105e80                Abc_font_consolas22haa4_00c0
 *fill*         0x08105f1a        0x2 
 .rodata.Abc_font_consolas22haa4_00c1
                0x08105f1c       0x9a fonts/hdudispfConsolas22haa5.o
                0x08105f1c                Abc_font_consolas22haa4_00c1
 *fill*         0x08105fb6        0x2 
 .rodata.Abc_font_consolas22haa4_00c2
                0x08105fb8       0x9a fonts/hdudispfConsolas22haa5.o
                0x08105fb8                Abc_font_consolas22haa4_00c2
 *fill*         0x08106052        0x2 
 .rodata.Abc_font_consolas22haa4_00c3
                0x08106054       0x9a fonts/hdudispfConsolas22haa5.o
                0x08106054                Abc_font_consolas22haa4_00c3
 *fill*         0x081060ee        0x2 
 .rodata.Abc_font_consolas22haa4_00c4
                0x081060f0       0x9a fonts/hdudispfConsolas22haa5.o
                0x081060f0                Abc_font_consolas22haa4_00c4
 *fill*         0x0810618a        0x2 
 .rodata.Abc_font_consolas22haa4_00c5
                0x0810618c       0x9a fonts/hdudispfConsolas22haa5.o
                0x0810618c                Abc_font_consolas22haa4_00c5
 *fill*         0x08106226        0x2 
 .rodata.Abc_font_consolas22haa4_00c6
                0x08106228       0x9a fonts/hdudispfConsolas22haa5.o
                0x08106228                Abc_font_consolas22haa4_00c6
 *fill*         0x081062c2        0x2 
 .rodata.Abc_font_consolas22haa4_00c7
                0x081062c4       0x9a fonts/hdudispfConsolas22haa5.o
                0x081062c4                Abc_font_consolas22haa4_00c7
 *fill*         0x0810635e        0x2 
 .rodata.Abc_font_consolas22haa4_00c8
                0x08106360       0x9a fonts/hdudispfConsolas22haa5.o
                0x08106360                Abc_font_consolas22haa4_00c8
 *fill*         0x081063fa        0x2 
 .rodata.Abc_font_consolas22haa4_00c9
                0x081063fc       0x9a fonts/hdudispfConsolas22haa5.o
                0x081063fc                Abc_font_consolas22haa4_00c9
 *fill*         0x08106496        0x2 
 .rodata.Abc_font_consolas22haa4_00ca
                0x08106498       0x9a fonts/hdudispfConsolas22haa5.o
                0x08106498                Abc_font_consolas22haa4_00ca
 *fill*         0x08106532        0x2 
 .rodata.Abc_font_consolas22haa4_00cb
                0x08106534       0x9a fonts/hdudispfConsolas22haa5.o
                0x08106534                Abc_font_consolas22haa4_00cb
 *fill*         0x081065ce        0x2 
 .rodata.Abc_font_consolas22haa4_00cc
                0x081065d0       0x9a fonts/hdudispfConsolas22haa5.o
                0x081065d0                Abc_font_consolas22haa4_00cc
 *fill*         0x0810666a        0x2 
 .rodata.Abc_font_consolas22haa4_00cd
                0x0810666c       0x9a fonts/hdudispfConsolas22haa5.o
                0x0810666c                Abc_font_consolas22haa4_00cd
 *fill*         0x08106706        0x2 
 .rodata.Abc_font_consolas22haa4_00ce
                0x08106708       0x9a fonts/hdudispfConsolas22haa5.o
                0x08106708                Abc_font_consolas22haa4_00ce
 *fill*         0x081067a2        0x2 
 .rodata.Abc_font_consolas22haa4_00cf
                0x081067a4       0x9a fonts/hdudispfConsolas22haa5.o
                0x081067a4                Abc_font_consolas22haa4_00cf
 *fill*         0x0810683e        0x2 
 .rodata.Abc_font_consolas22haa4_00d0
                0x08106840       0x9a fonts/hdudispfConsolas22haa5.o
                0x08106840                Abc_font_consolas22haa4_00d0
 *fill*         0x081068da        0x2 
 .rodata.Abc_font_consolas22haa4_00d1
                0x081068dc       0x9a fonts/hdudispfConsolas22haa5.o
                0x081068dc                Abc_font_consolas22haa4_00d1
 *fill*         0x08106976        0x2 
 .rodata.Abc_font_consolas22haa4_00d2
                0x08106978       0x9a fonts/hdudispfConsolas22haa5.o
                0x08106978                Abc_font_consolas22haa4_00d2
 *fill*         0x08106a12        0x2 
 .rodata.Abc_font_consolas22haa4_00d3
                0x08106a14       0x9a fonts/hdudispfConsolas22haa5.o
                0x08106a14                Abc_font_consolas22haa4_00d3
 *fill*         0x08106aae        0x2 
 .rodata.Abc_font_consolas22haa4_00d4
                0x08106ab0       0x9a fonts/hdudispfConsolas22haa5.o
                0x08106ab0                Abc_font_consolas22haa4_00d4
 *fill*         0x08106b4a        0x2 
 .rodata.Abc_font_consolas22haa4_00d5
                0x08106b4c       0x9a fonts/hdudispfConsolas22haa5.o
                0x08106b4c                Abc_font_consolas22haa4_00d5
 *fill*         0x08106be6        0x2 
 .rodata.Abc_font_consolas22haa4_00d6
                0x08106be8       0x9a fonts/hdudispfConsolas22haa5.o
                0x08106be8                Abc_font_consolas22haa4_00d6
 *fill*         0x08106c82        0x2 
 .rodata.Abc_font_consolas22haa4_00d7
                0x08106c84       0x9a fonts/hdudispfConsolas22haa5.o
                0x08106c84                Abc_font_consolas22haa4_00d7
 *fill*         0x08106d1e        0x2 
 .rodata.Abc_font_consolas22haa4_00d8
                0x08106d20       0x9a fonts/hdudispfConsolas22haa5.o
                0x08106d20                Abc_font_consolas22haa4_00d8
 *fill*         0x08106dba        0x2 
 .rodata.Abc_font_consolas22haa4_00d9
                0x08106dbc       0x9a fonts/hdudispfConsolas22haa5.o
                0x08106dbc                Abc_font_consolas22haa4_00d9
 *fill*         0x08106e56        0x2 
 .rodata.Abc_font_consolas22haa4_00da
                0x08106e58       0x9a fonts/hdudispfConsolas22haa5.o
                0x08106e58                Abc_font_consolas22haa4_00da
 *fill*         0x08106ef2        0x2 
 .rodata.Abc_font_consolas22haa4_00db
                0x08106ef4       0x9a fonts/hdudispfConsolas22haa5.o
                0x08106ef4                Abc_font_consolas22haa4_00db
 *fill*         0x08106f8e        0x2 
 .rodata.Abc_font_consolas22haa4_00dc
                0x08106f90       0x9a fonts/hdudispfConsolas22haa5.o
                0x08106f90                Abc_font_consolas22haa4_00dc
 *fill*         0x0810702a        0x2 
 .rodata.Abc_font_consolas22haa4_00dd
                0x0810702c       0x9a fonts/hdudispfConsolas22haa5.o
                0x0810702c                Abc_font_consolas22haa4_00dd
 *fill*         0x081070c6        0x2 
 .rodata.Abc_font_consolas22haa4_00de
                0x081070c8       0x9a fonts/hdudispfConsolas22haa5.o
                0x081070c8                Abc_font_consolas22haa4_00de
 *fill*         0x08107162        0x2 
 .rodata.Abc_font_consolas22haa4_00df
                0x08107164       0x9a fonts/hdudispfConsolas22haa5.o
                0x08107164                Abc_font_consolas22haa4_00df
 *fill*         0x081071fe        0x2 
 .rodata.Abc_font_consolas22haa4_00e0
                0x08107200       0x9a fonts/hdudispfConsolas22haa5.o
                0x08107200                Abc_font_consolas22haa4_00e0
 *fill*         0x0810729a        0x2 
 .rodata.Abc_font_consolas22haa4_00e1
                0x0810729c       0x9a fonts/hdudispfConsolas22haa5.o
                0x0810729c                Abc_font_consolas22haa4_00e1
 *fill*         0x08107336        0x2 
 .rodata.Abc_font_consolas22haa4_00e2
                0x08107338       0x9a fonts/hdudispfConsolas22haa5.o
                0x08107338                Abc_font_consolas22haa4_00e2
 *fill*         0x081073d2        0x2 
 .rodata.Abc_font_consolas22haa4_00e3
                0x081073d4       0x9a fonts/hdudispfConsolas22haa5.o
                0x081073d4                Abc_font_consolas22haa4_00e3
 *fill*         0x0810746e        0x2 
 .rodata.Abc_font_consolas22haa4_00e4
                0x08107470       0x9a fonts/hdudispfConsolas22haa5.o
                0x08107470                Abc_font_consolas22haa4_00e4
 *fill*         0x0810750a        0x2 
 .rodata.Abc_font_consolas22haa4_00e5
                0x0810750c       0x9a fonts/hdudispfConsolas22haa5.o
                0x0810750c                Abc_font_consolas22haa4_00e5
 *fill*         0x081075a6        0x2 
 .rodata.Abc_font_consolas22haa4_00e6
                0x081075a8       0x9a fonts/hdudispfConsolas22haa5.o
                0x081075a8                Abc_font_consolas22haa4_00e6
 *fill*         0x08107642        0x2 
 .rodata.Abc_font_consolas22haa4_00e7
                0x08107644       0x9a fonts/hdudispfConsolas22haa5.o
                0x08107644                Abc_font_consolas22haa4_00e7
 *fill*         0x081076de        0x2 
 .rodata.Abc_font_consolas22haa4_00e8
                0x081076e0       0x9a fonts/hdudispfConsolas22haa5.o
                0x081076e0                Abc_font_consolas22haa4_00e8
 *fill*         0x0810777a        0x2 
 .rodata.Abc_font_consolas22haa4_00e9
                0x0810777c       0x9a fonts/hdudispfConsolas22haa5.o
                0x0810777c                Abc_font_consolas22haa4_00e9
 *fill*         0x08107816        0x2 
 .rodata.Abc_font_consolas22haa4_00ea
                0x08107818       0x9a fonts/hdudispfConsolas22haa5.o
                0x08107818                Abc_font_consolas22haa4_00ea
 *fill*         0x081078b2        0x2 
 .rodata.Abc_font_consolas22haa4_00eb
                0x081078b4       0x9a fonts/hdudispfConsolas22haa5.o
                0x081078b4                Abc_font_consolas22haa4_00eb
 *fill*         0x0810794e        0x2 
 .rodata.Abc_font_consolas22haa4_00ec
                0x08107950       0x9a fonts/hdudispfConsolas22haa5.o
                0x08107950                Abc_font_consolas22haa4_00ec
 *fill*         0x081079ea        0x2 
 .rodata.Abc_font_consolas22haa4_00ed
                0x081079ec       0x9a fonts/hdudispfConsolas22haa5.o
                0x081079ec                Abc_font_consolas22haa4_00ed
 *fill*         0x08107a86        0x2 
 .rodata.Abc_font_consolas22haa4_00ee
                0x08107a88       0x9a fonts/hdudispfConsolas22haa5.o
                0x08107a88                Abc_font_consolas22haa4_00ee
 *fill*         0x08107b22        0x2 
 .rodata.Abc_font_consolas22haa4_00ef
                0x08107b24       0x9a fonts/hdudispfConsolas22haa5.o
                0x08107b24                Abc_font_consolas22haa4_00ef
 *fill*         0x08107bbe        0x2 
 .rodata.Abc_font_consolas22haa4_00f0
                0x08107bc0       0x9a fonts/hdudispfConsolas22haa5.o
                0x08107bc0                Abc_font_consolas22haa4_00f0
 *fill*         0x08107c5a        0x2 
 .rodata.Abc_font_consolas22haa4_00f1
                0x08107c5c       0x9a fonts/hdudispfConsolas22haa5.o
                0x08107c5c                Abc_font_consolas22haa4_00f1
 *fill*         0x08107cf6        0x2 
 .rodata.Abc_font_consolas22haa4_00f2
                0x08107cf8       0x9a fonts/hdudispfConsolas22haa5.o
                0x08107cf8                Abc_font_consolas22haa4_00f2
 *fill*         0x08107d92        0x2 
 .rodata.Abc_font_consolas22haa4_00f3
                0x08107d94       0x9a fonts/hdudispfConsolas22haa5.o
                0x08107d94                Abc_font_consolas22haa4_00f3
 *fill*         0x08107e2e        0x2 
 .rodata.Abc_font_consolas22haa4_00f4
                0x08107e30       0x9a fonts/hdudispfConsolas22haa5.o
                0x08107e30                Abc_font_consolas22haa4_00f4
 *fill*         0x08107eca        0x2 
 .rodata.Abc_font_consolas22haa4_00f5
                0x08107ecc       0x9a fonts/hdudispfConsolas22haa5.o
                0x08107ecc                Abc_font_consolas22haa4_00f5
 *fill*         0x08107f66        0x2 
 .rodata.Abc_font_consolas22haa4_00f6
                0x08107f68       0x9a fonts/hdudispfConsolas22haa5.o
                0x08107f68                Abc_font_consolas22haa4_00f6
 *fill*         0x08108002        0x2 
 .rodata.Abc_font_consolas22haa4_00f7
                0x08108004       0x9a fonts/hdudispfConsolas22haa5.o
                0x08108004                Abc_font_consolas22haa4_00f7
 *fill*         0x0810809e        0x2 
 .rodata.Abc_font_consolas22haa4_00f8
                0x081080a0       0x9a fonts/hdudispfConsolas22haa5.o
                0x081080a0                Abc_font_consolas22haa4_00f8
 *fill*         0x0810813a        0x2 
 .rodata.Abc_font_consolas22haa4_00f9
                0x0810813c       0x9a fonts/hdudispfConsolas22haa5.o
                0x0810813c                Abc_font_consolas22haa4_00f9
 *fill*         0x081081d6        0x2 
 .rodata.Abc_font_consolas22haa4_00fa
                0x081081d8       0x9a fonts/hdudispfConsolas22haa5.o
                0x081081d8                Abc_font_consolas22haa4_00fa
 *fill*         0x08108272        0x2 
 .rodata.Abc_font_consolas22haa4_00fb
                0x08108274       0x9a fonts/hdudispfConsolas22haa5.o
                0x08108274                Abc_font_consolas22haa4_00fb
 *fill*         0x0810830e        0x2 
 .rodata.Abc_font_consolas22haa4_00fc
                0x08108310       0x9a fonts/hdudispfConsolas22haa5.o
                0x08108310                Abc_font_consolas22haa4_00fc
 *fill*         0x081083aa        0x2 
 .rodata.Abc_font_consolas22haa4_00fd
                0x081083ac       0x9a fonts/hdudispfConsolas22haa5.o
                0x081083ac                Abc_font_consolas22haa4_00fd
 *fill*         0x08108446        0x2 
 .rodata.Abc_font_consolas22haa4_00fe
                0x08108448       0x9a fonts/hdudispfConsolas22haa5.o
                0x08108448                Abc_font_consolas22haa4_00fe
 *fill*         0x081084e2        0x2 
 .rodata.Abc_font_consolas22haa4_00ff
                0x081084e4      0x108 fonts/hdudispfConsolas22haa5.o
                0x081084e4                Abc_font_consolas22haa4_00ff
 .rodata.Font_consolas22haa4_info
                0x081085ec      0x700 fonts/hdudispfConsolas22haa5.o
                0x081085ec                Font_consolas22haa4_info
 .rodata.Font_consolas22haa4_prop2
                0x08108cec        0xc fonts/hdudispfConsolas22haa5.o
                0x08108cec                Font_consolas22haa4_prop2
 .rodata.Font_consolas22haa4_prop1
                0x08108cf8        0xc fonts/hdudispfConsolas22haa5.o
                0x08108cf8                Font_consolas22haa4_prop1
 .rodata.Font_small_10inch
                0x08108d04       0x10 fonts/hdudispfConsolas22haa5.o
                0x08108d04                Font_small_10inch
 .rodata.Abc_font_30haa4_0010
                0x08108d14       0xf0 fonts/hdudispfConsolas30haa5.o
                0x08108d14                Abc_font_30haa4_0010
 .rodata.Abc_font_30haa4_0011
                0x08108e04       0xf0 fonts/hdudispfConsolas30haa5.o
                0x08108e04                Abc_font_30haa4_0011
 .rodata.Abc_font_30haa4_0012
                0x08108ef4       0xf0 fonts/hdudispfConsolas30haa5.o
                0x08108ef4                Abc_font_30haa4_0012
 .rodata.Abc_font_30haa4_0013
                0x08108fe4       0xf0 fonts/hdudispfConsolas30haa5.o
                0x08108fe4                Abc_font_30haa4_0013
 .rodata.Abc_font_30haa4_0014
                0x081090d4       0xf0 fonts/hdudispfConsolas30haa5.o
                0x081090d4                Abc_font_30haa4_0014
 .rodata.Abc_font_30haa4_0015
                0x081091c4       0xf0 fonts/hdudispfConsolas30haa5.o
                0x081091c4                Abc_font_30haa4_0015
 .rodata.Abc_font_30haa4_0016
                0x081092b4       0xf0 fonts/hdudispfConsolas30haa5.o
                0x081092b4                Abc_font_30haa4_0016
 .rodata.Abc_font_30haa4_0017
                0x081093a4       0x3c fonts/hdudispfConsolas30haa5.o
                0x081093a4                Abc_font_30haa4_0017
 .rodata.Abc_font_30haa4_0018
                0x081093e0       0x3c fonts/hdudispfConsolas30haa5.o
                0x081093e0                Abc_font_30haa4_0018
 .rodata.Abc_font_30haa4_0019
                0x0810941c       0x1e fonts/hdudispfConsolas30haa5.o
                0x0810941c                Abc_font_30haa4_0019
 *fill*         0x0810943a        0x2 
 .rodata.Abc_font_30haa4_001a
                0x0810943c       0x1e fonts/hdudispfConsolas30haa5.o
                0x0810943c                Abc_font_30haa4_001a
 *fill*         0x0810945a        0x2 
 .rodata.Abc_font_30haa4_001b
                0x0810945c       0xf0 fonts/hdudispfConsolas30haa5.o
                0x0810945c                Abc_font_30haa4_001b
 .rodata.Abc_font_30haa4_001c
                0x0810954c       0xf0 fonts/hdudispfConsolas30haa5.o
                0x0810954c                Abc_font_30haa4_001c
 .rodata.Abc_font_30haa4_001d
                0x0810963c       0xf0 fonts/hdudispfConsolas30haa5.o
                0x0810963c                Abc_font_30haa4_001d
 .rodata.Abc_font_30haa4_001e
                0x0810972c       0xf0 fonts/hdudispfConsolas30haa5.o
                0x0810972c                Abc_font_30haa4_001e
 .rodata.Abc_font_30haa4_001f
                0x0810981c       0xf0 fonts/hdudispfConsolas30haa5.o
                0x0810981c                Abc_font_30haa4_001f
 .rodata.Abc_font_30haa4_0020
                0x0810990c       0xf0 fonts/hdudispfConsolas30haa5.o
                0x0810990c                Abc_font_30haa4_0020
 .rodata.Abc_font_30haa4_0021
                0x081099fc       0xf0 fonts/hdudispfConsolas30haa5.o
                0x081099fc                Abc_font_30haa4_0021
 .rodata.Abc_font_30haa4_0022
                0x08109aec       0xf0 fonts/hdudispfConsolas30haa5.o
                0x08109aec                Abc_font_30haa4_0022
 .rodata.Abc_font_30haa4_0023
                0x08109bdc       0xf0 fonts/hdudispfConsolas30haa5.o
                0x08109bdc                Abc_font_30haa4_0023
 .rodata.Abc_font_30haa4_0024
                0x08109ccc       0xf0 fonts/hdudispfConsolas30haa5.o
                0x08109ccc                Abc_font_30haa4_0024
 .rodata.Abc_font_30haa4_0025
                0x08109dbc       0xf0 fonts/hdudispfConsolas30haa5.o
                0x08109dbc                Abc_font_30haa4_0025
 .rodata.Abc_font_30haa4_0026
                0x08109eac       0xf0 fonts/hdudispfConsolas30haa5.o
                0x08109eac                Abc_font_30haa4_0026
 .rodata.Abc_font_30haa4_0027
                0x08109f9c       0xf0 fonts/hdudispfConsolas30haa5.o
                0x08109f9c                Abc_font_30haa4_0027
 .rodata.Abc_font_30haa4_0028
                0x0810a08c       0xf0 fonts/hdudispfConsolas30haa5.o
                0x0810a08c                Abc_font_30haa4_0028
 .rodata.Abc_font_30haa4_0029
                0x0810a17c       0xf0 fonts/hdudispfConsolas30haa5.o
                0x0810a17c                Abc_font_30haa4_0029
 .rodata.Abc_font_30haa4_002a
                0x0810a26c       0xf0 fonts/hdudispfConsolas30haa5.o
                0x0810a26c                Abc_font_30haa4_002a
 .rodata.Abc_font_30haa4_002b
                0x0810a35c       0xf0 fonts/hdudispfConsolas30haa5.o
                0x0810a35c                Abc_font_30haa4_002b
 .rodata.Abc_font_30haa4_002c
                0x0810a44c       0xf0 fonts/hdudispfConsolas30haa5.o
                0x0810a44c                Abc_font_30haa4_002c
 .rodata.Abc_font_30haa4_002d
                0x0810a53c       0xf0 fonts/hdudispfConsolas30haa5.o
                0x0810a53c                Abc_font_30haa4_002d
 .rodata.Abc_font_30haa4_002e
                0x0810a62c       0xf0 fonts/hdudispfConsolas30haa5.o
                0x0810a62c                Abc_font_30haa4_002e
 .rodata.Abc_font_30haa4_002f
                0x0810a71c       0xf0 fonts/hdudispfConsolas30haa5.o
                0x0810a71c                Abc_font_30haa4_002f
 .rodata.Abc_font_30haa4_0030
                0x0810a80c       0xf0 fonts/hdudispfConsolas30haa5.o
                0x0810a80c                Abc_font_30haa4_0030
 .rodata.Abc_font_30haa4_0031
                0x0810a8fc       0xf0 fonts/hdudispfConsolas30haa5.o
                0x0810a8fc                Abc_font_30haa4_0031
 .rodata.Abc_font_30haa4_0032
                0x0810a9ec       0xf0 fonts/hdudispfConsolas30haa5.o
                0x0810a9ec                Abc_font_30haa4_0032
 .rodata.Abc_font_30haa4_0033
                0x0810aadc       0xf0 fonts/hdudispfConsolas30haa5.o
                0x0810aadc                Abc_font_30haa4_0033
 .rodata.Abc_font_30haa4_0034
                0x0810abcc       0xf0 fonts/hdudispfConsolas30haa5.o
                0x0810abcc                Abc_font_30haa4_0034
 .rodata.Abc_font_30haa4_0035
                0x0810acbc       0xf0 fonts/hdudispfConsolas30haa5.o
                0x0810acbc                Abc_font_30haa4_0035
 .rodata.Abc_font_30haa4_0036
                0x0810adac       0xf0 fonts/hdudispfConsolas30haa5.o
                0x0810adac                Abc_font_30haa4_0036
 .rodata.Abc_font_30haa4_0037
                0x0810ae9c       0xf0 fonts/hdudispfConsolas30haa5.o
                0x0810ae9c                Abc_font_30haa4_0037
 .rodata.Abc_font_30haa4_0038
                0x0810af8c       0xf0 fonts/hdudispfConsolas30haa5.o
                0x0810af8c                Abc_font_30haa4_0038
 .rodata.Abc_font_30haa4_0039
                0x0810b07c       0xf0 fonts/hdudispfConsolas30haa5.o
                0x0810b07c                Abc_font_30haa4_0039
 .rodata.Abc_font_30haa4_003a
                0x0810b16c       0xf0 fonts/hdudispfConsolas30haa5.o
                0x0810b16c                Abc_font_30haa4_003a
 .rodata.Abc_font_30haa4_003b
                0x0810b25c       0xf0 fonts/hdudispfConsolas30haa5.o
                0x0810b25c                Abc_font_30haa4_003b
 .rodata.Abc_font_30haa4_003c
                0x0810b34c       0xf0 fonts/hdudispfConsolas30haa5.o
                0x0810b34c                Abc_font_30haa4_003c
 .rodata.Abc_font_30haa4_003d
                0x0810b43c       0xf0 fonts/hdudispfConsolas30haa5.o
                0x0810b43c                Abc_font_30haa4_003d
 .rodata.Abc_font_30haa4_003e
                0x0810b52c       0xf0 fonts/hdudispfConsolas30haa5.o
                0x0810b52c                Abc_font_30haa4_003e
 .rodata.Abc_font_30haa4_003f
                0x0810b61c       0xf0 fonts/hdudispfConsolas30haa5.o
                0x0810b61c                Abc_font_30haa4_003f
 .rodata.Abc_font_30haa4_0040
                0x0810b70c       0xf0 fonts/hdudispfConsolas30haa5.o
                0x0810b70c                Abc_font_30haa4_0040
 .rodata.Abc_font_30haa4_0041
                0x0810b7fc       0xf0 fonts/hdudispfConsolas30haa5.o
                0x0810b7fc                Abc_font_30haa4_0041
 .rodata.Abc_font_30haa4_0042
                0x0810b8ec       0xf0 fonts/hdudispfConsolas30haa5.o
                0x0810b8ec                Abc_font_30haa4_0042
 .rodata.Abc_font_30haa4_0043
                0x0810b9dc       0xf0 fonts/hdudispfConsolas30haa5.o
                0x0810b9dc                Abc_font_30haa4_0043
 .rodata.Abc_font_30haa4_0044
                0x0810bacc       0xf0 fonts/hdudispfConsolas30haa5.o
                0x0810bacc                Abc_font_30haa4_0044
 .rodata.Abc_font_30haa4_0045
                0x0810bbbc       0xf0 fonts/hdudispfConsolas30haa5.o
                0x0810bbbc                Abc_font_30haa4_0045
 .rodata.Abc_font_30haa4_0046
                0x0810bcac       0xf0 fonts/hdudispfConsolas30haa5.o
                0x0810bcac                Abc_font_30haa4_0046
 .rodata.Abc_font_30haa4_0047
                0x0810bd9c       0xf0 fonts/hdudispfConsolas30haa5.o
                0x0810bd9c                Abc_font_30haa4_0047
 .rodata.Abc_font_30haa4_0048
                0x0810be8c       0xf0 fonts/hdudispfConsolas30haa5.o
                0x0810be8c                Abc_font_30haa4_0048
 .rodata.Abc_font_30haa4_0049
                0x0810bf7c       0xf0 fonts/hdudispfConsolas30haa5.o
                0x0810bf7c                Abc_font_30haa4_0049
 .rodata.Abc_font_30haa4_004a
                0x0810c06c       0xf0 fonts/hdudispfConsolas30haa5.o
                0x0810c06c                Abc_font_30haa4_004a
 .rodata.Abc_font_30haa4_004b
                0x0810c15c       0xf0 fonts/hdudispfConsolas30haa5.o
                0x0810c15c                Abc_font_30haa4_004b
 .rodata.Abc_font_30haa4_004c
                0x0810c24c       0xf0 fonts/hdudispfConsolas30haa5.o
                0x0810c24c                Abc_font_30haa4_004c
 .rodata.Abc_font_30haa4_004d
                0x0810c33c       0xf0 fonts/hdudispfConsolas30haa5.o
                0x0810c33c                Abc_font_30haa4_004d
 .rodata.Abc_font_30haa4_004e
                0x0810c42c       0xf0 fonts/hdudispfConsolas30haa5.o
                0x0810c42c                Abc_font_30haa4_004e
 .rodata.Abc_font_30haa4_004f
                0x0810c51c       0xf0 fonts/hdudispfConsolas30haa5.o
                0x0810c51c                Abc_font_30haa4_004f
 .rodata.Abc_font_30haa4_0050
                0x0810c60c       0xf0 fonts/hdudispfConsolas30haa5.o
                0x0810c60c                Abc_font_30haa4_0050
 .rodata.Abc_font_30haa4_0051
                0x0810c6fc       0xf0 fonts/hdudispfConsolas30haa5.o
                0x0810c6fc                Abc_font_30haa4_0051
 .rodata.Abc_font_30haa4_0052
                0x0810c7ec       0xf0 fonts/hdudispfConsolas30haa5.o
                0x0810c7ec                Abc_font_30haa4_0052
 .rodata.Abc_font_30haa4_0053
                0x0810c8dc       0xf0 fonts/hdudispfConsolas30haa5.o
                0x0810c8dc                Abc_font_30haa4_0053
 .rodata.Abc_font_30haa4_0054
                0x0810c9cc       0xf0 fonts/hdudispfConsolas30haa5.o
                0x0810c9cc                Abc_font_30haa4_0054
 .rodata.Abc_font_30haa4_0055
                0x0810cabc       0xf0 fonts/hdudispfConsolas30haa5.o
                0x0810cabc                Abc_font_30haa4_0055
 .rodata.Abc_font_30haa4_0056
                0x0810cbac       0xf0 fonts/hdudispfConsolas30haa5.o
                0x0810cbac                Abc_font_30haa4_0056
 .rodata.Abc_font_30haa4_0057
                0x0810cc9c       0xf0 fonts/hdudispfConsolas30haa5.o
                0x0810cc9c                Abc_font_30haa4_0057
 .rodata.Abc_font_30haa4_0058
                0x0810cd8c       0xf0 fonts/hdudispfConsolas30haa5.o
                0x0810cd8c                Abc_font_30haa4_0058
 .rodata.Abc_font_30haa4_0059
                0x0810ce7c       0xf0 fonts/hdudispfConsolas30haa5.o
                0x0810ce7c                Abc_font_30haa4_0059
 .rodata.Abc_font_30haa4_005a
                0x0810cf6c       0xf0 fonts/hdudispfConsolas30haa5.o
                0x0810cf6c                Abc_font_30haa4_005a
 .rodata.Abc_font_30haa4_005b
                0x0810d05c       0xf0 fonts/hdudispfConsolas30haa5.o
                0x0810d05c                Abc_font_30haa4_005b
 .rodata.Abc_font_30haa4_005c
                0x0810d14c       0xf0 fonts/hdudispfConsolas30haa5.o
                0x0810d14c                Abc_font_30haa4_005c
 .rodata.Abc_font_30haa4_005d
                0x0810d23c       0xf0 fonts/hdudispfConsolas30haa5.o
                0x0810d23c                Abc_font_30haa4_005d
 .rodata.Abc_font_30haa4_005e
                0x0810d32c       0xf0 fonts/hdudispfConsolas30haa5.o
                0x0810d32c                Abc_font_30haa4_005e
 .rodata.Abc_font_30haa4_005f
                0x0810d41c       0xf0 fonts/hdudispfConsolas30haa5.o
                0x0810d41c                Abc_font_30haa4_005f
 .rodata.Abc_font_30haa4_0060
                0x0810d50c       0xf0 fonts/hdudispfConsolas30haa5.o
                0x0810d50c                Abc_font_30haa4_0060
 .rodata.Abc_font_30haa4_0061
                0x0810d5fc       0xf0 fonts/hdudispfConsolas30haa5.o
                0x0810d5fc                Abc_font_30haa4_0061
 .rodata.Abc_font_30haa4_0062
                0x0810d6ec       0xf0 fonts/hdudispfConsolas30haa5.o
                0x0810d6ec                Abc_font_30haa4_0062
 .rodata.Abc_font_30haa4_0063
                0x0810d7dc       0xf0 fonts/hdudispfConsolas30haa5.o
                0x0810d7dc                Abc_font_30haa4_0063
 .rodata.Abc_font_30haa4_0064
                0x0810d8cc       0xf0 fonts/hdudispfConsolas30haa5.o
                0x0810d8cc                Abc_font_30haa4_0064
 .rodata.Abc_font_30haa4_0065
                0x0810d9bc       0xf0 fonts/hdudispfConsolas30haa5.o
                0x0810d9bc                Abc_font_30haa4_0065
 .rodata.Abc_font_30haa4_0066
                0x0810daac       0xf0 fonts/hdudispfConsolas30haa5.o
                0x0810daac                Abc_font_30haa4_0066
 .rodata.Abc_font_30haa4_0067
                0x0810db9c       0xf0 fonts/hdudispfConsolas30haa5.o
                0x0810db9c                Abc_font_30haa4_0067
 .rodata.Abc_font_30haa4_0068
                0x0810dc8c       0xf0 fonts/hdudispfConsolas30haa5.o
                0x0810dc8c                Abc_font_30haa4_0068
 .rodata.Abc_font_30haa4_0069
                0x0810dd7c       0xf0 fonts/hdudispfConsolas30haa5.o
                0x0810dd7c                Abc_font_30haa4_0069
 .rodata.Abc_font_30haa4_006a
                0x0810de6c       0xf0 fonts/hdudispfConsolas30haa5.o
                0x0810de6c                Abc_font_30haa4_006a
 .rodata.Abc_font_30haa4_006b
                0x0810df5c       0xf0 fonts/hdudispfConsolas30haa5.o
                0x0810df5c                Abc_font_30haa4_006b
 .rodata.Abc_font_30haa4_006c
                0x0810e04c       0xf0 fonts/hdudispfConsolas30haa5.o
                0x0810e04c                Abc_font_30haa4_006c
 .rodata.Abc_font_30haa4_006d
                0x0810e13c       0xf0 fonts/hdudispfConsolas30haa5.o
                0x0810e13c                Abc_font_30haa4_006d
 .rodata.Abc_font_30haa4_006e
                0x0810e22c       0xf0 fonts/hdudispfConsolas30haa5.o
                0x0810e22c                Abc_font_30haa4_006e
 .rodata.Abc_font_30haa4_006f
                0x0810e31c       0xf0 fonts/hdudispfConsolas30haa5.o
                0x0810e31c                Abc_font_30haa4_006f
 .rodata.Abc_font_30haa4_0070
                0x0810e40c       0xf0 fonts/hdudispfConsolas30haa5.o
                0x0810e40c                Abc_font_30haa4_0070
 .rodata.Abc_font_30haa4_0071
                0x0810e4fc       0xf0 fonts/hdudispfConsolas30haa5.o
                0x0810e4fc                Abc_font_30haa4_0071
 .rodata.Abc_font_30haa4_0072
                0x0810e5ec       0xf0 fonts/hdudispfConsolas30haa5.o
                0x0810e5ec                Abc_font_30haa4_0072
 .rodata.Abc_font_30haa4_0073
                0x0810e6dc       0xf0 fonts/hdudispfConsolas30haa5.o
                0x0810e6dc                Abc_font_30haa4_0073
 .rodata.Abc_font_30haa4_0074
                0x0810e7cc       0xf0 fonts/hdudispfConsolas30haa5.o
                0x0810e7cc                Abc_font_30haa4_0074
 .rodata.Abc_font_30haa4_0075
                0x0810e8bc       0xf0 fonts/hdudispfConsolas30haa5.o
                0x0810e8bc                Abc_font_30haa4_0075
 .rodata.Abc_font_30haa4_0076
                0x0810e9ac       0xf0 fonts/hdudispfConsolas30haa5.o
                0x0810e9ac                Abc_font_30haa4_0076
 .rodata.Abc_font_30haa4_0077
                0x0810ea9c       0xf0 fonts/hdudispfConsolas30haa5.o
                0x0810ea9c                Abc_font_30haa4_0077
 .rodata.Abc_font_30haa4_0078
                0x0810eb8c       0xf0 fonts/hdudispfConsolas30haa5.o
                0x0810eb8c                Abc_font_30haa4_0078
 .rodata.Abc_font_30haa4_0079
                0x0810ec7c       0xf0 fonts/hdudispfConsolas30haa5.o
                0x0810ec7c                Abc_font_30haa4_0079
 .rodata.Abc_font_30haa4_007a
                0x0810ed6c       0xf0 fonts/hdudispfConsolas30haa5.o
                0x0810ed6c                Abc_font_30haa4_007a
 .rodata.Abc_font_30haa4_007b
                0x0810ee5c       0xf0 fonts/hdudispfConsolas30haa5.o
                0x0810ee5c                Abc_font_30haa4_007b
 .rodata.Abc_font_30haa4_007c
                0x0810ef4c       0xf0 fonts/hdudispfConsolas30haa5.o
                0x0810ef4c                Abc_font_30haa4_007c
 .rodata.Abc_font_30haa4_007d
                0x0810f03c       0xf0 fonts/hdudispfConsolas30haa5.o
                0x0810f03c                Abc_font_30haa4_007d
 .rodata.Abc_font_30haa4_007e
                0x0810f12c       0xf0 fonts/hdudispfConsolas30haa5.o
                0x0810f12c                Abc_font_30haa4_007e
 .rodata.Abc_font_30haa4_007f
                0x0810f21c       0xf0 fonts/hdudispfConsolas30haa5.o
                0x0810f21c                Abc_font_30haa4_007f
 .rodata.Abc_font_30haa4_0090
                0x0810f30c       0xf0 fonts/hdudispfConsolas30haa5.o
                0x0810f30c                Abc_font_30haa4_0090
 .rodata.Abc_font_30haa4_0091
                0x0810f3fc       0xf0 fonts/hdudispfConsolas30haa5.o
                0x0810f3fc                Abc_font_30haa4_0091
 .rodata.Abc_font_30haa4_0092
                0x0810f4ec       0xf0 fonts/hdudispfConsolas30haa5.o
                0x0810f4ec                Abc_font_30haa4_0092
 .rodata.Abc_font_30haa4_0093
                0x0810f5dc       0xf0 fonts/hdudispfConsolas30haa5.o
                0x0810f5dc                Abc_font_30haa4_0093
 .rodata.Abc_font_30haa4_0094
                0x0810f6cc       0xf0 fonts/hdudispfConsolas30haa5.o
                0x0810f6cc                Abc_font_30haa4_0094
 .rodata.Abc_font_30haa4_0095
                0x0810f7bc       0xf0 fonts/hdudispfConsolas30haa5.o
                0x0810f7bc                Abc_font_30haa4_0095
 .rodata.Abc_font_30haa4_0096
                0x0810f8ac       0xf0 fonts/hdudispfConsolas30haa5.o
                0x0810f8ac                Abc_font_30haa4_0096
 .rodata.Abc_font_30haa4_0097
                0x0810f99c       0x3c fonts/hdudispfConsolas30haa5.o
                0x0810f99c                Abc_font_30haa4_0097
 .rodata.Abc_font_30haa4_0098
                0x0810f9d8       0x3c fonts/hdudispfConsolas30haa5.o
                0x0810f9d8                Abc_font_30haa4_0098
 .rodata.Abc_font_30haa4_0099
                0x0810fa14       0x1e fonts/hdudispfConsolas30haa5.o
                0x0810fa14                Abc_font_30haa4_0099
 *fill*         0x0810fa32        0x2 
 .rodata.Abc_font_30haa4_009a
                0x0810fa34       0xf0 fonts/hdudispfConsolas30haa5.o
                0x0810fa34                Abc_font_30haa4_009a
 .rodata.Abc_font_30haa4_009b
                0x0810fb24       0x3c fonts/hdudispfConsolas30haa5.o
                0x0810fb24                Abc_font_30haa4_009b
 .rodata.Abc_font_30haa4_009c
                0x0810fb60       0x3c fonts/hdudispfConsolas30haa5.o
                0x0810fb60                Abc_font_30haa4_009c
 .rodata.Abc_font_30haa4_009d
                0x0810fb9c       0xf0 fonts/hdudispfConsolas30haa5.o
                0x0810fb9c                Abc_font_30haa4_009d
 .rodata.Abc_font_30haa4_009e
                0x0810fc8c       0x3c fonts/hdudispfConsolas30haa5.o
                0x0810fc8c                Abc_font_30haa4_009e
 .rodata.Abc_font_30haa4_009f
                0x0810fcc8       0x3c fonts/hdudispfConsolas30haa5.o
                0x0810fcc8                Abc_font_30haa4_009f
 .rodata.Abc_font_30haa4_00a0
                0x0810fd04       0xf0 fonts/hdudispfConsolas30haa5.o
                0x0810fd04                Abc_font_30haa4_00a0
 .rodata.Abc_font_30haa4_00a1
                0x0810fdf4       0xf0 fonts/hdudispfConsolas30haa5.o
                0x0810fdf4                Abc_font_30haa4_00a1
 .rodata.Abc_font_30haa4_00a2
                0x0810fee4       0xf0 fonts/hdudispfConsolas30haa5.o
                0x0810fee4                Abc_font_30haa4_00a2
 .rodata.Abc_font_30haa4_00a3
                0x0810ffd4       0xf0 fonts/hdudispfConsolas30haa5.o
                0x0810ffd4                Abc_font_30haa4_00a3
 .rodata.Abc_font_30haa4_00a4
                0x081100c4       0xf0 fonts/hdudispfConsolas30haa5.o
                0x081100c4                Abc_font_30haa4_00a4
 .rodata.Abc_font_30haa4_00a5
                0x081101b4       0xf0 fonts/hdudispfConsolas30haa5.o
                0x081101b4                Abc_font_30haa4_00a5
 .rodata.Abc_font_30haa4_00a6
                0x081102a4       0xf0 fonts/hdudispfConsolas30haa5.o
                0x081102a4                Abc_font_30haa4_00a6
 .rodata.Abc_font_30haa4_00a7
                0x08110394       0xf0 fonts/hdudispfConsolas30haa5.o
                0x08110394                Abc_font_30haa4_00a7
 .rodata.Abc_font_30haa4_00a8
                0x08110484       0xf0 fonts/hdudispfConsolas30haa5.o
                0x08110484                Abc_font_30haa4_00a8
 .rodata.Abc_font_30haa4_00a9
                0x08110574       0xf0 fonts/hdudispfConsolas30haa5.o
                0x08110574                Abc_font_30haa4_00a9
 .rodata.Abc_font_30haa4_00aa
                0x08110664       0xf0 fonts/hdudispfConsolas30haa5.o
                0x08110664                Abc_font_30haa4_00aa
 .rodata.Abc_font_30haa4_00ab
                0x08110754       0xf0 fonts/hdudispfConsolas30haa5.o
                0x08110754                Abc_font_30haa4_00ab
 .rodata.Abc_font_30haa4_00ac
                0x08110844       0xf0 fonts/hdudispfConsolas30haa5.o
                0x08110844                Abc_font_30haa4_00ac
 .rodata.Abc_font_30haa4_00ad
                0x08110934       0xf0 fonts/hdudispfConsolas30haa5.o
                0x08110934                Abc_font_30haa4_00ad
 .rodata.Abc_font_30haa4_00ae
                0x08110a24       0xf0 fonts/hdudispfConsolas30haa5.o
                0x08110a24                Abc_font_30haa4_00ae
 .rodata.Abc_font_30haa4_00af
                0x08110b14       0xf0 fonts/hdudispfConsolas30haa5.o
                0x08110b14                Abc_font_30haa4_00af
 .rodata.Abc_font_30haa4_00b0
                0x08110c04       0xf0 fonts/hdudispfConsolas30haa5.o
                0x08110c04                Abc_font_30haa4_00b0
 .rodata.Abc_font_30haa4_00b1
                0x08110cf4       0xf0 fonts/hdudispfConsolas30haa5.o
                0x08110cf4                Abc_font_30haa4_00b1
 .rodata.Abc_font_30haa4_00b2
                0x08110de4       0xf0 fonts/hdudispfConsolas30haa5.o
                0x08110de4                Abc_font_30haa4_00b2
 .rodata.Abc_font_30haa4_00b3
                0x08110ed4       0xf0 fonts/hdudispfConsolas30haa5.o
                0x08110ed4                Abc_font_30haa4_00b3
 .rodata.Abc_font_30haa4_00b4
                0x08110fc4       0xf0 fonts/hdudispfConsolas30haa5.o
                0x08110fc4                Abc_font_30haa4_00b4
 .rodata.Abc_font_30haa4_00b5
                0x081110b4       0xf0 fonts/hdudispfConsolas30haa5.o
                0x081110b4                Abc_font_30haa4_00b5
 .rodata.Abc_font_30haa4_00b6
                0x081111a4       0xf0 fonts/hdudispfConsolas30haa5.o
                0x081111a4                Abc_font_30haa4_00b6
 .rodata.Abc_font_30haa4_00b7
                0x08111294       0xf0 fonts/hdudispfConsolas30haa5.o
                0x08111294                Abc_font_30haa4_00b7
 .rodata.Abc_font_30haa4_00b8
                0x08111384       0xf0 fonts/hdudispfConsolas30haa5.o
                0x08111384                Abc_font_30haa4_00b8
 .rodata.Abc_font_30haa4_00b9
                0x08111474       0xf0 fonts/hdudispfConsolas30haa5.o
                0x08111474                Abc_font_30haa4_00b9
 .rodata.Abc_font_30haa4_00ba
                0x08111564       0xf0 fonts/hdudispfConsolas30haa5.o
                0x08111564                Abc_font_30haa4_00ba
 .rodata.Abc_font_30haa4_00bb
                0x08111654       0xf0 fonts/hdudispfConsolas30haa5.o
                0x08111654                Abc_font_30haa4_00bb
 .rodata.Abc_font_30haa4_00bc
                0x08111744       0xf0 fonts/hdudispfConsolas30haa5.o
                0x08111744                Abc_font_30haa4_00bc
 .rodata.Abc_font_30haa4_00bd
                0x08111834       0xf0 fonts/hdudispfConsolas30haa5.o
                0x08111834                Abc_font_30haa4_00bd
 .rodata.Abc_font_30haa4_00be
                0x08111924       0xf0 fonts/hdudispfConsolas30haa5.o
                0x08111924                Abc_font_30haa4_00be
 .rodata.Abc_font_30haa4_00bf
                0x08111a14       0xf0 fonts/hdudispfConsolas30haa5.o
                0x08111a14                Abc_font_30haa4_00bf
 .rodata.Abc_font_30haa4_00c0
                0x08111b04       0xf0 fonts/hdudispfConsolas30haa5.o
                0x08111b04                Abc_font_30haa4_00c0
 .rodata.Abc_font_30haa4_00c1
                0x08111bf4       0xf0 fonts/hdudispfConsolas30haa5.o
                0x08111bf4                Abc_font_30haa4_00c1
 .rodata.Abc_font_30haa4_00c2
                0x08111ce4       0xf0 fonts/hdudispfConsolas30haa5.o
                0x08111ce4                Abc_font_30haa4_00c2
 .rodata.Abc_font_30haa4_00c3
                0x08111dd4       0xf0 fonts/hdudispfConsolas30haa5.o
                0x08111dd4                Abc_font_30haa4_00c3
 .rodata.Abc_font_30haa4_00c4
                0x08111ec4       0xf0 fonts/hdudispfConsolas30haa5.o
                0x08111ec4                Abc_font_30haa4_00c4
 .rodata.Abc_font_30haa4_00c5
                0x08111fb4       0xf0 fonts/hdudispfConsolas30haa5.o
                0x08111fb4                Abc_font_30haa4_00c5
 .rodata.Abc_font_30haa4_00c6
                0x081120a4       0xf0 fonts/hdudispfConsolas30haa5.o
                0x081120a4                Abc_font_30haa4_00c6
 .rodata.Abc_font_30haa4_00c7
                0x08112194       0xf0 fonts/hdudispfConsolas30haa5.o
                0x08112194                Abc_font_30haa4_00c7
 .rodata.Abc_font_30haa4_00c8
                0x08112284       0xf0 fonts/hdudispfConsolas30haa5.o
                0x08112284                Abc_font_30haa4_00c8
 .rodata.Abc_font_30haa4_00c9
                0x08112374       0xf0 fonts/hdudispfConsolas30haa5.o
                0x08112374                Abc_font_30haa4_00c9
 .rodata.Abc_font_30haa4_00ca
                0x08112464       0xf0 fonts/hdudispfConsolas30haa5.o
                0x08112464                Abc_font_30haa4_00ca
 .rodata.Abc_font_30haa4_00cb
                0x08112554       0xf0 fonts/hdudispfConsolas30haa5.o
                0x08112554                Abc_font_30haa4_00cb
 .rodata.Abc_font_30haa4_00cc
                0x08112644       0xf0 fonts/hdudispfConsolas30haa5.o
                0x08112644                Abc_font_30haa4_00cc
 .rodata.Abc_font_30haa4_00cd
                0x08112734       0xf0 fonts/hdudispfConsolas30haa5.o
                0x08112734                Abc_font_30haa4_00cd
 .rodata.Abc_font_30haa4_00ce
                0x08112824       0xf0 fonts/hdudispfConsolas30haa5.o
                0x08112824                Abc_font_30haa4_00ce
 .rodata.Abc_font_30haa4_00cf
                0x08112914       0xf0 fonts/hdudispfConsolas30haa5.o
                0x08112914                Abc_font_30haa4_00cf
 .rodata.Abc_font_30haa4_00d0
                0x08112a04       0xf0 fonts/hdudispfConsolas30haa5.o
                0x08112a04                Abc_font_30haa4_00d0
 .rodata.Abc_font_30haa4_00d1
                0x08112af4       0xf0 fonts/hdudispfConsolas30haa5.o
                0x08112af4                Abc_font_30haa4_00d1
 .rodata.Abc_font_30haa4_00d2
                0x08112be4       0xf0 fonts/hdudispfConsolas30haa5.o
                0x08112be4                Abc_font_30haa4_00d2
 .rodata.Abc_font_30haa4_00d3
                0x08112cd4       0xf0 fonts/hdudispfConsolas30haa5.o
                0x08112cd4                Abc_font_30haa4_00d3
 .rodata.Abc_font_30haa4_00d4
                0x08112dc4       0xf0 fonts/hdudispfConsolas30haa5.o
                0x08112dc4                Abc_font_30haa4_00d4
 .rodata.Abc_font_30haa4_00d5
                0x08112eb4       0xf0 fonts/hdudispfConsolas30haa5.o
                0x08112eb4                Abc_font_30haa4_00d5
 .rodata.Abc_font_30haa4_00d6
                0x08112fa4       0xf0 fonts/hdudispfConsolas30haa5.o
                0x08112fa4                Abc_font_30haa4_00d6
 .rodata.Abc_font_30haa4_00d7
                0x08113094       0xf0 fonts/hdudispfConsolas30haa5.o
                0x08113094                Abc_font_30haa4_00d7
 .rodata.Abc_font_30haa4_00d8
                0x08113184       0xf0 fonts/hdudispfConsolas30haa5.o
                0x08113184                Abc_font_30haa4_00d8
 .rodata.Abc_font_30haa4_00d9
                0x08113274       0xf0 fonts/hdudispfConsolas30haa5.o
                0x08113274                Abc_font_30haa4_00d9
 .rodata.Abc_font_30haa4_00da
                0x08113364       0xf0 fonts/hdudispfConsolas30haa5.o
                0x08113364                Abc_font_30haa4_00da
 .rodata.Abc_font_30haa4_00db
                0x08113454       0xf0 fonts/hdudispfConsolas30haa5.o
                0x08113454                Abc_font_30haa4_00db
 .rodata.Abc_font_30haa4_00dc
                0x08113544       0xf0 fonts/hdudispfConsolas30haa5.o
                0x08113544                Abc_font_30haa4_00dc
 .rodata.Abc_font_30haa4_00dd
                0x08113634       0xf0 fonts/hdudispfConsolas30haa5.o
                0x08113634                Abc_font_30haa4_00dd
 .rodata.Abc_font_30haa4_00de
                0x08113724       0xf0 fonts/hdudispfConsolas30haa5.o
                0x08113724                Abc_font_30haa4_00de
 .rodata.Abc_font_30haa4_00df
                0x08113814       0xf0 fonts/hdudispfConsolas30haa5.o
                0x08113814                Abc_font_30haa4_00df
 .rodata.Abc_font_30haa4_00e0
                0x08113904       0xf0 fonts/hdudispfConsolas30haa5.o
                0x08113904                Abc_font_30haa4_00e0
 .rodata.Abc_font_30haa4_00e1
                0x081139f4       0xf0 fonts/hdudispfConsolas30haa5.o
                0x081139f4                Abc_font_30haa4_00e1
 .rodata.Abc_font_30haa4_00e2
                0x08113ae4       0xf0 fonts/hdudispfConsolas30haa5.o
                0x08113ae4                Abc_font_30haa4_00e2
 .rodata.Abc_font_30haa4_00e3
                0x08113bd4       0xf0 fonts/hdudispfConsolas30haa5.o
                0x08113bd4                Abc_font_30haa4_00e3
 .rodata.Abc_font_30haa4_00e4
                0x08113cc4       0xf0 fonts/hdudispfConsolas30haa5.o
                0x08113cc4                Abc_font_30haa4_00e4
 .rodata.Abc_font_30haa4_00e5
                0x08113db4       0xf0 fonts/hdudispfConsolas30haa5.o
                0x08113db4                Abc_font_30haa4_00e5
 .rodata.Abc_font_30haa4_00e6
                0x08113ea4       0xf0 fonts/hdudispfConsolas30haa5.o
                0x08113ea4                Abc_font_30haa4_00e6
 .rodata.Abc_font_30haa4_00e7
                0x08113f94       0xf0 fonts/hdudispfConsolas30haa5.o
                0x08113f94                Abc_font_30haa4_00e7
 .rodata.Abc_font_30haa4_00e8
                0x08114084       0xf0 fonts/hdudispfConsolas30haa5.o
                0x08114084                Abc_font_30haa4_00e8
 .rodata.Abc_font_30haa4_00e9
                0x08114174       0xf0 fonts/hdudispfConsolas30haa5.o
                0x08114174                Abc_font_30haa4_00e9
 .rodata.Abc_font_30haa4_00ea
                0x08114264       0xf0 fonts/hdudispfConsolas30haa5.o
                0x08114264                Abc_font_30haa4_00ea
 .rodata.Abc_font_30haa4_00eb
                0x08114354       0xf0 fonts/hdudispfConsolas30haa5.o
                0x08114354                Abc_font_30haa4_00eb
 .rodata.Abc_font_30haa4_00ec
                0x08114444       0xf0 fonts/hdudispfConsolas30haa5.o
                0x08114444                Abc_font_30haa4_00ec
 .rodata.Abc_font_30haa4_00ed
                0x08114534       0xf0 fonts/hdudispfConsolas30haa5.o
                0x08114534                Abc_font_30haa4_00ed
 .rodata.Abc_font_30haa4_00ee
                0x08114624       0xf0 fonts/hdudispfConsolas30haa5.o
                0x08114624                Abc_font_30haa4_00ee
 .rodata.Abc_font_30haa4_00ef
                0x08114714       0xf0 fonts/hdudispfConsolas30haa5.o
                0x08114714                Abc_font_30haa4_00ef
 .rodata.Abc_font_30haa4_00f0
                0x08114804       0xf0 fonts/hdudispfConsolas30haa5.o
                0x08114804                Abc_font_30haa4_00f0
 .rodata.Abc_font_30haa4_00f1
                0x081148f4       0xf0 fonts/hdudispfConsolas30haa5.o
                0x081148f4                Abc_font_30haa4_00f1
 .rodata.Abc_font_30haa4_00f2
                0x081149e4       0xf0 fonts/hdudispfConsolas30haa5.o
                0x081149e4                Abc_font_30haa4_00f2
 .rodata.Abc_font_30haa4_00f3
                0x08114ad4       0xf0 fonts/hdudispfConsolas30haa5.o
                0x08114ad4                Abc_font_30haa4_00f3
 .rodata.Abc_font_30haa4_00f4
                0x08114bc4       0xf0 fonts/hdudispfConsolas30haa5.o
                0x08114bc4                Abc_font_30haa4_00f4
 .rodata.Abc_font_30haa4_00f5
                0x08114cb4       0xf0 fonts/hdudispfConsolas30haa5.o
                0x08114cb4                Abc_font_30haa4_00f5
 .rodata.Abc_font_30haa4_00f6
                0x08114da4       0xf0 fonts/hdudispfConsolas30haa5.o
                0x08114da4                Abc_font_30haa4_00f6
 .rodata.Abc_font_30haa4_00f7
                0x08114e94       0xf0 fonts/hdudispfConsolas30haa5.o
                0x08114e94                Abc_font_30haa4_00f7
 .rodata.Abc_font_30haa4_00f8
                0x08114f84       0xf0 fonts/hdudispfConsolas30haa5.o
                0x08114f84                Abc_font_30haa4_00f8
 .rodata.Abc_font_30haa4_00f9
                0x08115074       0xf0 fonts/hdudispfConsolas30haa5.o
                0x08115074                Abc_font_30haa4_00f9
 .rodata.Abc_font_30haa4_00fa
                0x08115164       0xf0 fonts/hdudispfConsolas30haa5.o
                0x08115164                Abc_font_30haa4_00fa
 .rodata.Abc_font_30haa4_00fb
                0x08115254       0xf0 fonts/hdudispfConsolas30haa5.o
                0x08115254                Abc_font_30haa4_00fb
 .rodata.Abc_font_30haa4_00fc
                0x08115344       0xf0 fonts/hdudispfConsolas30haa5.o
                0x08115344                Abc_font_30haa4_00fc
 .rodata.Abc_font_30haa4_00fd
                0x08115434       0xf0 fonts/hdudispfConsolas30haa5.o
                0x08115434                Abc_font_30haa4_00fd
 .rodata.Abc_font_30haa4_00fe
                0x08115524       0xf0 fonts/hdudispfConsolas30haa5.o
                0x08115524                Abc_font_30haa4_00fe
 .rodata.Abc_font_30haa4_00ff
                0x08115614      0x1c2 fonts/hdudispfConsolas30haa5.o
                0x08115614                Abc_font_30haa4_00ff
 *fill*         0x081157d6        0x2 
 .rodata.Font_consolas30haa4_char_info
                0x081157d8      0x700 fonts/hdudispfConsolas30haa5.o
                0x081157d8                Font_consolas30haa4_char_info
 .rodata.Font_consolas30haa4_prop2
                0x08115ed8        0xc fonts/hdudispfConsolas30haa5.o
                0x08115ed8                Font_consolas30haa4_prop2
 .rodata.Font_consolas30haa4_prop1
                0x08115ee4        0xc fonts/hdudispfConsolas30haa5.o
                0x08115ee4                Font_consolas30haa4_prop1
 .rodata.Font_normal_10inch
                0x08115ef0       0x10 fonts/hdudispfConsolas30haa5.o
                0x08115ef0                Font_normal_10inch
 .rodata.Abc_font_consolas42haa4_0010
                0x08115f00      0x1ce fonts/hdudispfConsolas42hAA4.o
                0x08115f00                Abc_font_consolas42haa4_0010
 *fill*         0x081160ce        0x2 
 .rodata.Abc_font_consolas42haa4_0011
                0x081160d0      0x1ce fonts/hdudispfConsolas42hAA4.o
                0x081160d0                Abc_font_consolas42haa4_0011
 *fill*         0x0811629e        0x2 
 .rodata.Abc_font_consolas42haa4_0012
                0x081162a0      0x1ce fonts/hdudispfConsolas42hAA4.o
                0x081162a0                Abc_font_consolas42haa4_0012
 *fill*         0x0811646e        0x2 
 .rodata.Abc_font_consolas42haa4_0013
                0x08116470      0x1ce fonts/hdudispfConsolas42hAA4.o
                0x08116470                Abc_font_consolas42haa4_0013
 *fill*         0x0811663e        0x2 
 .rodata.Abc_font_consolas42haa4_0014
                0x08116640      0x1ce fonts/hdudispfConsolas42hAA4.o
                0x08116640                Abc_font_consolas42haa4_0014
 *fill*         0x0811680e        0x2 
 .rodata.Abc_font_consolas42haa4_0015
                0x08116810      0x1ce fonts/hdudispfConsolas42hAA4.o
                0x08116810                Abc_font_consolas42haa4_0015
 *fill*         0x081169de        0x2 
 .rodata.Abc_font_consolas42haa4_0016
                0x081169e0      0x1ce fonts/hdudispfConsolas42hAA4.o
                0x081169e0                Abc_font_consolas42haa4_0016
 *fill*         0x08116bae        0x2 
 .rodata.Abc_font_consolas42haa4_0017
                0x08116bb0       0x7e fonts/hdudispfConsolas42hAA4.o
                0x08116bb0                Abc_font_consolas42haa4_0017
 *fill*         0x08116c2e        0x2 
 .rodata.Abc_font_consolas42haa4_0018
                0x08116c30       0x7e fonts/hdudispfConsolas42hAA4.o
                0x08116c30                Abc_font_consolas42haa4_0018
 *fill*         0x08116cae        0x2 
 .rodata.Abc_font_consolas42haa4_0019
                0x08116cb0      0x1a4 fonts/hdudispfConsolas42hAA4.o
                0x08116cb0                Abc_font_consolas42haa4_0019
 .rodata.Abc_font_consolas42haa4_001a
                0x08116e54      0x1a4 fonts/hdudispfConsolas42hAA4.o
                0x08116e54                Abc_font_consolas42haa4_001a
 .rodata.Abc_font_consolas42haa4_001b
                0x08116ff8      0x1a4 fonts/hdudispfConsolas42hAA4.o
                0x08116ff8                Abc_font_consolas42haa4_001b
 .rodata.Abc_font_consolas42haa4_001c
                0x0811719c      0x1a4 fonts/hdudispfConsolas42hAA4.o
                0x0811719c                Abc_font_consolas42haa4_001c
 .rodata.Abc_font_consolas42haa4_001d
                0x08117340      0x1a4 fonts/hdudispfConsolas42hAA4.o
                0x08117340                Abc_font_consolas42haa4_001d
 .rodata.Abc_font_consolas42haa4_001e
                0x081174e4      0x1a4 fonts/hdudispfConsolas42hAA4.o
                0x081174e4                Abc_font_consolas42haa4_001e
 .rodata.Abc_font_consolas42haa4_001f
                0x08117688      0x1a4 fonts/hdudispfConsolas42hAA4.o
                0x08117688                Abc_font_consolas42haa4_001f
 .rodata.Abc_font_consolas42haa4_0020
                0x0811782c      0x1ce fonts/hdudispfConsolas42hAA4.o
                0x0811782c                Abc_font_consolas42haa4_0020
 *fill*         0x081179fa        0x2 
 .rodata.Abc_font_consolas42haa4_0021
                0x081179fc      0x1ce fonts/hdudispfConsolas42hAA4.o
                0x081179fc                Abc_font_consolas42haa4_0021
 *fill*         0x08117bca        0x2 
 .rodata.Abc_font_consolas42haa4_0022
                0x08117bcc      0x1ce fonts/hdudispfConsolas42hAA4.o
                0x08117bcc                Abc_font_consolas42haa4_0022
 *fill*         0x08117d9a        0x2 
 .rodata.Abc_font_consolas42haa4_0023
                0x08117d9c      0x1ce fonts/hdudispfConsolas42hAA4.o
                0x08117d9c                Abc_font_consolas42haa4_0023
 *fill*         0x08117f6a        0x2 
 .rodata.Abc_font_consolas42haa4_0024
                0x08117f6c      0x1ce fonts/hdudispfConsolas42hAA4.o
                0x08117f6c                Abc_font_consolas42haa4_0024
 *fill*         0x0811813a        0x2 
 .rodata.Abc_font_consolas42haa4_0025
                0x0811813c      0x1ce fonts/hdudispfConsolas42hAA4.o
                0x0811813c                Abc_font_consolas42haa4_0025
 *fill*         0x0811830a        0x2 
 .rodata.Abc_font_consolas42haa4_0026
                0x0811830c      0x1f8 fonts/hdudispfConsolas42hAA4.o
                0x0811830c                Abc_font_consolas42haa4_0026
 .rodata.Abc_font_consolas42haa4_0027
                0x08118504      0x1ce fonts/hdudispfConsolas42hAA4.o
                0x08118504                Abc_font_consolas42haa4_0027
 *fill*         0x081186d2        0x2 
 .rodata.Abc_font_consolas42haa4_0028
                0x081186d4      0x1ce fonts/hdudispfConsolas42hAA4.o
                0x081186d4                Abc_font_consolas42haa4_0028
 *fill*         0x081188a2        0x2 
 .rodata.Abc_font_consolas42haa4_0029
                0x081188a4      0x1ce fonts/hdudispfConsolas42hAA4.o
                0x081188a4                Abc_font_consolas42haa4_0029
 *fill*         0x08118a72        0x2 
 .rodata.Abc_font_consolas42haa4_002a
                0x08118a74      0x1ce fonts/hdudispfConsolas42hAA4.o
                0x08118a74                Abc_font_consolas42haa4_002a
 *fill*         0x08118c42        0x2 
 .rodata.Abc_font_consolas42haa4_002b
                0x08118c44      0x1ce fonts/hdudispfConsolas42hAA4.o
                0x08118c44                Abc_font_consolas42haa4_002b
 *fill*         0x08118e12        0x2 
 .rodata.Abc_font_consolas42haa4_002c
                0x08118e14      0x1ce fonts/hdudispfConsolas42hAA4.o
                0x08118e14                Abc_font_consolas42haa4_002c
 *fill*         0x08118fe2        0x2 
 .rodata.Abc_font_consolas42haa4_002d
                0x08118fe4      0x1ce fonts/hdudispfConsolas42hAA4.o
                0x08118fe4                Abc_font_consolas42haa4_002d
 *fill*         0x081191b2        0x2 
 .rodata.Abc_font_consolas42haa4_002e
                0x081191b4      0x1ce fonts/hdudispfConsolas42hAA4.o
                0x081191b4                Abc_font_consolas42haa4_002e
 *fill*         0x08119382        0x2 
 .rodata.Abc_font_consolas42haa4_002f
                0x08119384      0x1ce fonts/hdudispfConsolas42hAA4.o
                0x08119384                Abc_font_consolas42haa4_002f
 *fill*         0x08119552        0x2 
 .rodata.Abc_font_consolas42haa4_0030
                0x08119554      0x1ce fonts/hdudispfConsolas42hAA4.o
                0x08119554                Abc_font_consolas42haa4_0030
 *fill*         0x08119722        0x2 
 .rodata.Abc_font_consolas42haa4_0031
                0x08119724      0x1ce fonts/hdudispfConsolas42hAA4.o
                0x08119724                Abc_font_consolas42haa4_0031
 *fill*         0x081198f2        0x2 
 .rodata.Abc_font_consolas42haa4_0032
                0x081198f4      0x1ce fonts/hdudispfConsolas42hAA4.o
                0x081198f4                Abc_font_consolas42haa4_0032
 *fill*         0x08119ac2        0x2 
 .rodata.Abc_font_consolas42haa4_0033
                0x08119ac4      0x1ce fonts/hdudispfConsolas42hAA4.o
                0x08119ac4                Abc_font_consolas42haa4_0033
 *fill*         0x08119c92        0x2 
 .rodata.Abc_font_consolas42haa4_0034
                0x08119c94      0x1ce fonts/hdudispfConsolas42hAA4.o
                0x08119c94                Abc_font_consolas42haa4_0034
 *fill*         0x08119e62        0x2 
 .rodata.Abc_font_consolas42haa4_0035
                0x08119e64      0x1ce fonts/hdudispfConsolas42hAA4.o
                0x08119e64                Abc_font_consolas42haa4_0035
 *fill*         0x0811a032        0x2 
 .rodata.Abc_font_consolas42haa4_0036
                0x0811a034      0x1ce fonts/hdudispfConsolas42hAA4.o
                0x0811a034                Abc_font_consolas42haa4_0036
 *fill*         0x0811a202        0x2 
 .rodata.Abc_font_consolas42haa4_0037
                0x0811a204      0x1ce fonts/hdudispfConsolas42hAA4.o
                0x0811a204                Abc_font_consolas42haa4_0037
 *fill*         0x0811a3d2        0x2 
 .rodata.Abc_font_consolas42haa4_0038
                0x0811a3d4      0x1ce fonts/hdudispfConsolas42hAA4.o
                0x0811a3d4                Abc_font_consolas42haa4_0038
 *fill*         0x0811a5a2        0x2 
 .rodata.Abc_font_consolas42haa4_0039
                0x0811a5a4      0x1ce fonts/hdudispfConsolas42hAA4.o
                0x0811a5a4                Abc_font_consolas42haa4_0039
 *fill*         0x0811a772        0x2 
 .rodata.Abc_font_consolas42haa4_003a
                0x0811a774      0x1ce fonts/hdudispfConsolas42hAA4.o
                0x0811a774                Abc_font_consolas42haa4_003a
 *fill*         0x0811a942        0x2 
 .rodata.Abc_font_consolas42haa4_003b
                0x0811a944      0x1ce fonts/hdudispfConsolas42hAA4.o
                0x0811a944                Abc_font_consolas42haa4_003b
 *fill*         0x0811ab12        0x2 
 .rodata.Abc_font_consolas42haa4_003c
                0x0811ab14      0x1ce fonts/hdudispfConsolas42hAA4.o
                0x0811ab14                Abc_font_consolas42haa4_003c
 *fill*         0x0811ace2        0x2 
 .rodata.Abc_font_consolas42haa4_003d
                0x0811ace4      0x1ce fonts/hdudispfConsolas42hAA4.o
                0x0811ace4                Abc_font_consolas42haa4_003d
 *fill*         0x0811aeb2        0x2 
 .rodata.Abc_font_consolas42haa4_003e
                0x0811aeb4      0x1ce fonts/hdudispfConsolas42hAA4.o
                0x0811aeb4                Abc_font_consolas42haa4_003e
 *fill*         0x0811b082        0x2 
 .rodata.Abc_font_consolas42haa4_003f
                0x0811b084      0x1ce fonts/hdudispfConsolas42hAA4.o
                0x0811b084                Abc_font_consolas42haa4_003f
 *fill*         0x0811b252        0x2 
 .rodata.Abc_font_consolas42haa4_0040
                0x0811b254      0x1ce fonts/hdudispfConsolas42hAA4.o
                0x0811b254                Abc_font_consolas42haa4_0040
 *fill*         0x0811b422        0x2 
 .rodata.Abc_font_consolas42haa4_0041
                0x0811b424      0x1ce fonts/hdudispfConsolas42hAA4.o
                0x0811b424                Abc_font_consolas42haa4_0041
 *fill*         0x0811b5f2        0x2 
 .rodata.Abc_font_consolas42haa4_0042
                0x0811b5f4      0x1ce fonts/hdudispfConsolas42hAA4.o
                0x0811b5f4                Abc_font_consolas42haa4_0042
 *fill*         0x0811b7c2        0x2 
 .rodata.Abc_font_consolas42haa4_0043
                0x0811b7c4      0x1ce fonts/hdudispfConsolas42hAA4.o
                0x0811b7c4                Abc_font_consolas42haa4_0043
 *fill*         0x0811b992        0x2 
 .rodata.Abc_font_consolas42haa4_0044
                0x0811b994      0x1ce fonts/hdudispfConsolas42hAA4.o
                0x0811b994                Abc_font_consolas42haa4_0044
 *fill*         0x0811bb62        0x2 
 .rodata.Abc_font_consolas42haa4_0045
                0x0811bb64      0x1ce fonts/hdudispfConsolas42hAA4.o
                0x0811bb64                Abc_font_consolas42haa4_0045
 *fill*         0x0811bd32        0x2 
 .rodata.Abc_font_consolas42haa4_0046
                0x0811bd34      0x1ce fonts/hdudispfConsolas42hAA4.o
                0x0811bd34                Abc_font_consolas42haa4_0046
 *fill*         0x0811bf02        0x2 
 .rodata.Abc_font_consolas42haa4_0047
                0x0811bf04      0x1ce fonts/hdudispfConsolas42hAA4.o
                0x0811bf04                Abc_font_consolas42haa4_0047
 *fill*         0x0811c0d2        0x2 
 .rodata.Abc_font_consolas42haa4_0048
                0x0811c0d4      0x1ce fonts/hdudispfConsolas42hAA4.o
                0x0811c0d4                Abc_font_consolas42haa4_0048
 *fill*         0x0811c2a2        0x2 
 .rodata.Abc_font_consolas42haa4_0049
                0x0811c2a4      0x1ce fonts/hdudispfConsolas42hAA4.o
                0x0811c2a4                Abc_font_consolas42haa4_0049
 *fill*         0x0811c472        0x2 
 .rodata.Abc_font_consolas42haa4_004a
                0x0811c474      0x1ce fonts/hdudispfConsolas42hAA4.o
                0x0811c474                Abc_font_consolas42haa4_004a
 *fill*         0x0811c642        0x2 
 .rodata.Abc_font_consolas42haa4_004b
                0x0811c644      0x1ce fonts/hdudispfConsolas42hAA4.o
                0x0811c644                Abc_font_consolas42haa4_004b
 *fill*         0x0811c812        0x2 
 .rodata.Abc_font_consolas42haa4_004c
                0x0811c814      0x1ce fonts/hdudispfConsolas42hAA4.o
                0x0811c814                Abc_font_consolas42haa4_004c
 *fill*         0x0811c9e2        0x2 
 .rodata.Abc_font_consolas42haa4_004d
                0x0811c9e4      0x1ce fonts/hdudispfConsolas42hAA4.o
                0x0811c9e4                Abc_font_consolas42haa4_004d
 *fill*         0x0811cbb2        0x2 
 .rodata.Abc_font_consolas42haa4_004e
                0x0811cbb4      0x1ce fonts/hdudispfConsolas42hAA4.o
                0x0811cbb4                Abc_font_consolas42haa4_004e
 *fill*         0x0811cd82        0x2 
 .rodata.Abc_font_consolas42haa4_004f
                0x0811cd84      0x1ce fonts/hdudispfConsolas42hAA4.o
                0x0811cd84                Abc_font_consolas42haa4_004f
 *fill*         0x0811cf52        0x2 
 .rodata.Abc_font_consolas42haa4_0050
                0x0811cf54      0x1ce fonts/hdudispfConsolas42hAA4.o
                0x0811cf54                Abc_font_consolas42haa4_0050
 *fill*         0x0811d122        0x2 
 .rodata.Abc_font_consolas42haa4_0051
                0x0811d124      0x1ce fonts/hdudispfConsolas42hAA4.o
                0x0811d124                Abc_font_consolas42haa4_0051
 *fill*         0x0811d2f2        0x2 
 .rodata.Abc_font_consolas42haa4_0052
                0x0811d2f4      0x1ce fonts/hdudispfConsolas42hAA4.o
                0x0811d2f4                Abc_font_consolas42haa4_0052
 *fill*         0x0811d4c2        0x2 
 .rodata.Abc_font_consolas42haa4_0053
                0x0811d4c4      0x1ce fonts/hdudispfConsolas42hAA4.o
                0x0811d4c4                Abc_font_consolas42haa4_0053
 *fill*         0x0811d692        0x2 
 .rodata.Abc_font_consolas42haa4_0054
                0x0811d694      0x1ce fonts/hdudispfConsolas42hAA4.o
                0x0811d694                Abc_font_consolas42haa4_0054
 *fill*         0x0811d862        0x2 
 .rodata.Abc_font_consolas42haa4_0055
                0x0811d864      0x1ce fonts/hdudispfConsolas42hAA4.o
                0x0811d864                Abc_font_consolas42haa4_0055
 *fill*         0x0811da32        0x2 
 .rodata.Abc_font_consolas42haa4_0056
                0x0811da34      0x1ce fonts/hdudispfConsolas42hAA4.o
                0x0811da34                Abc_font_consolas42haa4_0056
 *fill*         0x0811dc02        0x2 
 .rodata.Abc_font_consolas42haa4_0057
                0x0811dc04      0x1ce fonts/hdudispfConsolas42hAA4.o
                0x0811dc04                Abc_font_consolas42haa4_0057
 *fill*         0x0811ddd2        0x2 
 .rodata.Abc_font_consolas42haa4_0058
                0x0811ddd4      0x1ce fonts/hdudispfConsolas42hAA4.o
                0x0811ddd4                Abc_font_consolas42haa4_0058
 *fill*         0x0811dfa2        0x2 
 .rodata.Abc_font_consolas42haa4_0059
                0x0811dfa4      0x1f8 fonts/hdudispfConsolas42hAA4.o
                0x0811dfa4                Abc_font_consolas42haa4_0059
 .rodata.Abc_font_consolas42haa4_005a
                0x0811e19c      0x1ce fonts/hdudispfConsolas42hAA4.o
                0x0811e19c                Abc_font_consolas42haa4_005a
 *fill*         0x0811e36a        0x2 
 .rodata.Abc_font_consolas42haa4_005b
                0x0811e36c      0x1ce fonts/hdudispfConsolas42hAA4.o
                0x0811e36c                Abc_font_consolas42haa4_005b
 *fill*         0x0811e53a        0x2 
 .rodata.Abc_font_consolas42haa4_005c
                0x0811e53c      0x1ce fonts/hdudispfConsolas42hAA4.o
                0x0811e53c                Abc_font_consolas42haa4_005c
 *fill*         0x0811e70a        0x2 
 .rodata.Abc_font_consolas42haa4_005d
                0x0811e70c      0x1ce fonts/hdudispfConsolas42hAA4.o
                0x0811e70c                Abc_font_consolas42haa4_005d
 *fill*         0x0811e8da        0x2 
 .rodata.Abc_font_consolas42haa4_005e
                0x0811e8dc      0x1ce fonts/hdudispfConsolas42hAA4.o
                0x0811e8dc                Abc_font_consolas42haa4_005e
 *fill*         0x0811eaaa        0x2 
 .rodata.Abc_font_consolas42haa4_005f
                0x0811eaac      0x1ce fonts/hdudispfConsolas42hAA4.o
                0x0811eaac                Abc_font_consolas42haa4_005f
 *fill*         0x0811ec7a        0x2 
 .rodata.Abc_font_consolas42haa4_0060
                0x0811ec7c      0x1ce fonts/hdudispfConsolas42hAA4.o
                0x0811ec7c                Abc_font_consolas42haa4_0060
 *fill*         0x0811ee4a        0x2 
 .rodata.Abc_font_consolas42haa4_0061
                0x0811ee4c      0x1ce fonts/hdudispfConsolas42hAA4.o
                0x0811ee4c                Abc_font_consolas42haa4_0061
 *fill*         0x0811f01a        0x2 
 .rodata.Abc_font_consolas42haa4_0062
                0x0811f01c      0x1ce fonts/hdudispfConsolas42hAA4.o
                0x0811f01c                Abc_font_consolas42haa4_0062
 *fill*         0x0811f1ea        0x2 
 .rodata.Abc_font_consolas42haa4_0063
                0x0811f1ec      0x1ce fonts/hdudispfConsolas42hAA4.o
                0x0811f1ec                Abc_font_consolas42haa4_0063
 *fill*         0x0811f3ba        0x2 
 .rodata.Abc_font_consolas42haa4_0064
                0x0811f3bc      0x1ce fonts/hdudispfConsolas42hAA4.o
                0x0811f3bc                Abc_font_consolas42haa4_0064
 *fill*         0x0811f58a        0x2 
 .rodata.Abc_font_consolas42haa4_0065
                0x0811f58c      0x1ce fonts/hdudispfConsolas42hAA4.o
                0x0811f58c                Abc_font_consolas42haa4_0065
 *fill*         0x0811f75a        0x2 
 .rodata.Abc_font_consolas42haa4_0066
                0x0811f75c      0x1ce fonts/hdudispfConsolas42hAA4.o
                0x0811f75c                Abc_font_consolas42haa4_0066
 *fill*         0x0811f92a        0x2 
 .rodata.Abc_font_consolas42haa4_0067
                0x0811f92c      0x1ce fonts/hdudispfConsolas42hAA4.o
                0x0811f92c                Abc_font_consolas42haa4_0067
 *fill*         0x0811fafa        0x2 
 .rodata.Abc_font_consolas42haa4_0068
                0x0811fafc      0x1ce fonts/hdudispfConsolas42hAA4.o
                0x0811fafc                Abc_font_consolas42haa4_0068
 *fill*         0x0811fcca        0x2 
 .rodata.Abc_font_consolas42haa4_0069
                0x0811fccc      0x1ce fonts/hdudispfConsolas42hAA4.o
                0x0811fccc                Abc_font_consolas42haa4_0069
 *fill*         0x0811fe9a        0x2 
 .rodata.Abc_font_consolas42haa4_006a
                0x0811fe9c      0x1ce fonts/hdudispfConsolas42hAA4.o
                0x0811fe9c                Abc_font_consolas42haa4_006a
 *fill*         0x0812006a        0x2 
 .rodata.Abc_font_consolas42haa4_006b
                0x0812006c      0x1ce fonts/hdudispfConsolas42hAA4.o
                0x0812006c                Abc_font_consolas42haa4_006b
 *fill*         0x0812023a        0x2 
 .rodata.Abc_font_consolas42haa4_006c
                0x0812023c      0x1ce fonts/hdudispfConsolas42hAA4.o
                0x0812023c                Abc_font_consolas42haa4_006c
 *fill*         0x0812040a        0x2 
 .rodata.Abc_font_consolas42haa4_006d
                0x0812040c      0x1ce fonts/hdudispfConsolas42hAA4.o
                0x0812040c                Abc_font_consolas42haa4_006d
 *fill*         0x081205da        0x2 
 .rodata.Abc_font_consolas42haa4_006e
                0x081205dc      0x1ce fonts/hdudispfConsolas42hAA4.o
                0x081205dc                Abc_font_consolas42haa4_006e
 *fill*         0x081207aa        0x2 
 .rodata.Abc_font_consolas42haa4_006f
                0x081207ac      0x1ce fonts/hdudispfConsolas42hAA4.o
                0x081207ac                Abc_font_consolas42haa4_006f
 *fill*         0x0812097a        0x2 
 .rodata.Abc_font_consolas42haa4_0070
                0x0812097c      0x1ce fonts/hdudispfConsolas42hAA4.o
                0x0812097c                Abc_font_consolas42haa4_0070
 *fill*         0x08120b4a        0x2 
 .rodata.Abc_font_consolas42haa4_0071
                0x08120b4c      0x1ce fonts/hdudispfConsolas42hAA4.o
                0x08120b4c                Abc_font_consolas42haa4_0071
 *fill*         0x08120d1a        0x2 
 .rodata.Abc_font_consolas42haa4_0072
                0x08120d1c      0x1ce fonts/hdudispfConsolas42hAA4.o
                0x08120d1c                Abc_font_consolas42haa4_0072
 *fill*         0x08120eea        0x2 
 .rodata.Abc_font_consolas42haa4_0073
                0x08120eec      0x1ce fonts/hdudispfConsolas42hAA4.o
                0x08120eec                Abc_font_consolas42haa4_0073
 *fill*         0x081210ba        0x2 
 .rodata.Abc_font_consolas42haa4_0074
                0x081210bc      0x1ce fonts/hdudispfConsolas42hAA4.o
                0x081210bc                Abc_font_consolas42haa4_0074
 *fill*         0x0812128a        0x2 
 .rodata.Abc_font_consolas42haa4_0075
                0x0812128c      0x1ce fonts/hdudispfConsolas42hAA4.o
                0x0812128c                Abc_font_consolas42haa4_0075
 *fill*         0x0812145a        0x2 
 .rodata.Abc_font_consolas42haa4_0076
                0x0812145c      0x1ce fonts/hdudispfConsolas42hAA4.o
                0x0812145c                Abc_font_consolas42haa4_0076
 *fill*         0x0812162a        0x2 
 .rodata.Abc_font_consolas42haa4_0077
                0x0812162c      0x1ce fonts/hdudispfConsolas42hAA4.o
                0x0812162c                Abc_font_consolas42haa4_0077
 *fill*         0x081217fa        0x2 
 .rodata.Abc_font_consolas42haa4_0078
                0x081217fc      0x1ce fonts/hdudispfConsolas42hAA4.o
                0x081217fc                Abc_font_consolas42haa4_0078
 *fill*         0x081219ca        0x2 
 .rodata.Abc_font_consolas42haa4_0079
                0x081219cc      0x1ce fonts/hdudispfConsolas42hAA4.o
                0x081219cc                Abc_font_consolas42haa4_0079
 *fill*         0x08121b9a        0x2 
 .rodata.Abc_font_consolas42haa4_007a
                0x08121b9c      0x1ce fonts/hdudispfConsolas42hAA4.o
                0x08121b9c                Abc_font_consolas42haa4_007a
 *fill*         0x08121d6a        0x2 
 .rodata.Abc_font_consolas42haa4_007b
                0x08121d6c      0x1ce fonts/hdudispfConsolas42hAA4.o
                0x08121d6c                Abc_font_consolas42haa4_007b
 *fill*         0x08121f3a        0x2 
 .rodata.Abc_font_consolas42haa4_007c
                0x08121f3c      0x1ce fonts/hdudispfConsolas42hAA4.o
                0x08121f3c                Abc_font_consolas42haa4_007c
 *fill*         0x0812210a        0x2 
 .rodata.Abc_font_consolas42haa4_007d
                0x0812210c      0x1ce fonts/hdudispfConsolas42hAA4.o
                0x0812210c                Abc_font_consolas42haa4_007d
 *fill*         0x081222da        0x2 
 .rodata.Abc_font_consolas42haa4_007e
                0x081222dc      0x1ce fonts/hdudispfConsolas42hAA4.o
                0x081222dc                Abc_font_consolas42haa4_007e
 *fill*         0x081224aa        0x2 
 .rodata.Abc_font_consolas42haa4_007f
                0x081224ac      0x1a4 fonts/hdudispfConsolas42hAA4.o
                0x081224ac                Abc_font_consolas42haa4_007f
 .rodata.Abc_font_consolas42haa4_0090
                0x08122650      0x1ce fonts/hdudispfConsolas42hAA4.o
                0x08122650                Abc_font_consolas42haa4_0090
 *fill*         0x0812281e        0x2 
 .rodata.Abc_font_consolas42haa4_0091
                0x08122820      0x1ce fonts/hdudispfConsolas42hAA4.o
                0x08122820                Abc_font_consolas42haa4_0091
 *fill*         0x081229ee        0x2 
 .rodata.Abc_font_consolas42haa4_0092
                0x081229f0      0x1ce fonts/hdudispfConsolas42hAA4.o
                0x081229f0                Abc_font_consolas42haa4_0092
 *fill*         0x08122bbe        0x2 
 .rodata.Abc_font_consolas42haa4_0093
                0x08122bc0      0x1ce fonts/hdudispfConsolas42hAA4.o
                0x08122bc0                Abc_font_consolas42haa4_0093
 *fill*         0x08122d8e        0x2 
 .rodata.Abc_font_consolas42haa4_0094
                0x08122d90      0x1ce fonts/hdudispfConsolas42hAA4.o
                0x08122d90                Abc_font_consolas42haa4_0094
 *fill*         0x08122f5e        0x2 
 .rodata.Abc_font_consolas42haa4_0095
                0x08122f60      0x1ce fonts/hdudispfConsolas42hAA4.o
                0x08122f60                Abc_font_consolas42haa4_0095
 *fill*         0x0812312e        0x2 
 .rodata.Abc_font_consolas42haa4_0096
                0x08123130      0x1ce fonts/hdudispfConsolas42hAA4.o
                0x08123130                Abc_font_consolas42haa4_0096
 *fill*         0x081232fe        0x2 
 .rodata.Abc_font_consolas42haa4_0097
                0x08123300       0x7e fonts/hdudispfConsolas42hAA4.o
                0x08123300                Abc_font_consolas42haa4_0097
 *fill*         0x0812337e        0x2 
 .rodata.Abc_font_consolas42haa4_0098
                0x08123380       0x7e fonts/hdudispfConsolas42hAA4.o
                0x08123380                Abc_font_consolas42haa4_0098
 *fill*         0x081233fe        0x2 
 .rodata.Abc_font_consolas42haa4_0099
                0x08123400       0x54 fonts/hdudispfConsolas42hAA4.o
                0x08123400                Abc_font_consolas42haa4_0099
 .rodata.Abc_font_consolas42haa4_009a
                0x08123454       0x54 fonts/hdudispfConsolas42hAA4.o
                0x08123454                Abc_font_consolas42haa4_009a
 .rodata.Abc_font_consolas42haa4_009b
                0x081234a8       0x54 fonts/hdudispfConsolas42hAA4.o
                0x081234a8                Abc_font_consolas42haa4_009b
 .rodata.Abc_font_consolas42haa4_009c
                0x081234fc       0x54 fonts/hdudispfConsolas42hAA4.o
                0x081234fc                Abc_font_consolas42haa4_009c
 .rodata.Abc_font_consolas42haa4_009d
                0x08123550      0x1a4 fonts/hdudispfConsolas42hAA4.o
                0x08123550                Abc_font_consolas42haa4_009d
 .rodata.Abc_font_consolas42haa4_009e
                0x081236f4       0x54 fonts/hdudispfConsolas42hAA4.o
                0x081236f4                Abc_font_consolas42haa4_009e
 .rodata.Abc_font_consolas42haa4_009f
                0x08123748       0x54 fonts/hdudispfConsolas42hAA4.o
                0x08123748                Abc_font_consolas42haa4_009f
 .rodata.Abc_font_consolas42haa4_00a0
                0x0812379c      0x1ce fonts/hdudispfConsolas42hAA4.o
                0x0812379c                Abc_font_consolas42haa4_00a0
 *fill*         0x0812396a        0x2 
 .rodata.Abc_font_consolas42haa4_00a1
                0x0812396c      0x1ce fonts/hdudispfConsolas42hAA4.o
                0x0812396c                Abc_font_consolas42haa4_00a1
 *fill*         0x08123b3a        0x2 
 .rodata.Abc_font_consolas42haa4_00a2
                0x08123b3c      0x1ce fonts/hdudispfConsolas42hAA4.o
                0x08123b3c                Abc_font_consolas42haa4_00a2
 *fill*         0x08123d0a        0x2 
 .rodata.Abc_font_consolas42haa4_00a3
                0x08123d0c      0x1ce fonts/hdudispfConsolas42hAA4.o
                0x08123d0c                Abc_font_consolas42haa4_00a3
 *fill*         0x08123eda        0x2 
 .rodata.Abc_font_consolas42haa4_00a4
                0x08123edc      0x1ce fonts/hdudispfConsolas42hAA4.o
                0x08123edc                Abc_font_consolas42haa4_00a4
 *fill*         0x081240aa        0x2 
 .rodata.Abc_font_consolas42haa4_00a5
                0x081240ac      0x1ce fonts/hdudispfConsolas42hAA4.o
                0x081240ac                Abc_font_consolas42haa4_00a5
 *fill*         0x0812427a        0x2 
 .rodata.Abc_font_consolas42haa4_00a6
                0x0812427c      0x1f8 fonts/hdudispfConsolas42hAA4.o
                0x0812427c                Abc_font_consolas42haa4_00a6
 .rodata.Abc_font_consolas42haa4_00a7
                0x08124474      0x1ce fonts/hdudispfConsolas42hAA4.o
                0x08124474                Abc_font_consolas42haa4_00a7
 *fill*         0x08124642        0x2 
 .rodata.Abc_font_consolas42haa4_00a8
                0x08124644      0x1ce fonts/hdudispfConsolas42hAA4.o
                0x08124644                Abc_font_consolas42haa4_00a8
 *fill*         0x08124812        0x2 
 .rodata.Abc_font_consolas42haa4_00a9
                0x08124814      0x1ce fonts/hdudispfConsolas42hAA4.o
                0x08124814                Abc_font_consolas42haa4_00a9
 *fill*         0x081249e2        0x2 
 .rodata.Abc_font_consolas42haa4_00aa
                0x081249e4      0x1ce fonts/hdudispfConsolas42hAA4.o
                0x081249e4                Abc_font_consolas42haa4_00aa
 *fill*         0x08124bb2        0x2 
 .rodata.Abc_font_consolas42haa4_00ab
                0x08124bb4      0x1ce fonts/hdudispfConsolas42hAA4.o
                0x08124bb4                Abc_font_consolas42haa4_00ab
 *fill*         0x08124d82        0x2 
 .rodata.Abc_font_consolas42haa4_00ac
                0x08124d84      0x1ce fonts/hdudispfConsolas42hAA4.o
                0x08124d84                Abc_font_consolas42haa4_00ac
 *fill*         0x08124f52        0x2 
 .rodata.Abc_font_consolas42haa4_00ad
                0x08124f54      0x1ce fonts/hdudispfConsolas42hAA4.o
                0x08124f54                Abc_font_consolas42haa4_00ad
 *fill*         0x08125122        0x2 
 .rodata.Abc_font_consolas42haa4_00ae
                0x08125124      0x1ce fonts/hdudispfConsolas42hAA4.o
                0x08125124                Abc_font_consolas42haa4_00ae
 *fill*         0x081252f2        0x2 
 .rodata.Abc_font_consolas42haa4_00af
                0x081252f4      0x1ce fonts/hdudispfConsolas42hAA4.o
                0x081252f4                Abc_font_consolas42haa4_00af
 *fill*         0x081254c2        0x2 
 .rodata.Abc_font_consolas42haa4_00b0
                0x081254c4      0x1ce fonts/hdudispfConsolas42hAA4.o
                0x081254c4                Abc_font_consolas42haa4_00b0
 *fill*         0x08125692        0x2 
 .rodata.Abc_font_consolas42haa4_00b1
                0x08125694      0x1ce fonts/hdudispfConsolas42hAA4.o
                0x08125694                Abc_font_consolas42haa4_00b1
 *fill*         0x08125862        0x2 
 .rodata.Abc_font_consolas42haa4_00b2
                0x08125864      0x1ce fonts/hdudispfConsolas42hAA4.o
                0x08125864                Abc_font_consolas42haa4_00b2
 *fill*         0x08125a32        0x2 
 .rodata.Abc_font_consolas42haa4_00b3
                0x08125a34      0x1ce fonts/hdudispfConsolas42hAA4.o
                0x08125a34                Abc_font_consolas42haa4_00b3
 *fill*         0x08125c02        0x2 
 .rodata.Abc_font_consolas42haa4_00b4
                0x08125c04      0x1ce fonts/hdudispfConsolas42hAA4.o
                0x08125c04                Abc_font_consolas42haa4_00b4
 *fill*         0x08125dd2        0x2 
 .rodata.Abc_font_consolas42haa4_00b5
                0x08125dd4      0x1ce fonts/hdudispfConsolas42hAA4.o
                0x08125dd4                Abc_font_consolas42haa4_00b5
 *fill*         0x08125fa2        0x2 
 .rodata.Abc_font_consolas42haa4_00b6
                0x08125fa4      0x1ce fonts/hdudispfConsolas42hAA4.o
                0x08125fa4                Abc_font_consolas42haa4_00b6
 *fill*         0x08126172        0x2 
 .rodata.Abc_font_consolas42haa4_00b7
                0x08126174      0x1ce fonts/hdudispfConsolas42hAA4.o
                0x08126174                Abc_font_consolas42haa4_00b7
 *fill*         0x08126342        0x2 
 .rodata.Abc_font_consolas42haa4_00b8
                0x08126344      0x1ce fonts/hdudispfConsolas42hAA4.o
                0x08126344                Abc_font_consolas42haa4_00b8
 *fill*         0x08126512        0x2 
 .rodata.Abc_font_consolas42haa4_00b9
                0x08126514      0x1ce fonts/hdudispfConsolas42hAA4.o
                0x08126514                Abc_font_consolas42haa4_00b9
 *fill*         0x081266e2        0x2 
 .rodata.Abc_font_consolas42haa4_00ba
                0x081266e4      0x1ce fonts/hdudispfConsolas42hAA4.o
                0x081266e4                Abc_font_consolas42haa4_00ba
 *fill*         0x081268b2        0x2 
 .rodata.Abc_font_consolas42haa4_00bb
                0x081268b4      0x1ce fonts/hdudispfConsolas42hAA4.o
                0x081268b4                Abc_font_consolas42haa4_00bb
 *fill*         0x08126a82        0x2 
 .rodata.Abc_font_consolas42haa4_00bc
                0x08126a84      0x1ce fonts/hdudispfConsolas42hAA4.o
                0x08126a84                Abc_font_consolas42haa4_00bc
 *fill*         0x08126c52        0x2 
 .rodata.Abc_font_consolas42haa4_00bd
                0x08126c54      0x1ce fonts/hdudispfConsolas42hAA4.o
                0x08126c54                Abc_font_consolas42haa4_00bd
 *fill*         0x08126e22        0x2 
 .rodata.Abc_font_consolas42haa4_00be
                0x08126e24      0x1ce fonts/hdudispfConsolas42hAA4.o
                0x08126e24                Abc_font_consolas42haa4_00be
 *fill*         0x08126ff2        0x2 
 .rodata.Abc_font_consolas42haa4_00bf
                0x08126ff4      0x1ce fonts/hdudispfConsolas42hAA4.o
                0x08126ff4                Abc_font_consolas42haa4_00bf
 *fill*         0x081271c2        0x2 
 .rodata.Abc_font_consolas42haa4_00c0
                0x081271c4      0x1ce fonts/hdudispfConsolas42hAA4.o
                0x081271c4                Abc_font_consolas42haa4_00c0
 *fill*         0x08127392        0x2 
 .rodata.Abc_font_consolas42haa4_00c1
                0x08127394      0x1ce fonts/hdudispfConsolas42hAA4.o
                0x08127394                Abc_font_consolas42haa4_00c1
 *fill*         0x08127562        0x2 
 .rodata.Abc_font_consolas42haa4_00c2
                0x08127564      0x1ce fonts/hdudispfConsolas42hAA4.o
                0x08127564                Abc_font_consolas42haa4_00c2
 *fill*         0x08127732        0x2 
 .rodata.Abc_font_consolas42haa4_00c3
                0x08127734      0x1ce fonts/hdudispfConsolas42hAA4.o
                0x08127734                Abc_font_consolas42haa4_00c3
 *fill*         0x08127902        0x2 
 .rodata.Abc_font_consolas42haa4_00c4
                0x08127904      0x1ce fonts/hdudispfConsolas42hAA4.o
                0x08127904                Abc_font_consolas42haa4_00c4
 *fill*         0x08127ad2        0x2 
 .rodata.Abc_font_consolas42haa4_00c5
                0x08127ad4      0x1ce fonts/hdudispfConsolas42hAA4.o
                0x08127ad4                Abc_font_consolas42haa4_00c5
 *fill*         0x08127ca2        0x2 
 .rodata.Abc_font_consolas42haa4_00c6
                0x08127ca4      0x1ce fonts/hdudispfConsolas42hAA4.o
                0x08127ca4                Abc_font_consolas42haa4_00c6
 *fill*         0x08127e72        0x2 
 .rodata.Abc_font_consolas42haa4_00c7
                0x08127e74      0x1ce fonts/hdudispfConsolas42hAA4.o
                0x08127e74                Abc_font_consolas42haa4_00c7
 *fill*         0x08128042        0x2 
 .rodata.Abc_font_consolas42haa4_00c8
                0x08128044      0x1ce fonts/hdudispfConsolas42hAA4.o
                0x08128044                Abc_font_consolas42haa4_00c8
 *fill*         0x08128212        0x2 
 .rodata.Abc_font_consolas42haa4_00c9
                0x08128214      0x1ce fonts/hdudispfConsolas42hAA4.o
                0x08128214                Abc_font_consolas42haa4_00c9
 *fill*         0x081283e2        0x2 
 .rodata.Abc_font_consolas42haa4_00ca
                0x081283e4      0x1ce fonts/hdudispfConsolas42hAA4.o
                0x081283e4                Abc_font_consolas42haa4_00ca
 *fill*         0x081285b2        0x2 
 .rodata.Abc_font_consolas42haa4_00cb
                0x081285b4      0x1ce fonts/hdudispfConsolas42hAA4.o
                0x081285b4                Abc_font_consolas42haa4_00cb
 *fill*         0x08128782        0x2 
 .rodata.Abc_font_consolas42haa4_00cc
                0x08128784      0x1ce fonts/hdudispfConsolas42hAA4.o
                0x08128784                Abc_font_consolas42haa4_00cc
 *fill*         0x08128952        0x2 
 .rodata.Abc_font_consolas42haa4_00cd
                0x08128954      0x1ce fonts/hdudispfConsolas42hAA4.o
                0x08128954                Abc_font_consolas42haa4_00cd
 *fill*         0x08128b22        0x2 
 .rodata.Abc_font_consolas42haa4_00ce
                0x08128b24      0x1ce fonts/hdudispfConsolas42hAA4.o
                0x08128b24                Abc_font_consolas42haa4_00ce
 *fill*         0x08128cf2        0x2 
 .rodata.Abc_font_consolas42haa4_00cf
                0x08128cf4      0x1ce fonts/hdudispfConsolas42hAA4.o
                0x08128cf4                Abc_font_consolas42haa4_00cf
 *fill*         0x08128ec2        0x2 
 .rodata.Abc_font_consolas42haa4_00d0
                0x08128ec4      0x1ce fonts/hdudispfConsolas42hAA4.o
                0x08128ec4                Abc_font_consolas42haa4_00d0
 *fill*         0x08129092        0x2 
 .rodata.Abc_font_consolas42haa4_00d1
                0x08129094      0x1ce fonts/hdudispfConsolas42hAA4.o
                0x08129094                Abc_font_consolas42haa4_00d1
 *fill*         0x08129262        0x2 
 .rodata.Abc_font_consolas42haa4_00d2
                0x08129264      0x1ce fonts/hdudispfConsolas42hAA4.o
                0x08129264                Abc_font_consolas42haa4_00d2
 *fill*         0x08129432        0x2 
 .rodata.Abc_font_consolas42haa4_00d3
                0x08129434      0x1ce fonts/hdudispfConsolas42hAA4.o
                0x08129434                Abc_font_consolas42haa4_00d3
 *fill*         0x08129602        0x2 
 .rodata.Abc_font_consolas42haa4_00d4
                0x08129604      0x1ce fonts/hdudispfConsolas42hAA4.o
                0x08129604                Abc_font_consolas42haa4_00d4
 *fill*         0x081297d2        0x2 
 .rodata.Abc_font_consolas42haa4_00d5
                0x081297d4      0x1ce fonts/hdudispfConsolas42hAA4.o
                0x081297d4                Abc_font_consolas42haa4_00d5
 *fill*         0x081299a2        0x2 
 .rodata.Abc_font_consolas42haa4_00d6
                0x081299a4      0x1ce fonts/hdudispfConsolas42hAA4.o
                0x081299a4                Abc_font_consolas42haa4_00d6
 *fill*         0x08129b72        0x2 
 .rodata.Abc_font_consolas42haa4_00d7
                0x08129b74      0x1ce fonts/hdudispfConsolas42hAA4.o
                0x08129b74                Abc_font_consolas42haa4_00d7
 *fill*         0x08129d42        0x2 
 .rodata.Abc_font_consolas42haa4_00d8
                0x08129d44      0x1ce fonts/hdudispfConsolas42hAA4.o
                0x08129d44                Abc_font_consolas42haa4_00d8
 *fill*         0x08129f12        0x2 
 .rodata.Abc_font_consolas42haa4_00d9
                0x08129f14      0x1f8 fonts/hdudispfConsolas42hAA4.o
                0x08129f14                Abc_font_consolas42haa4_00d9
 .rodata.Abc_font_consolas42haa4_00da
                0x0812a10c      0x1ce fonts/hdudispfConsolas42hAA4.o
                0x0812a10c                Abc_font_consolas42haa4_00da
 *fill*         0x0812a2da        0x2 
 .rodata.Abc_font_consolas42haa4_00db
                0x0812a2dc      0x1ce fonts/hdudispfConsolas42hAA4.o
                0x0812a2dc                Abc_font_consolas42haa4_00db
 *fill*         0x0812a4aa        0x2 
 .rodata.Abc_font_consolas42haa4_00dc
                0x0812a4ac      0x1ce fonts/hdudispfConsolas42hAA4.o
                0x0812a4ac                Abc_font_consolas42haa4_00dc
 *fill*         0x0812a67a        0x2 
 .rodata.Abc_font_consolas42haa4_00dd
                0x0812a67c      0x1ce fonts/hdudispfConsolas42hAA4.o
                0x0812a67c                Abc_font_consolas42haa4_00dd
 *fill*         0x0812a84a        0x2 
 .rodata.Abc_font_consolas42haa4_00de
                0x0812a84c      0x1ce fonts/hdudispfConsolas42hAA4.o
                0x0812a84c                Abc_font_consolas42haa4_00de
 *fill*         0x0812aa1a        0x2 
 .rodata.Abc_font_consolas42haa4_00df
                0x0812aa1c      0x1ce fonts/hdudispfConsolas42hAA4.o
                0x0812aa1c                Abc_font_consolas42haa4_00df
 *fill*         0x0812abea        0x2 
 .rodata.Abc_font_consolas42haa4_00e0
                0x0812abec      0x1ce fonts/hdudispfConsolas42hAA4.o
                0x0812abec                Abc_font_consolas42haa4_00e0
 *fill*         0x0812adba        0x2 
 .rodata.Abc_font_consolas42haa4_00e1
                0x0812adbc      0x1ce fonts/hdudispfConsolas42hAA4.o
                0x0812adbc                Abc_font_consolas42haa4_00e1
 *fill*         0x0812af8a        0x2 
 .rodata.Abc_font_consolas42haa4_00e2
                0x0812af8c      0x1ce fonts/hdudispfConsolas42hAA4.o
                0x0812af8c                Abc_font_consolas42haa4_00e2
 *fill*         0x0812b15a        0x2 
 .rodata.Abc_font_consolas42haa4_00e3
                0x0812b15c      0x1ce fonts/hdudispfConsolas42hAA4.o
                0x0812b15c                Abc_font_consolas42haa4_00e3
 *fill*         0x0812b32a        0x2 
 .rodata.Abc_font_consolas42haa4_00e4
                0x0812b32c      0x1ce fonts/hdudispfConsolas42hAA4.o
                0x0812b32c                Abc_font_consolas42haa4_00e4
 *fill*         0x0812b4fa        0x2 
 .rodata.Abc_font_consolas42haa4_00e5
                0x0812b4fc      0x1ce fonts/hdudispfConsolas42hAA4.o
                0x0812b4fc                Abc_font_consolas42haa4_00e5
 *fill*         0x0812b6ca        0x2 
 .rodata.Abc_font_consolas42haa4_00e6
                0x0812b6cc      0x1ce fonts/hdudispfConsolas42hAA4.o
                0x0812b6cc                Abc_font_consolas42haa4_00e6
 *fill*         0x0812b89a        0x2 
 .rodata.Abc_font_consolas42haa4_00e7
                0x0812b89c      0x1ce fonts/hdudispfConsolas42hAA4.o
                0x0812b89c                Abc_font_consolas42haa4_00e7
 *fill*         0x0812ba6a        0x2 
 .rodata.Abc_font_consolas42haa4_00e8
                0x0812ba6c      0x1ce fonts/hdudispfConsolas42hAA4.o
                0x0812ba6c                Abc_font_consolas42haa4_00e8
 *fill*         0x0812bc3a        0x2 
 .rodata.Abc_font_consolas42haa4_00e9
                0x0812bc3c      0x1ce fonts/hdudispfConsolas42hAA4.o
                0x0812bc3c                Abc_font_consolas42haa4_00e9
 *fill*         0x0812be0a        0x2 
 .rodata.Abc_font_consolas42haa4_00ea
                0x0812be0c      0x1ce fonts/hdudispfConsolas42hAA4.o
                0x0812be0c                Abc_font_consolas42haa4_00ea
 *fill*         0x0812bfda        0x2 
 .rodata.Abc_font_consolas42haa4_00eb
                0x0812bfdc      0x1ce fonts/hdudispfConsolas42hAA4.o
                0x0812bfdc                Abc_font_consolas42haa4_00eb
 *fill*         0x0812c1aa        0x2 
 .rodata.Abc_font_consolas42haa4_00ec
                0x0812c1ac      0x1ce fonts/hdudispfConsolas42hAA4.o
                0x0812c1ac                Abc_font_consolas42haa4_00ec
 *fill*         0x0812c37a        0x2 
 .rodata.Abc_font_consolas42haa4_00ed
                0x0812c37c      0x1ce fonts/hdudispfConsolas42hAA4.o
                0x0812c37c                Abc_font_consolas42haa4_00ed
 *fill*         0x0812c54a        0x2 
 .rodata.Abc_font_consolas42haa4_00ee
                0x0812c54c      0x1ce fonts/hdudispfConsolas42hAA4.o
                0x0812c54c                Abc_font_consolas42haa4_00ee
 *fill*         0x0812c71a        0x2 
 .rodata.Abc_font_consolas42haa4_00ef
                0x0812c71c      0x1ce fonts/hdudispfConsolas42hAA4.o
                0x0812c71c                Abc_font_consolas42haa4_00ef
 *fill*         0x0812c8ea        0x2 
 .rodata.Abc_font_consolas42haa4_00f0
                0x0812c8ec      0x1ce fonts/hdudispfConsolas42hAA4.o
                0x0812c8ec                Abc_font_consolas42haa4_00f0
 *fill*         0x0812caba        0x2 
 .rodata.Abc_font_consolas42haa4_00f1
                0x0812cabc      0x1ce fonts/hdudispfConsolas42hAA4.o
                0x0812cabc                Abc_font_consolas42haa4_00f1
 *fill*         0x0812cc8a        0x2 
 .rodata.Abc_font_consolas42haa4_00f2
                0x0812cc8c      0x1ce fonts/hdudispfConsolas42hAA4.o
                0x0812cc8c                Abc_font_consolas42haa4_00f2
 *fill*         0x0812ce5a        0x2 
 .rodata.Abc_font_consolas42haa4_00f3
                0x0812ce5c      0x1ce fonts/hdudispfConsolas42hAA4.o
                0x0812ce5c                Abc_font_consolas42haa4_00f3
 *fill*         0x0812d02a        0x2 
 .rodata.Abc_font_consolas42haa4_00f4
                0x0812d02c      0x1ce fonts/hdudispfConsolas42hAA4.o
                0x0812d02c                Abc_font_consolas42haa4_00f4
 *fill*         0x0812d1fa        0x2 
 .rodata.Abc_font_consolas42haa4_00f5
                0x0812d1fc      0x1ce fonts/hdudispfConsolas42hAA4.o
                0x0812d1fc                Abc_font_consolas42haa4_00f5
 *fill*         0x0812d3ca        0x2 
 .rodata.Abc_font_consolas42haa4_00f6
                0x0812d3cc      0x1ce fonts/hdudispfConsolas42hAA4.o
                0x0812d3cc                Abc_font_consolas42haa4_00f6
 *fill*         0x0812d59a        0x2 
 .rodata.Abc_font_consolas42haa4_00f7
                0x0812d59c      0x1ce fonts/hdudispfConsolas42hAA4.o
                0x0812d59c                Abc_font_consolas42haa4_00f7
 *fill*         0x0812d76a        0x2 
 .rodata.Abc_font_consolas42haa4_00f8
                0x0812d76c      0x1ce fonts/hdudispfConsolas42hAA4.o
                0x0812d76c                Abc_font_consolas42haa4_00f8
 *fill*         0x0812d93a        0x2 
 .rodata.Abc_font_consolas42haa4_00f9
                0x0812d93c      0x1ce fonts/hdudispfConsolas42hAA4.o
                0x0812d93c                Abc_font_consolas42haa4_00f9
 *fill*         0x0812db0a        0x2 
 .rodata.Abc_font_consolas42haa4_00fa
                0x0812db0c      0x1ce fonts/hdudispfConsolas42hAA4.o
                0x0812db0c                Abc_font_consolas42haa4_00fa
 *fill*         0x0812dcda        0x2 
 .rodata.Abc_font_consolas42haa4_00fb
                0x0812dcdc      0x1ce fonts/hdudispfConsolas42hAA4.o
                0x0812dcdc                Abc_font_consolas42haa4_00fb
 *fill*         0x0812deaa        0x2 
 .rodata.Abc_font_consolas42haa4_00fc
                0x0812deac      0x1ce fonts/hdudispfConsolas42hAA4.o
                0x0812deac                Abc_font_consolas42haa4_00fc
 *fill*         0x0812e07a        0x2 
 .rodata.Abc_font_consolas42haa4_00fd
                0x0812e07c      0x1ce fonts/hdudispfConsolas42hAA4.o
                0x0812e07c                Abc_font_consolas42haa4_00fd
 *fill*         0x0812e24a        0x2 
 .rodata.Abc_font_consolas42haa4_00fe
                0x0812e24c      0x1ce fonts/hdudispfConsolas42hAA4.o
                0x0812e24c                Abc_font_consolas42haa4_00fe
 *fill*         0x0812e41a        0x2 
 .rodata.Abc_font_consolas42haa4_00ff
                0x0812e41c      0x348 fonts/hdudispfConsolas42hAA4.o
                0x0812e41c                Abc_font_consolas42haa4_00ff
 .rodata.Font_consolas42haa4_char_info
                0x0812e764      0x700 fonts/hdudispfConsolas42hAA4.o
                0x0812e764                Font_consolas42haa4_char_info
 .rodata.Font_dispf_consolas42haa4_prop2
                0x0812ee64        0xc fonts/hdudispfConsolas42hAA4.o
                0x0812ee64                Font_dispf_consolas42haa4_prop2
 .rodata.Font_dispf_consolas42haa4_prop1
                0x0812ee70        0xc fonts/hdudispfConsolas42hAA4.o
                0x0812ee70                Font_dispf_consolas42haa4_prop1
 .rodata.Font_large_10inch
                0x0812ee7c       0x10 fonts/hdudispfConsolas42hAA4.o
                0x0812ee7c                Font_large_10inch
 .rodata.Font_hd_mono18haa4_0010
                0x0812ee8c       0x63 fonts/hdudispfmono18haa4.o
                0x0812ee8c                Font_hd_mono18haa4_0010
 *fill*         0x0812eeef        0x1 
 .rodata.Font_hd_mono18haa4_0011
                0x0812eef0       0x63 fonts/hdudispfmono18haa4.o
                0x0812eef0                Font_hd_mono18haa4_0011
 *fill*         0x0812ef53        0x1 
 .rodata.Font_hd_mono18haa4_0012
                0x0812ef54       0x63 fonts/hdudispfmono18haa4.o
                0x0812ef54                Font_hd_mono18haa4_0012
 *fill*         0x0812efb7        0x1 
 .rodata.Font_hd_mono18haa4_0013
                0x0812efb8       0x63 fonts/hdudispfmono18haa4.o
                0x0812efb8                Font_hd_mono18haa4_0013
 *fill*         0x0812f01b        0x1 
 .rodata.Font_hd_mono18haa4_0014
                0x0812f01c       0x63 fonts/hdudispfmono18haa4.o
                0x0812f01c                Font_hd_mono18haa4_0014
 *fill*         0x0812f07f        0x1 
 .rodata.Font_hd_mono18haa4_0015
                0x0812f080       0x63 fonts/hdudispfmono18haa4.o
                0x0812f080                Font_hd_mono18haa4_0015
 *fill*         0x0812f0e3        0x1 
 .rodata.Font_hd_mono18haa4_0016
                0x0812f0e4       0x63 fonts/hdudispfmono18haa4.o
                0x0812f0e4                Font_hd_mono18haa4_0016
 *fill*         0x0812f147        0x1 
 .rodata.Font_hd_mono18haa4_0017
                0x0812f148       0x1b fonts/hdudispfmono18haa4.o
                0x0812f148                Font_hd_mono18haa4_0017
 *fill*         0x0812f163        0x1 
 .rodata.Font_hd_mono18haa4_0018
                0x0812f164       0x1b fonts/hdudispfmono18haa4.o
                0x0812f164                Font_hd_mono18haa4_0018
 *fill*         0x0812f17f        0x1 
 .rodata.Font_hd_mono18haa4_0019
                0x0812f180       0x5a fonts/hdudispfmono18haa4.o
                0x0812f180                Font_hd_mono18haa4_0019
 *fill*         0x0812f1da        0x2 
 .rodata.Font_hd_mono18haa4_001a
                0x0812f1dc       0x5a fonts/hdudispfmono18haa4.o
                0x0812f1dc                Font_hd_mono18haa4_001a
 *fill*         0x0812f236        0x2 
 .rodata.Font_hd_mono18haa4_001b
                0x0812f238       0x5a fonts/hdudispfmono18haa4.o
                0x0812f238                Font_hd_mono18haa4_001b
 *fill*         0x0812f292        0x2 
 .rodata.Font_hd_mono18haa4_001c
                0x0812f294       0x5a fonts/hdudispfmono18haa4.o
                0x0812f294                Font_hd_mono18haa4_001c
 *fill*         0x0812f2ee        0x2 
 .rodata.Font_hd_mono18haa4_001d
                0x0812f2f0       0x5a fonts/hdudispfmono18haa4.o
                0x0812f2f0                Font_hd_mono18haa4_001d
 *fill*         0x0812f34a        0x2 
 .rodata.Font_hd_mono18haa4_001e
                0x0812f34c       0x5a fonts/hdudispfmono18haa4.o
                0x0812f34c                Font_hd_mono18haa4_001e
 *fill*         0x0812f3a6        0x2 
 .rodata.Font_hd_mono18haa4_001f
                0x0812f3a8       0x5a fonts/hdudispfmono18haa4.o
                0x0812f3a8                Font_hd_mono18haa4_001f
 *fill*         0x0812f402        0x2 
 .rodata.Font_hd_mono18haa4_0020
                0x0812f404       0x63 fonts/hdudispfmono18haa4.o
                0x0812f404                Font_hd_mono18haa4_0020
 *fill*         0x0812f467        0x1 
 .rodata.Font_hd_mono18haa4_0021
                0x0812f468       0x63 fonts/hdudispfmono18haa4.o
                0x0812f468                Font_hd_mono18haa4_0021
 *fill*         0x0812f4cb        0x1 
 .rodata.Font_hd_mono18haa4_0022
                0x0812f4cc       0x63 fonts/hdudispfmono18haa4.o
                0x0812f4cc                Font_hd_mono18haa4_0022
 *fill*         0x0812f52f        0x1 
 .rodata.Font_hd_mono18haa4_0023
                0x0812f530       0x63 fonts/hdudispfmono18haa4.o
                0x0812f530                Font_hd_mono18haa4_0023
 *fill*         0x0812f593        0x1 
 .rodata.Font_hd_mono18haa4_0024
                0x0812f594       0x63 fonts/hdudispfmono18haa4.o
                0x0812f594                Font_hd_mono18haa4_0024
 *fill*         0x0812f5f7        0x1 
 .rodata.Font_hd_mono18haa4_0025
                0x0812f5f8       0x63 fonts/hdudispfmono18haa4.o
                0x0812f5f8                Font_hd_mono18haa4_0025
 *fill*         0x0812f65b        0x1 
 .rodata.Font_hd_mono18haa4_0026
                0x0812f65c       0x6c fonts/hdudispfmono18haa4.o
                0x0812f65c                Font_hd_mono18haa4_0026
 .rodata.Font_hd_mono18haa4_0027
                0x0812f6c8       0x63 fonts/hdudispfmono18haa4.o
                0x0812f6c8                Font_hd_mono18haa4_0027
 *fill*         0x0812f72b        0x1 
 .rodata.Font_hd_mono18haa4_0028
                0x0812f72c       0x63 fonts/hdudispfmono18haa4.o
                0x0812f72c                Font_hd_mono18haa4_0028
 *fill*         0x0812f78f        0x1 
 .rodata.Font_hd_mono18haa4_0029
                0x0812f790       0x63 fonts/hdudispfmono18haa4.o
                0x0812f790                Font_hd_mono18haa4_0029
 *fill*         0x0812f7f3        0x1 
 .rodata.Font_hd_mono18haa4_002a
                0x0812f7f4       0x63 fonts/hdudispfmono18haa4.o
                0x0812f7f4                Font_hd_mono18haa4_002a
 *fill*         0x0812f857        0x1 
 .rodata.Font_hd_mono18haa4_002b
                0x0812f858       0x63 fonts/hdudispfmono18haa4.o
                0x0812f858                Font_hd_mono18haa4_002b
 *fill*         0x0812f8bb        0x1 
 .rodata.Font_hd_mono18haa4_002c
                0x0812f8bc       0x63 fonts/hdudispfmono18haa4.o
                0x0812f8bc                Font_hd_mono18haa4_002c
 *fill*         0x0812f91f        0x1 
 .rodata.Font_hd_mono18haa4_002d
                0x0812f920       0x63 fonts/hdudispfmono18haa4.o
                0x0812f920                Font_hd_mono18haa4_002d
 *fill*         0x0812f983        0x1 
 .rodata.Font_hd_mono18haa4_002e
                0x0812f984       0x63 fonts/hdudispfmono18haa4.o
                0x0812f984                Font_hd_mono18haa4_002e
 *fill*         0x0812f9e7        0x1 
 .rodata.Font_hd_mono18haa4_002f
                0x0812f9e8       0x63 fonts/hdudispfmono18haa4.o
                0x0812f9e8                Font_hd_mono18haa4_002f
 *fill*         0x0812fa4b        0x1 
 .rodata.Font_hd_mono18haa4_0030
                0x0812fa4c       0x63 fonts/hdudispfmono18haa4.o
                0x0812fa4c                Font_hd_mono18haa4_0030
 *fill*         0x0812faaf        0x1 
 .rodata.Font_hd_mono18haa4_0031
                0x0812fab0       0x63 fonts/hdudispfmono18haa4.o
                0x0812fab0                Font_hd_mono18haa4_0031
 *fill*         0x0812fb13        0x1 
 .rodata.Font_hd_mono18haa4_0032
                0x0812fb14       0x63 fonts/hdudispfmono18haa4.o
                0x0812fb14                Font_hd_mono18haa4_0032
 *fill*         0x0812fb77        0x1 
 .rodata.Font_hd_mono18haa4_0033
                0x0812fb78       0x63 fonts/hdudispfmono18haa4.o
                0x0812fb78                Font_hd_mono18haa4_0033
 *fill*         0x0812fbdb        0x1 
 .rodata.Font_hd_mono18haa4_0034
                0x0812fbdc       0x63 fonts/hdudispfmono18haa4.o
                0x0812fbdc                Font_hd_mono18haa4_0034
 *fill*         0x0812fc3f        0x1 
 .rodata.Font_hd_mono18haa4_0035
                0x0812fc40       0x63 fonts/hdudispfmono18haa4.o
                0x0812fc40                Font_hd_mono18haa4_0035
 *fill*         0x0812fca3        0x1 
 .rodata.Font_hd_mono18haa4_0036
                0x0812fca4       0x63 fonts/hdudispfmono18haa4.o
                0x0812fca4                Font_hd_mono18haa4_0036
 *fill*         0x0812fd07        0x1 
 .rodata.Font_hd_mono18haa4_0037
                0x0812fd08       0x63 fonts/hdudispfmono18haa4.o
                0x0812fd08                Font_hd_mono18haa4_0037
 *fill*         0x0812fd6b        0x1 
 .rodata.Font_hd_mono18haa4_0038
                0x0812fd6c       0x63 fonts/hdudispfmono18haa4.o
                0x0812fd6c                Font_hd_mono18haa4_0038
 *fill*         0x0812fdcf        0x1 
 .rodata.Font_hd_mono18haa4_0039
                0x0812fdd0       0x63 fonts/hdudispfmono18haa4.o
                0x0812fdd0                Font_hd_mono18haa4_0039
 *fill*         0x0812fe33        0x1 
 .rodata.Font_hd_mono18haa4_003a
                0x0812fe34       0x63 fonts/hdudispfmono18haa4.o
                0x0812fe34                Font_hd_mono18haa4_003a
 *fill*         0x0812fe97        0x1 
 .rodata.Font_hd_mono18haa4_003b
                0x0812fe98       0x63 fonts/hdudispfmono18haa4.o
                0x0812fe98                Font_hd_mono18haa4_003b
 *fill*         0x0812fefb        0x1 
 .rodata.Font_hd_mono18haa4_003c
                0x0812fefc       0x63 fonts/hdudispfmono18haa4.o
                0x0812fefc                Font_hd_mono18haa4_003c
 *fill*         0x0812ff5f        0x1 
 .rodata.Font_hd_mono18haa4_003d
                0x0812ff60       0x63 fonts/hdudispfmono18haa4.o
                0x0812ff60                Font_hd_mono18haa4_003d
 *fill*         0x0812ffc3        0x1 
 .rodata.Font_hd_mono18haa4_003e
                0x0812ffc4       0x63 fonts/hdudispfmono18haa4.o
                0x0812ffc4                Font_hd_mono18haa4_003e
 *fill*         0x08130027        0x1 
 .rodata.Font_hd_mono18haa4_003f
                0x08130028       0x63 fonts/hdudispfmono18haa4.o
                0x08130028                Font_hd_mono18haa4_003f
 *fill*         0x0813008b        0x1 
 .rodata.Font_hd_mono18haa4_0040
                0x0813008c       0x63 fonts/hdudispfmono18haa4.o
                0x0813008c                Font_hd_mono18haa4_0040
 *fill*         0x081300ef        0x1 
 .rodata.Font_hd_mono18haa4_0041
                0x081300f0       0x63 fonts/hdudispfmono18haa4.o
                0x081300f0                Font_hd_mono18haa4_0041
 *fill*         0x08130153        0x1 
 .rodata.Font_hd_mono18haa4_0042
                0x08130154       0x63 fonts/hdudispfmono18haa4.o
                0x08130154                Font_hd_mono18haa4_0042
 *fill*         0x081301b7        0x1 
 .rodata.Font_hd_mono18haa4_0043
                0x081301b8       0x63 fonts/hdudispfmono18haa4.o
                0x081301b8                Font_hd_mono18haa4_0043
 *fill*         0x0813021b        0x1 
 .rodata.Font_hd_mono18haa4_0044
                0x0813021c       0x63 fonts/hdudispfmono18haa4.o
                0x0813021c                Font_hd_mono18haa4_0044
 *fill*         0x0813027f        0x1 
 .rodata.Font_hd_mono18haa4_0045
                0x08130280       0x63 fonts/hdudispfmono18haa4.o
                0x08130280                Font_hd_mono18haa4_0045
 *fill*         0x081302e3        0x1 
 .rodata.Font_hd_mono18haa4_0046
                0x081302e4       0x63 fonts/hdudispfmono18haa4.o
                0x081302e4                Font_hd_mono18haa4_0046
 *fill*         0x08130347        0x1 
 .rodata.Font_hd_mono18haa4_0047
                0x08130348       0x63 fonts/hdudispfmono18haa4.o
                0x08130348                Font_hd_mono18haa4_0047
 *fill*         0x081303ab        0x1 
 .rodata.Font_hd_mono18haa4_0048
                0x081303ac       0x63 fonts/hdudispfmono18haa4.o
                0x081303ac                Font_hd_mono18haa4_0048
 *fill*         0x0813040f        0x1 
 .rodata.Font_hd_mono18haa4_0049
                0x08130410       0x63 fonts/hdudispfmono18haa4.o
                0x08130410                Font_hd_mono18haa4_0049
 *fill*         0x08130473        0x1 
 .rodata.Font_hd_mono18haa4_004a
                0x08130474       0x63 fonts/hdudispfmono18haa4.o
                0x08130474                Font_hd_mono18haa4_004a
 *fill*         0x081304d7        0x1 
 .rodata.Font_hd_mono18haa4_004b
                0x081304d8       0x63 fonts/hdudispfmono18haa4.o
                0x081304d8                Font_hd_mono18haa4_004b
 *fill*         0x0813053b        0x1 
 .rodata.Font_hd_mono18haa4_004c
                0x0813053c       0x63 fonts/hdudispfmono18haa4.o
                0x0813053c                Font_hd_mono18haa4_004c
 *fill*         0x0813059f        0x1 
 .rodata.Font_hd_mono18haa4_004d
                0x081305a0       0x63 fonts/hdudispfmono18haa4.o
                0x081305a0                Font_hd_mono18haa4_004d
 *fill*         0x08130603        0x1 
 .rodata.Font_hd_mono18haa4_004e
                0x08130604       0x63 fonts/hdudispfmono18haa4.o
                0x08130604                Font_hd_mono18haa4_004e
 *fill*         0x08130667        0x1 
 .rodata.Font_hd_mono18haa4_004f
                0x08130668       0x63 fonts/hdudispfmono18haa4.o
                0x08130668                Font_hd_mono18haa4_004f
 *fill*         0x081306cb        0x1 
 .rodata.Font_hd_mono18haa4_0050
                0x081306cc       0x63 fonts/hdudispfmono18haa4.o
                0x081306cc                Font_hd_mono18haa4_0050
 *fill*         0x0813072f        0x1 
 .rodata.Font_hd_mono18haa4_0051
                0x08130730       0x63 fonts/hdudispfmono18haa4.o
                0x08130730                Font_hd_mono18haa4_0051
 *fill*         0x08130793        0x1 
 .rodata.Font_hd_mono18haa4_0052
                0x08130794       0x63 fonts/hdudispfmono18haa4.o
                0x08130794                Font_hd_mono18haa4_0052
 *fill*         0x081307f7        0x1 
 .rodata.Font_hd_mono18haa4_0053
                0x081307f8       0x63 fonts/hdudispfmono18haa4.o
                0x081307f8                Font_hd_mono18haa4_0053
 *fill*         0x0813085b        0x1 
 .rodata.Font_hd_mono18haa4_0054
                0x0813085c       0x63 fonts/hdudispfmono18haa4.o
                0x0813085c                Font_hd_mono18haa4_0054
 *fill*         0x081308bf        0x1 
 .rodata.Font_hd_mono18haa4_0055
                0x081308c0       0x63 fonts/hdudispfmono18haa4.o
                0x081308c0                Font_hd_mono18haa4_0055
 *fill*         0x08130923        0x1 
 .rodata.Font_hd_mono18haa4_0056
                0x08130924       0x63 fonts/hdudispfmono18haa4.o
                0x08130924                Font_hd_mono18haa4_0056
 *fill*         0x08130987        0x1 
 .rodata.Font_hd_mono18haa4_0057
                0x08130988       0x63 fonts/hdudispfmono18haa4.o
                0x08130988                Font_hd_mono18haa4_0057
 *fill*         0x081309eb        0x1 
 .rodata.Font_hd_mono18haa4_0058
                0x081309ec       0x63 fonts/hdudispfmono18haa4.o
                0x081309ec                Font_hd_mono18haa4_0058
 *fill*         0x08130a4f        0x1 
 .rodata.Font_hd_mono18haa4_0059
                0x08130a50       0x6c fonts/hdudispfmono18haa4.o
                0x08130a50                Font_hd_mono18haa4_0059
 .rodata.Font_hd_mono18haa4_005a
                0x08130abc       0x63 fonts/hdudispfmono18haa4.o
                0x08130abc                Font_hd_mono18haa4_005a
 *fill*         0x08130b1f        0x1 
 .rodata.Font_hd_mono18haa4_005b
                0x08130b20       0x63 fonts/hdudispfmono18haa4.o
                0x08130b20                Font_hd_mono18haa4_005b
 *fill*         0x08130b83        0x1 
 .rodata.Font_hd_mono18haa4_005c
                0x08130b84       0x63 fonts/hdudispfmono18haa4.o
                0x08130b84                Font_hd_mono18haa4_005c
 *fill*         0x08130be7        0x1 
 .rodata.Font_hd_mono18haa4_005d
                0x08130be8       0x63 fonts/hdudispfmono18haa4.o
                0x08130be8                Font_hd_mono18haa4_005d
 *fill*         0x08130c4b        0x1 
 .rodata.Font_hd_mono18haa4_005e
                0x08130c4c       0x63 fonts/hdudispfmono18haa4.o
                0x08130c4c                Font_hd_mono18haa4_005e
 *fill*         0x08130caf        0x1 
 .rodata.Font_hd_mono18haa4_005f
                0x08130cb0       0x63 fonts/hdudispfmono18haa4.o
                0x08130cb0                Font_hd_mono18haa4_005f
 *fill*         0x08130d13        0x1 
 .rodata.Font_hd_mono18haa4_0060
                0x08130d14       0x63 fonts/hdudispfmono18haa4.o
                0x08130d14                Font_hd_mono18haa4_0060
 *fill*         0x08130d77        0x1 
 .rodata.Font_hd_mono18haa4_0061
                0x08130d78       0x63 fonts/hdudispfmono18haa4.o
                0x08130d78                Font_hd_mono18haa4_0061
 *fill*         0x08130ddb        0x1 
 .rodata.Font_hd_mono18haa4_0062
                0x08130ddc       0x63 fonts/hdudispfmono18haa4.o
                0x08130ddc                Font_hd_mono18haa4_0062
 *fill*         0x08130e3f        0x1 
 .rodata.Font_hd_mono18haa4_0063
                0x08130e40       0x63 fonts/hdudispfmono18haa4.o
                0x08130e40                Font_hd_mono18haa4_0063
 *fill*         0x08130ea3        0x1 
 .rodata.Font_hd_mono18haa4_0064
                0x08130ea4       0x63 fonts/hdudispfmono18haa4.o
                0x08130ea4                Font_hd_mono18haa4_0064
 *fill*         0x08130f07        0x1 
 .rodata.Font_hd_mono18haa4_0065
                0x08130f08       0x63 fonts/hdudispfmono18haa4.o
                0x08130f08                Font_hd_mono18haa4_0065
 *fill*         0x08130f6b        0x1 
 .rodata.Font_hd_mono18haa4_0066
                0x08130f6c       0x63 fonts/hdudispfmono18haa4.o
                0x08130f6c                Font_hd_mono18haa4_0066
 *fill*         0x08130fcf        0x1 
 .rodata.Font_hd_mono18haa4_0067
                0x08130fd0       0x63 fonts/hdudispfmono18haa4.o
                0x08130fd0                Font_hd_mono18haa4_0067
 *fill*         0x08131033        0x1 
 .rodata.Font_hd_mono18haa4_0068
                0x08131034       0x63 fonts/hdudispfmono18haa4.o
                0x08131034                Font_hd_mono18haa4_0068
 *fill*         0x08131097        0x1 
 .rodata.Font_hd_mono18haa4_0069
                0x08131098       0x63 fonts/hdudispfmono18haa4.o
                0x08131098                Font_hd_mono18haa4_0069
 *fill*         0x081310fb        0x1 
 .rodata.Font_hd_mono18haa4_006a
                0x081310fc       0x63 fonts/hdudispfmono18haa4.o
                0x081310fc                Font_hd_mono18haa4_006a
 *fill*         0x0813115f        0x1 
 .rodata.Font_hd_mono18haa4_006b
                0x08131160       0x63 fonts/hdudispfmono18haa4.o
                0x08131160                Font_hd_mono18haa4_006b
 *fill*         0x081311c3        0x1 
 .rodata.Font_hd_mono18haa4_006c
                0x081311c4       0x63 fonts/hdudispfmono18haa4.o
                0x081311c4                Font_hd_mono18haa4_006c
 *fill*         0x08131227        0x1 
 .rodata.Font_hd_mono18haa4_006d
                0x08131228       0x63 fonts/hdudispfmono18haa4.o
                0x08131228                Font_hd_mono18haa4_006d
 *fill*         0x0813128b        0x1 
 .rodata.Font_hd_mono18haa4_006e
                0x0813128c       0x63 fonts/hdudispfmono18haa4.o
                0x0813128c                Font_hd_mono18haa4_006e
 *fill*         0x081312ef        0x1 
 .rodata.Font_hd_mono18haa4_006f
                0x081312f0       0x63 fonts/hdudispfmono18haa4.o
                0x081312f0                Font_hd_mono18haa4_006f
 *fill*         0x08131353        0x1 
 .rodata.Font_hd_mono18haa4_0070
                0x08131354       0x63 fonts/hdudispfmono18haa4.o
                0x08131354                Font_hd_mono18haa4_0070
 *fill*         0x081313b7        0x1 
 .rodata.Font_hd_mono18haa4_0071
                0x081313b8       0x63 fonts/hdudispfmono18haa4.o
                0x081313b8                Font_hd_mono18haa4_0071
 *fill*         0x0813141b        0x1 
 .rodata.Font_hd_mono18haa4_0072
                0x0813141c       0x63 fonts/hdudispfmono18haa4.o
                0x0813141c                Font_hd_mono18haa4_0072
 *fill*         0x0813147f        0x1 
 .rodata.Font_hd_mono18haa4_0073
                0x08131480       0x63 fonts/hdudispfmono18haa4.o
                0x08131480                Font_hd_mono18haa4_0073
 *fill*         0x081314e3        0x1 
 .rodata.Font_hd_mono18haa4_0074
                0x081314e4       0x63 fonts/hdudispfmono18haa4.o
                0x081314e4                Font_hd_mono18haa4_0074
 *fill*         0x08131547        0x1 
 .rodata.Font_hd_mono18haa4_0075
                0x08131548       0x63 fonts/hdudispfmono18haa4.o
                0x08131548                Font_hd_mono18haa4_0075
 *fill*         0x081315ab        0x1 
 .rodata.Font_hd_mono18haa4_0076
                0x081315ac       0x63 fonts/hdudispfmono18haa4.o
                0x081315ac                Font_hd_mono18haa4_0076
 *fill*         0x0813160f        0x1 
 .rodata.Font_hd_mono18haa4_0077
                0x08131610       0x63 fonts/hdudispfmono18haa4.o
                0x08131610                Font_hd_mono18haa4_0077
 *fill*         0x08131673        0x1 
 .rodata.Font_hd_mono18haa4_0078
                0x08131674       0x63 fonts/hdudispfmono18haa4.o
                0x08131674                Font_hd_mono18haa4_0078
 *fill*         0x081316d7        0x1 
 .rodata.Font_hd_mono18haa4_0079
                0x081316d8       0x63 fonts/hdudispfmono18haa4.o
                0x081316d8                Font_hd_mono18haa4_0079
 *fill*         0x0813173b        0x1 
 .rodata.Font_hd_mono18haa4_007a
                0x0813173c       0x63 fonts/hdudispfmono18haa4.o
                0x0813173c                Font_hd_mono18haa4_007a
 *fill*         0x0813179f        0x1 
 .rodata.Font_hd_mono18haa4_007b
                0x081317a0       0x63 fonts/hdudispfmono18haa4.o
                0x081317a0                Font_hd_mono18haa4_007b
 *fill*         0x08131803        0x1 
 .rodata.Font_hd_mono18haa4_007c
                0x08131804       0x63 fonts/hdudispfmono18haa4.o
                0x08131804                Font_hd_mono18haa4_007c
 *fill*         0x08131867        0x1 
 .rodata.Font_hd_mono18haa4_007d
                0x08131868       0x63 fonts/hdudispfmono18haa4.o
                0x08131868                Font_hd_mono18haa4_007d
 *fill*         0x081318cb        0x1 
 .rodata.Font_hd_mono18haa4_007e
                0x081318cc       0x63 fonts/hdudispfmono18haa4.o
                0x081318cc                Font_hd_mono18haa4_007e
 *fill*         0x0813192f        0x1 
 .rodata.Font_hd_mono18haa4_007f
                0x08131930       0x5a fonts/hdudispfmono18haa4.o
                0x08131930                Font_hd_mono18haa4_007f
 *fill*         0x0813198a        0x2 
 .rodata.Font_hd_mono18haa4_0090
                0x0813198c       0x63 fonts/hdudispfmono18haa4.o
                0x0813198c                Font_hd_mono18haa4_0090
 *fill*         0x081319ef        0x1 
 .rodata.Font_hd_mono18haa4_0091
                0x081319f0       0x63 fonts/hdudispfmono18haa4.o
                0x081319f0                Font_hd_mono18haa4_0091
 *fill*         0x08131a53        0x1 
 .rodata.Font_hd_mono18haa4_0092
                0x08131a54       0x63 fonts/hdudispfmono18haa4.o
                0x08131a54                Font_hd_mono18haa4_0092
 *fill*         0x08131ab7        0x1 
 .rodata.Font_hd_mono18haa4_0093
                0x08131ab8       0x63 fonts/hdudispfmono18haa4.o
                0x08131ab8                Font_hd_mono18haa4_0093
 *fill*         0x08131b1b        0x1 
 .rodata.Font_hd_mono18haa4_0094
                0x08131b1c       0x63 fonts/hdudispfmono18haa4.o
                0x08131b1c                Font_hd_mono18haa4_0094
 *fill*         0x08131b7f        0x1 
 .rodata.Font_hd_mono18haa4_0095
                0x08131b80       0x63 fonts/hdudispfmono18haa4.o
                0x08131b80                Font_hd_mono18haa4_0095
 *fill*         0x08131be3        0x1 
 .rodata.Font_hd_mono18haa4_0096
                0x08131be4       0x63 fonts/hdudispfmono18haa4.o
                0x08131be4                Font_hd_mono18haa4_0096
 *fill*         0x08131c47        0x1 
 .rodata.Font_hd_mono18haa4_0097
                0x08131c48       0x1b fonts/hdudispfmono18haa4.o
                0x08131c48                Font_hd_mono18haa4_0097
 *fill*         0x08131c63        0x1 
 .rodata.Font_hd_mono18haa4_0098
                0x08131c64       0x1b fonts/hdudispfmono18haa4.o
                0x08131c64                Font_hd_mono18haa4_0098
 *fill*         0x08131c7f        0x1 
 .rodata.Font_hd_mono18haa4_0099
                0x08131c80       0x24 fonts/hdudispfmono18haa4.o
                0x08131c80                Font_hd_mono18haa4_0099
 .rodata.Font_hd_mono18haa4_009a
                0x08131ca4       0x24 fonts/hdudispfmono18haa4.o
                0x08131ca4                Font_hd_mono18haa4_009a
 .rodata.Font_hd_mono18haa4_009b
                0x08131cc8       0x24 fonts/hdudispfmono18haa4.o
                0x08131cc8                Font_hd_mono18haa4_009b
 .rodata.Font_hd_mono18haa4_009c
                0x08131cec       0x24 fonts/hdudispfmono18haa4.o
                0x08131cec                Font_hd_mono18haa4_009c
 .rodata.Font_hd_mono18haa4_009d
                0x08131d10       0x5a fonts/hdudispfmono18haa4.o
                0x08131d10                Font_hd_mono18haa4_009d
 *fill*         0x08131d6a        0x2 
 .rodata.Font_hd_mono18haa4_009e
                0x08131d6c       0x24 fonts/hdudispfmono18haa4.o
                0x08131d6c                Font_hd_mono18haa4_009e
 .rodata.Font_hd_mono18haa4_009f
                0x08131d90       0x24 fonts/hdudispfmono18haa4.o
                0x08131d90                Font_hd_mono18haa4_009f
 .rodata.Font_hd_mono18haa4_00a0
                0x08131db4       0x63 fonts/hdudispfmono18haa4.o
                0x08131db4                Font_hd_mono18haa4_00a0
 *fill*         0x08131e17        0x1 
 .rodata.Font_hd_mono18haa4_00a1
                0x08131e18       0x63 fonts/hdudispfmono18haa4.o
                0x08131e18                Font_hd_mono18haa4_00a1
 *fill*         0x08131e7b        0x1 
 .rodata.Font_hd_mono18haa4_00a2
                0x08131e7c       0x63 fonts/hdudispfmono18haa4.o
                0x08131e7c                Font_hd_mono18haa4_00a2
 *fill*         0x08131edf        0x1 
 .rodata.Font_hd_mono18haa4_00a3
                0x08131ee0       0x63 fonts/hdudispfmono18haa4.o
                0x08131ee0                Font_hd_mono18haa4_00a3
 *fill*         0x08131f43        0x1 
 .rodata.Font_hd_mono18haa4_00a4
                0x08131f44       0x63 fonts/hdudispfmono18haa4.o
                0x08131f44                Font_hd_mono18haa4_00a4
 *fill*         0x08131fa7        0x1 
 .rodata.Font_hd_mono18haa4_00a5
                0x08131fa8       0x63 fonts/hdudispfmono18haa4.o
                0x08131fa8                Font_hd_mono18haa4_00a5
 *fill*         0x0813200b        0x1 
 .rodata.Font_hd_mono18haa4_00a6
                0x0813200c       0x6c fonts/hdudispfmono18haa4.o
                0x0813200c                Font_hd_mono18haa4_00a6
 .rodata.Font_hd_mono18haa4_00a7
                0x08132078       0x63 fonts/hdudispfmono18haa4.o
                0x08132078                Font_hd_mono18haa4_00a7
 *fill*         0x081320db        0x1 
 .rodata.Font_hd_mono18haa4_00a8
                0x081320dc       0x63 fonts/hdudispfmono18haa4.o
                0x081320dc                Font_hd_mono18haa4_00a8
 *fill*         0x0813213f        0x1 
 .rodata.Font_hd_mono18haa4_00a9
                0x08132140       0x63 fonts/hdudispfmono18haa4.o
                0x08132140                Font_hd_mono18haa4_00a9
 *fill*         0x081321a3        0x1 
 .rodata.Font_hd_mono18haa4_00aa
                0x081321a4       0x63 fonts/hdudispfmono18haa4.o
                0x081321a4                Font_hd_mono18haa4_00aa
 *fill*         0x08132207        0x1 
 .rodata.Font_hd_mono18haa4_00ab
                0x08132208       0x63 fonts/hdudispfmono18haa4.o
                0x08132208                Font_hd_mono18haa4_00ab
 *fill*         0x0813226b        0x1 
 .rodata.Font_hd_mono18haa4_00ac
                0x0813226c       0x63 fonts/hdudispfmono18haa4.o
                0x0813226c                Font_hd_mono18haa4_00ac
 *fill*         0x081322cf        0x1 
 .rodata.Font_hd_mono18haa4_00ad
                0x081322d0       0x63 fonts/hdudispfmono18haa4.o
                0x081322d0                Font_hd_mono18haa4_00ad
 *fill*         0x08132333        0x1 
 .rodata.Font_hd_mono18haa4_00ae
                0x08132334       0x63 fonts/hdudispfmono18haa4.o
                0x08132334                Font_hd_mono18haa4_00ae
 *fill*         0x08132397        0x1 
 .rodata.Font_hd_mono18haa4_00af
                0x08132398       0x63 fonts/hdudispfmono18haa4.o
                0x08132398                Font_hd_mono18haa4_00af
 *fill*         0x081323fb        0x1 
 .rodata.Font_hd_mono18haa4_00b0
                0x081323fc       0x63 fonts/hdudispfmono18haa4.o
                0x081323fc                Font_hd_mono18haa4_00b0
 *fill*         0x0813245f        0x1 
 .rodata.Font_hd_mono18haa4_00b1
                0x08132460       0x63 fonts/hdudispfmono18haa4.o
                0x08132460                Font_hd_mono18haa4_00b1
 *fill*         0x081324c3        0x1 
 .rodata.Font_hd_mono18haa4_00b2
                0x081324c4       0x63 fonts/hdudispfmono18haa4.o
                0x081324c4                Font_hd_mono18haa4_00b2
 *fill*         0x08132527        0x1 
 .rodata.Font_hd_mono18haa4_00b3
                0x08132528       0x63 fonts/hdudispfmono18haa4.o
                0x08132528                Font_hd_mono18haa4_00b3
 *fill*         0x0813258b        0x1 
 .rodata.Font_hd_mono18haa4_00b4
                0x0813258c       0x63 fonts/hdudispfmono18haa4.o
                0x0813258c                Font_hd_mono18haa4_00b4
 *fill*         0x081325ef        0x1 
 .rodata.Font_hd_mono18haa4_00b5
                0x081325f0       0x63 fonts/hdudispfmono18haa4.o
                0x081325f0                Font_hd_mono18haa4_00b5
 *fill*         0x08132653        0x1 
 .rodata.Font_hd_mono18haa4_00b6
                0x08132654       0x63 fonts/hdudispfmono18haa4.o
                0x08132654                Font_hd_mono18haa4_00b6
 *fill*         0x081326b7        0x1 
 .rodata.Font_hd_mono18haa4_00b7
                0x081326b8       0x63 fonts/hdudispfmono18haa4.o
                0x081326b8                Font_hd_mono18haa4_00b7
 *fill*         0x0813271b        0x1 
 .rodata.Font_hd_mono18haa4_00b8
                0x0813271c       0x63 fonts/hdudispfmono18haa4.o
                0x0813271c                Font_hd_mono18haa4_00b8
 *fill*         0x0813277f        0x1 
 .rodata.Font_hd_mono18haa4_00b9
                0x08132780       0x63 fonts/hdudispfmono18haa4.o
                0x08132780                Font_hd_mono18haa4_00b9
 *fill*         0x081327e3        0x1 
 .rodata.Font_hd_mono18haa4_00ba
                0x081327e4       0x63 fonts/hdudispfmono18haa4.o
                0x081327e4                Font_hd_mono18haa4_00ba
 *fill*         0x08132847        0x1 
 .rodata.Font_hd_mono18haa4_00bb
                0x08132848       0x63 fonts/hdudispfmono18haa4.o
                0x08132848                Font_hd_mono18haa4_00bb
 *fill*         0x081328ab        0x1 
 .rodata.Font_hd_mono18haa4_00bc
                0x081328ac       0x63 fonts/hdudispfmono18haa4.o
                0x081328ac                Font_hd_mono18haa4_00bc
 *fill*         0x0813290f        0x1 
 .rodata.Font_hd_mono18haa4_00bd
                0x08132910       0x63 fonts/hdudispfmono18haa4.o
                0x08132910                Font_hd_mono18haa4_00bd
 *fill*         0x08132973        0x1 
 .rodata.Font_hd_mono18haa4_00be
                0x08132974       0x63 fonts/hdudispfmono18haa4.o
                0x08132974                Font_hd_mono18haa4_00be
 *fill*         0x081329d7        0x1 
 .rodata.Font_hd_mono18haa4_00bf
                0x081329d8       0x63 fonts/hdudispfmono18haa4.o
                0x081329d8                Font_hd_mono18haa4_00bf
 *fill*         0x08132a3b        0x1 
 .rodata.Font_hd_mono18haa4_00c0
                0x08132a3c       0x63 fonts/hdudispfmono18haa4.o
                0x08132a3c                Font_hd_mono18haa4_00c0
 *fill*         0x08132a9f        0x1 
 .rodata.Font_hd_mono18haa4_00c1
                0x08132aa0       0x63 fonts/hdudispfmono18haa4.o
                0x08132aa0                Font_hd_mono18haa4_00c1
 *fill*         0x08132b03        0x1 
 .rodata.Font_hd_mono18haa4_00c2
                0x08132b04       0x63 fonts/hdudispfmono18haa4.o
                0x08132b04                Font_hd_mono18haa4_00c2
 *fill*         0x08132b67        0x1 
 .rodata.Font_hd_mono18haa4_00c3
                0x08132b68       0x63 fonts/hdudispfmono18haa4.o
                0x08132b68                Font_hd_mono18haa4_00c3
 *fill*         0x08132bcb        0x1 
 .rodata.Font_hd_mono18haa4_00c4
                0x08132bcc       0x63 fonts/hdudispfmono18haa4.o
                0x08132bcc                Font_hd_mono18haa4_00c4
 *fill*         0x08132c2f        0x1 
 .rodata.Font_hd_mono18haa4_00c5
                0x08132c30       0x63 fonts/hdudispfmono18haa4.o
                0x08132c30                Font_hd_mono18haa4_00c5
 *fill*         0x08132c93        0x1 
 .rodata.Font_hd_mono18haa4_00c6
                0x08132c94       0x63 fonts/hdudispfmono18haa4.o
                0x08132c94                Font_hd_mono18haa4_00c6
 *fill*         0x08132cf7        0x1 
 .rodata.Font_hd_mono18haa4_00c7
                0x08132cf8       0x63 fonts/hdudispfmono18haa4.o
                0x08132cf8                Font_hd_mono18haa4_00c7
 *fill*         0x08132d5b        0x1 
 .rodata.Font_hd_mono18haa4_00c8
                0x08132d5c       0x63 fonts/hdudispfmono18haa4.o
                0x08132d5c                Font_hd_mono18haa4_00c8
 *fill*         0x08132dbf        0x1 
 .rodata.Font_hd_mono18haa4_00c9
                0x08132dc0       0x63 fonts/hdudispfmono18haa4.o
                0x08132dc0                Font_hd_mono18haa4_00c9
 *fill*         0x08132e23        0x1 
 .rodata.Font_hd_mono18haa4_00ca
                0x08132e24       0x63 fonts/hdudispfmono18haa4.o
                0x08132e24                Font_hd_mono18haa4_00ca
 *fill*         0x08132e87        0x1 
 .rodata.Font_hd_mono18haa4_00cb
                0x08132e88       0x63 fonts/hdudispfmono18haa4.o
                0x08132e88                Font_hd_mono18haa4_00cb
 *fill*         0x08132eeb        0x1 
 .rodata.Font_hd_mono18haa4_00cc
                0x08132eec       0x63 fonts/hdudispfmono18haa4.o
                0x08132eec                Font_hd_mono18haa4_00cc
 *fill*         0x08132f4f        0x1 
 .rodata.Font_hd_mono18haa4_00cd
                0x08132f50       0x63 fonts/hdudispfmono18haa4.o
                0x08132f50                Font_hd_mono18haa4_00cd
 *fill*         0x08132fb3        0x1 
 .rodata.Font_hd_mono18haa4_00ce
                0x08132fb4       0x63 fonts/hdudispfmono18haa4.o
                0x08132fb4                Font_hd_mono18haa4_00ce
 *fill*         0x08133017        0x1 
 .rodata.Font_hd_mono18haa4_00cf
                0x08133018       0x63 fonts/hdudispfmono18haa4.o
                0x08133018                Font_hd_mono18haa4_00cf
 *fill*         0x0813307b        0x1 
 .rodata.Font_hd_mono18haa4_00d0
                0x0813307c       0x63 fonts/hdudispfmono18haa4.o
                0x0813307c                Font_hd_mono18haa4_00d0
 *fill*         0x081330df        0x1 
 .rodata.Font_hd_mono18haa4_00d1
                0x081330e0       0x63 fonts/hdudispfmono18haa4.o
                0x081330e0                Font_hd_mono18haa4_00d1
 *fill*         0x08133143        0x1 
 .rodata.Font_hd_mono18haa4_00d2
                0x08133144       0x63 fonts/hdudispfmono18haa4.o
                0x08133144                Font_hd_mono18haa4_00d2
 *fill*         0x081331a7        0x1 
 .rodata.Font_hd_mono18haa4_00d3
                0x081331a8       0x63 fonts/hdudispfmono18haa4.o
                0x081331a8                Font_hd_mono18haa4_00d3
 *fill*         0x0813320b        0x1 
 .rodata.Font_hd_mono18haa4_00d4
                0x0813320c       0x63 fonts/hdudispfmono18haa4.o
                0x0813320c                Font_hd_mono18haa4_00d4
 *fill*         0x0813326f        0x1 
 .rodata.Font_hd_mono18haa4_00d5
                0x08133270       0x63 fonts/hdudispfmono18haa4.o
                0x08133270                Font_hd_mono18haa4_00d5
 *fill*         0x081332d3        0x1 
 .rodata.Font_hd_mono18haa4_00d6
                0x081332d4       0x63 fonts/hdudispfmono18haa4.o
                0x081332d4                Font_hd_mono18haa4_00d6
 *fill*         0x08133337        0x1 
 .rodata.Font_hd_mono18haa4_00d7
                0x08133338       0x63 fonts/hdudispfmono18haa4.o
                0x08133338                Font_hd_mono18haa4_00d7
 *fill*         0x0813339b        0x1 
 .rodata.Font_hd_mono18haa4_00d8
                0x0813339c       0x63 fonts/hdudispfmono18haa4.o
                0x0813339c                Font_hd_mono18haa4_00d8
 *fill*         0x081333ff        0x1 
 .rodata.Font_hd_mono18haa4_00d9
                0x08133400       0x6c fonts/hdudispfmono18haa4.o
                0x08133400                Font_hd_mono18haa4_00d9
 .rodata.Font_hd_mono18haa4_00da
                0x0813346c       0x63 fonts/hdudispfmono18haa4.o
                0x0813346c                Font_hd_mono18haa4_00da
 *fill*         0x081334cf        0x1 
 .rodata.Font_hd_mono18haa4_00db
                0x081334d0       0x63 fonts/hdudispfmono18haa4.o
                0x081334d0                Font_hd_mono18haa4_00db
 *fill*         0x08133533        0x1 
 .rodata.Font_hd_mono18haa4_00dc
                0x08133534       0x63 fonts/hdudispfmono18haa4.o
                0x08133534                Font_hd_mono18haa4_00dc
 *fill*         0x08133597        0x1 
 .rodata.Font_hd_mono18haa4_00dd
                0x08133598       0x63 fonts/hdudispfmono18haa4.o
                0x08133598                Font_hd_mono18haa4_00dd
 *fill*         0x081335fb        0x1 
 .rodata.Font_hd_mono18haa4_00de
                0x081335fc       0x63 fonts/hdudispfmono18haa4.o
                0x081335fc                Font_hd_mono18haa4_00de
 *fill*         0x0813365f        0x1 
 .rodata.Font_hd_mono18haa4_00df
                0x08133660       0x63 fonts/hdudispfmono18haa4.o
                0x08133660                Font_hd_mono18haa4_00df
 *fill*         0x081336c3        0x1 
 .rodata.Font_hd_mono18haa4_00e0
                0x081336c4       0x63 fonts/hdudispfmono18haa4.o
                0x081336c4                Font_hd_mono18haa4_00e0
 *fill*         0x08133727        0x1 
 .rodata.Font_hd_mono18haa4_00e1
                0x08133728       0x63 fonts/hdudispfmono18haa4.o
                0x08133728                Font_hd_mono18haa4_00e1
 *fill*         0x0813378b        0x1 
 .rodata.Font_hd_mono18haa4_00e2
                0x0813378c       0x63 fonts/hdudispfmono18haa4.o
                0x0813378c                Font_hd_mono18haa4_00e2
 *fill*         0x081337ef        0x1 
 .rodata.Font_hd_mono18haa4_00e3
                0x081337f0       0x63 fonts/hdudispfmono18haa4.o
                0x081337f0                Font_hd_mono18haa4_00e3
 *fill*         0x08133853        0x1 
 .rodata.Font_hd_mono18haa4_00e4
                0x08133854       0x63 fonts/hdudispfmono18haa4.o
                0x08133854                Font_hd_mono18haa4_00e4
 *fill*         0x081338b7        0x1 
 .rodata.Font_hd_mono18haa4_00e5
                0x081338b8       0x63 fonts/hdudispfmono18haa4.o
                0x081338b8                Font_hd_mono18haa4_00e5
 *fill*         0x0813391b        0x1 
 .rodata.Font_hd_mono18haa4_00e6
                0x0813391c       0x63 fonts/hdudispfmono18haa4.o
                0x0813391c                Font_hd_mono18haa4_00e6
 *fill*         0x0813397f        0x1 
 .rodata.Font_hd_mono18haa4_00e7
                0x08133980       0x63 fonts/hdudispfmono18haa4.o
                0x08133980                Font_hd_mono18haa4_00e7
 *fill*         0x081339e3        0x1 
 .rodata.Font_hd_mono18haa4_00e8
                0x081339e4       0x63 fonts/hdudispfmono18haa4.o
                0x081339e4                Font_hd_mono18haa4_00e8
 *fill*         0x08133a47        0x1 
 .rodata.Font_hd_mono18haa4_00e9
                0x08133a48       0x63 fonts/hdudispfmono18haa4.o
                0x08133a48                Font_hd_mono18haa4_00e9
 *fill*         0x08133aab        0x1 
 .rodata.Font_hd_mono18haa4_00ea
                0x08133aac       0x63 fonts/hdudispfmono18haa4.o
                0x08133aac                Font_hd_mono18haa4_00ea
 *fill*         0x08133b0f        0x1 
 .rodata.Font_hd_mono18haa4_00eb
                0x08133b10       0x63 fonts/hdudispfmono18haa4.o
                0x08133b10                Font_hd_mono18haa4_00eb
 *fill*         0x08133b73        0x1 
 .rodata.Font_hd_mono18haa4_00ec
                0x08133b74       0x63 fonts/hdudispfmono18haa4.o
                0x08133b74                Font_hd_mono18haa4_00ec
 *fill*         0x08133bd7        0x1 
 .rodata.Font_hd_mono18haa4_00ed
                0x08133bd8       0x63 fonts/hdudispfmono18haa4.o
                0x08133bd8                Font_hd_mono18haa4_00ed
 *fill*         0x08133c3b        0x1 
 .rodata.Font_hd_mono18haa4_00ee
                0x08133c3c       0x63 fonts/hdudispfmono18haa4.o
                0x08133c3c                Font_hd_mono18haa4_00ee
 *fill*         0x08133c9f        0x1 
 .rodata.Font_hd_mono18haa4_00ef
                0x08133ca0       0x63 fonts/hdudispfmono18haa4.o
                0x08133ca0                Font_hd_mono18haa4_00ef
 *fill*         0x08133d03        0x1 
 .rodata.Font_hd_mono18haa4_00f0
                0x08133d04       0x63 fonts/hdudispfmono18haa4.o
                0x08133d04                Font_hd_mono18haa4_00f0
 *fill*         0x08133d67        0x1 
 .rodata.Font_hd_mono18haa4_00f1
                0x08133d68       0x63 fonts/hdudispfmono18haa4.o
                0x08133d68                Font_hd_mono18haa4_00f1
 *fill*         0x08133dcb        0x1 
 .rodata.Font_hd_mono18haa4_00f2
                0x08133dcc       0x63 fonts/hdudispfmono18haa4.o
                0x08133dcc                Font_hd_mono18haa4_00f2
 *fill*         0x08133e2f        0x1 
 .rodata.Font_hd_mono18haa4_00f3
                0x08133e30       0x63 fonts/hdudispfmono18haa4.o
                0x08133e30                Font_hd_mono18haa4_00f3
 *fill*         0x08133e93        0x1 
 .rodata.Font_hd_mono18haa4_00f4
                0x08133e94       0x63 fonts/hdudispfmono18haa4.o
                0x08133e94                Font_hd_mono18haa4_00f4
 *fill*         0x08133ef7        0x1 
 .rodata.Font_hd_mono18haa4_00f5
                0x08133ef8       0x63 fonts/hdudispfmono18haa4.o
                0x08133ef8                Font_hd_mono18haa4_00f5
 *fill*         0x08133f5b        0x1 
 .rodata.Font_hd_mono18haa4_00f6
                0x08133f5c       0x63 fonts/hdudispfmono18haa4.o
                0x08133f5c                Font_hd_mono18haa4_00f6
 *fill*         0x08133fbf        0x1 
 .rodata.Font_hd_mono18haa4_00f7
                0x08133fc0       0x63 fonts/hdudispfmono18haa4.o
                0x08133fc0                Font_hd_mono18haa4_00f7
 *fill*         0x08134023        0x1 
 .rodata.Font_hd_mono18haa4_00f8
                0x08134024       0x63 fonts/hdudispfmono18haa4.o
                0x08134024                Font_hd_mono18haa4_00f8
 *fill*         0x08134087        0x1 
 .rodata.Font_hd_mono18haa4_00f9
                0x08134088       0x63 fonts/hdudispfmono18haa4.o
                0x08134088                Font_hd_mono18haa4_00f9
 *fill*         0x081340eb        0x1 
 .rodata.Font_hd_mono18haa4_00fa
                0x081340ec       0x63 fonts/hdudispfmono18haa4.o
                0x081340ec                Font_hd_mono18haa4_00fa
 *fill*         0x0813414f        0x1 
 .rodata.Font_hd_mono18haa4_00fb
                0x08134150       0x63 fonts/hdudispfmono18haa4.o
                0x08134150                Font_hd_mono18haa4_00fb
 *fill*         0x081341b3        0x1 
 .rodata.Font_hd_mono18haa4_00fc
                0x081341b4       0x63 fonts/hdudispfmono18haa4.o
                0x081341b4                Font_hd_mono18haa4_00fc
 *fill*         0x08134217        0x1 
 .rodata.Font_hd_mono18haa4_00fd
                0x08134218       0x63 fonts/hdudispfmono18haa4.o
                0x08134218                Font_hd_mono18haa4_00fd
 *fill*         0x0813427b        0x1 
 .rodata.Font_hd_mono18haa4_00fe
                0x0813427c       0x63 fonts/hdudispfmono18haa4.o
                0x0813427c                Font_hd_mono18haa4_00fe
 *fill*         0x081342df        0x1 
 .rodata.Font_hd_mono18haa4_00ff
                0x081342e0       0xb4 fonts/hdudispfmono18haa4.o
                0x081342e0                Font_hd_mono18haa4_00ff
 .rodata.Font_hd_mono18haa4_char_info
                0x08134394      0x700 fonts/hdudispfmono18haa4.o
                0x08134394                Font_hd_mono18haa4_char_info
 .rodata.Font_hd_mono18haa4_prop2
                0x08134a94        0xc fonts/hdudispfmono18haa4.o
                0x08134a94                Font_hd_mono18haa4_prop2
 .rodata.Font_hd_mono18haa4_prop1
                0x08134aa0        0xc fonts/hdudispfmono18haa4.o
                0x08134aa0                Font_hd_mono18haa4_prop1
 .rodata.Font_tiny
                0x08134aac       0x10 fonts/hdudispfmono18haa4.o
                0x08134aac                Font_tiny
 .rodata.Abc_font_mono22haa4_0010
                0x08134abc       0x8f fonts/hdudispfmono22haa4.o
                0x08134abc                Abc_font_mono22haa4_0010
 *fill*         0x08134b4b        0x1 
 .rodata.Abc_font_mono22haa4_0011
                0x08134b4c       0x8f fonts/hdudispfmono22haa4.o
                0x08134b4c                Abc_font_mono22haa4_0011
 *fill*         0x08134bdb        0x1 
 .rodata.Abc_font_mono22haa4_0012
                0x08134bdc       0x8f fonts/hdudispfmono22haa4.o
                0x08134bdc                Abc_font_mono22haa4_0012
 *fill*         0x08134c6b        0x1 
 .rodata.Abc_font_mono22haa4_0013
                0x08134c6c       0x8f fonts/hdudispfmono22haa4.o
                0x08134c6c                Abc_font_mono22haa4_0013
 *fill*         0x08134cfb        0x1 
 .rodata.Abc_font_mono22haa4_0014
                0x08134cfc       0x8f fonts/hdudispfmono22haa4.o
                0x08134cfc                Abc_font_mono22haa4_0014
 *fill*         0x08134d8b        0x1 
 .rodata.Abc_font_mono22haa4_0015
                0x08134d8c       0x8f fonts/hdudispfmono22haa4.o
                0x08134d8c                Abc_font_mono22haa4_0015
 *fill*         0x08134e1b        0x1 
 .rodata.Abc_font_mono22haa4_0016
                0x08134e1c       0x8f fonts/hdudispfmono22haa4.o
                0x08134e1c                Abc_font_mono22haa4_0016
 *fill*         0x08134eab        0x1 
 .rodata.Abc_font_mono22haa4_0017
                0x08134eac       0x21 fonts/hdudispfmono22haa4.o
                0x08134eac                Abc_font_mono22haa4_0017
 *fill*         0x08134ecd        0x3 
 .rodata.Abc_font_mono22haa4_0018
                0x08134ed0       0x21 fonts/hdudispfmono22haa4.o
                0x08134ed0                Abc_font_mono22haa4_0018
 *fill*         0x08134ef1        0x3 
 .rodata.Abc_font_mono22haa4_0019
                0x08134ef4       0x79 fonts/hdudispfmono22haa4.o
                0x08134ef4                Abc_font_mono22haa4_0019
 *fill*         0x08134f6d        0x3 
 .rodata.Abc_font_mono22haa4_001a
                0x08134f70       0x79 fonts/hdudispfmono22haa4.o
                0x08134f70                Abc_font_mono22haa4_001a
 *fill*         0x08134fe9        0x3 
 .rodata.Abc_font_mono22haa4_001b
                0x08134fec       0x79 fonts/hdudispfmono22haa4.o
                0x08134fec                Abc_font_mono22haa4_001b
 *fill*         0x08135065        0x3 
 .rodata.Abc_font_mono22haa4_001c
                0x08135068       0x79 fonts/hdudispfmono22haa4.o
                0x08135068                Abc_font_mono22haa4_001c
 *fill*         0x081350e1        0x3 
 .rodata.Abc_font_mono22haa4_001d
                0x081350e4       0x79 fonts/hdudispfmono22haa4.o
                0x081350e4                Abc_font_mono22haa4_001d
 *fill*         0x0813515d        0x3 
 .rodata.Abc_font_mono22haa4_001e
                0x08135160       0x79 fonts/hdudispfmono22haa4.o
                0x08135160                Abc_font_mono22haa4_001e
 *fill*         0x081351d9        0x3 
 .rodata.Abc_font_mono22haa4_001f
                0x081351dc       0x79 fonts/hdudispfmono22haa4.o
                0x081351dc                Abc_font_mono22haa4_001f
 *fill*         0x08135255        0x3 
 .rodata.Abc_font_mono22haa4_0020
                0x08135258       0x8f fonts/hdudispfmono22haa4.o
                0x08135258                Abc_font_mono22haa4_0020
 *fill*         0x081352e7        0x1 
 .rodata.Abc_font_mono22haa4_0021
                0x081352e8       0x8f fonts/hdudispfmono22haa4.o
                0x081352e8                Abc_font_mono22haa4_0021
 *fill*         0x08135377        0x1 
 .rodata.Abc_font_mono22haa4_0022
                0x08135378       0x8f fonts/hdudispfmono22haa4.o
                0x08135378                Abc_font_mono22haa4_0022
 *fill*         0x08135407        0x1 
 .rodata.Abc_font_mono22haa4_0023
                0x08135408       0x8f fonts/hdudispfmono22haa4.o
                0x08135408                Abc_font_mono22haa4_0023
 *fill*         0x08135497        0x1 
 .rodata.Abc_font_mono22haa4_0024
                0x08135498       0x8f fonts/hdudispfmono22haa4.o
                0x08135498                Abc_font_mono22haa4_0024
 *fill*         0x08135527        0x1 
 .rodata.Abc_font_mono22haa4_0025
                0x08135528       0x8f fonts/hdudispfmono22haa4.o
                0x08135528                Abc_font_mono22haa4_0025
 *fill*         0x081355b7        0x1 
 .rodata.Abc_font_mono22haa4_0026
                0x081355b8       0x9a fonts/hdudispfmono22haa4.o
                0x081355b8                Abc_font_mono22haa4_0026
 *fill*         0x08135652        0x2 
 .rodata.Abc_font_mono22haa4_0027
                0x08135654       0x8f fonts/hdudispfmono22haa4.o
                0x08135654                Abc_font_mono22haa4_0027
 *fill*         0x081356e3        0x1 
 .rodata.Abc_font_mono22haa4_0028
                0x081356e4       0x8f fonts/hdudispfmono22haa4.o
                0x081356e4                Abc_font_mono22haa4_0028
 *fill*         0x08135773        0x1 
 .rodata.Abc_font_mono22haa4_0029
                0x08135774       0x8f fonts/hdudispfmono22haa4.o
                0x08135774                Abc_font_mono22haa4_0029
 *fill*         0x08135803        0x1 
 .rodata.Abc_font_mono22haa4_002a
                0x08135804       0x8f fonts/hdudispfmono22haa4.o
                0x08135804                Abc_font_mono22haa4_002a
 *fill*         0x08135893        0x1 
 .rodata.Abc_font_mono22haa4_002b
                0x08135894       0x8f fonts/hdudispfmono22haa4.o
                0x08135894                Abc_font_mono22haa4_002b
 *fill*         0x08135923        0x1 
 .rodata.Abc_font_mono22haa4_002c
                0x08135924       0x8f fonts/hdudispfmono22haa4.o
                0x08135924                Abc_font_mono22haa4_002c
 *fill*         0x081359b3        0x1 
 .rodata.Abc_font_mono22haa4_002d
                0x081359b4       0x8f fonts/hdudispfmono22haa4.o
                0x081359b4                Abc_font_mono22haa4_002d
 *fill*         0x08135a43        0x1 
 .rodata.Abc_font_mono22haa4_002e
                0x08135a44       0x8f fonts/hdudispfmono22haa4.o
                0x08135a44                Abc_font_mono22haa4_002e
 *fill*         0x08135ad3        0x1 
 .rodata.Abc_font_mono22haa4_002f
                0x08135ad4       0x8f fonts/hdudispfmono22haa4.o
                0x08135ad4                Abc_font_mono22haa4_002f
 *fill*         0x08135b63        0x1 
 .rodata.Abc_font_mono22haa4_0030
                0x08135b64       0x8f fonts/hdudispfmono22haa4.o
                0x08135b64                Abc_font_mono22haa4_0030
 *fill*         0x08135bf3        0x1 
 .rodata.Abc_font_mono22haa4_0031
                0x08135bf4       0x8f fonts/hdudispfmono22haa4.o
                0x08135bf4                Abc_font_mono22haa4_0031
 *fill*         0x08135c83        0x1 
 .rodata.Abc_font_mono22haa4_0032
                0x08135c84       0x8f fonts/hdudispfmono22haa4.o
                0x08135c84                Abc_font_mono22haa4_0032
 *fill*         0x08135d13        0x1 
 .rodata.Abc_font_mono22haa4_0033
                0x08135d14       0x8f fonts/hdudispfmono22haa4.o
                0x08135d14                Abc_font_mono22haa4_0033
 *fill*         0x08135da3        0x1 
 .rodata.Abc_font_mono22haa4_0034
                0x08135da4       0x8f fonts/hdudispfmono22haa4.o
                0x08135da4                Abc_font_mono22haa4_0034
 *fill*         0x08135e33        0x1 
 .rodata.Abc_font_mono22haa4_0035
                0x08135e34       0x8f fonts/hdudispfmono22haa4.o
                0x08135e34                Abc_font_mono22haa4_0035
 *fill*         0x08135ec3        0x1 
 .rodata.Abc_font_mono22haa4_0036
                0x08135ec4       0x8f fonts/hdudispfmono22haa4.o
                0x08135ec4                Abc_font_mono22haa4_0036
 *fill*         0x08135f53        0x1 
 .rodata.Abc_font_mono22haa4_0037
                0x08135f54       0x8f fonts/hdudispfmono22haa4.o
                0x08135f54                Abc_font_mono22haa4_0037
 *fill*         0x08135fe3        0x1 
 .rodata.Abc_font_mono22haa4_0038
                0x08135fe4       0x8f fonts/hdudispfmono22haa4.o
                0x08135fe4                Abc_font_mono22haa4_0038
 *fill*         0x08136073        0x1 
 .rodata.Abc_font_mono22haa4_0039
                0x08136074       0x8f fonts/hdudispfmono22haa4.o
                0x08136074                Abc_font_mono22haa4_0039
 *fill*         0x08136103        0x1 
 .rodata.Abc_font_mono22haa4_003a
                0x08136104       0x8f fonts/hdudispfmono22haa4.o
                0x08136104                Abc_font_mono22haa4_003a
 *fill*         0x08136193        0x1 
 .rodata.Abc_font_mono22haa4_003b
                0x08136194       0x8f fonts/hdudispfmono22haa4.o
                0x08136194                Abc_font_mono22haa4_003b
 *fill*         0x08136223        0x1 
 .rodata.Abc_font_mono22haa4_003c
                0x08136224       0x8f fonts/hdudispfmono22haa4.o
                0x08136224                Abc_font_mono22haa4_003c
 *fill*         0x081362b3        0x1 
 .rodata.Abc_font_mono22haa4_003d
                0x081362b4       0x8f fonts/hdudispfmono22haa4.o
                0x081362b4                Abc_font_mono22haa4_003d
 *fill*         0x08136343        0x1 
 .rodata.Abc_font_mono22haa4_003e
                0x08136344       0x8f fonts/hdudispfmono22haa4.o
                0x08136344                Abc_font_mono22haa4_003e
 *fill*         0x081363d3        0x1 
 .rodata.Abc_font_mono22haa4_003f
                0x081363d4       0x8f fonts/hdudispfmono22haa4.o
                0x081363d4                Abc_font_mono22haa4_003f
 *fill*         0x08136463        0x1 
 .rodata.Abc_font_mono22haa4_0040
                0x08136464       0x8f fonts/hdudispfmono22haa4.o
                0x08136464                Abc_font_mono22haa4_0040
 *fill*         0x081364f3        0x1 
 .rodata.Abc_font_mono22haa4_0041
                0x081364f4       0x8f fonts/hdudispfmono22haa4.o
                0x081364f4                Abc_font_mono22haa4_0041
 *fill*         0x08136583        0x1 
 .rodata.Abc_font_mono22haa4_0042
                0x08136584       0x8f fonts/hdudispfmono22haa4.o
                0x08136584                Abc_font_mono22haa4_0042
 *fill*         0x08136613        0x1 
 .rodata.Abc_font_mono22haa4_0043
                0x08136614       0x8f fonts/hdudispfmono22haa4.o
                0x08136614                Abc_font_mono22haa4_0043
 *fill*         0x081366a3        0x1 
 .rodata.Abc_font_mono22haa4_0044
                0x081366a4       0x8f fonts/hdudispfmono22haa4.o
                0x081366a4                Abc_font_mono22haa4_0044
 *fill*         0x08136733        0x1 
 .rodata.Abc_font_mono22haa4_0045
                0x08136734       0x8f fonts/hdudispfmono22haa4.o
                0x08136734                Abc_font_mono22haa4_0045
 *fill*         0x081367c3        0x1 
 .rodata.Abc_font_mono22haa4_0046
                0x081367c4       0x8f fonts/hdudispfmono22haa4.o
                0x081367c4                Abc_font_mono22haa4_0046
 *fill*         0x08136853        0x1 
 .rodata.Abc_font_mono22haa4_0047
                0x08136854       0x8f fonts/hdudispfmono22haa4.o
                0x08136854                Abc_font_mono22haa4_0047
 *fill*         0x081368e3        0x1 
 .rodata.Abc_font_mono22haa4_0048
                0x081368e4       0x8f fonts/hdudispfmono22haa4.o
                0x081368e4                Abc_font_mono22haa4_0048
 *fill*         0x08136973        0x1 
 .rodata.Abc_font_mono22haa4_0049
                0x08136974       0x8f fonts/hdudispfmono22haa4.o
                0x08136974                Abc_font_mono22haa4_0049
 *fill*         0x08136a03        0x1 
 .rodata.Abc_font_mono22haa4_004a
                0x08136a04       0x8f fonts/hdudispfmono22haa4.o
                0x08136a04                Abc_font_mono22haa4_004a
 *fill*         0x08136a93        0x1 
 .rodata.Abc_font_mono22haa4_004b
                0x08136a94       0x8f fonts/hdudispfmono22haa4.o
                0x08136a94                Abc_font_mono22haa4_004b
 *fill*         0x08136b23        0x1 
 .rodata.Abc_font_mono22haa4_004c
                0x08136b24       0x8f fonts/hdudispfmono22haa4.o
                0x08136b24                Abc_font_mono22haa4_004c
 *fill*         0x08136bb3        0x1 
 .rodata.Abc_font_mono22haa4_004d
                0x08136bb4       0x8f fonts/hdudispfmono22haa4.o
                0x08136bb4                Abc_font_mono22haa4_004d
 *fill*         0x08136c43        0x1 
 .rodata.Abc_font_mono22haa4_004e
                0x08136c44       0x8f fonts/hdudispfmono22haa4.o
                0x08136c44                Abc_font_mono22haa4_004e
 *fill*         0x08136cd3        0x1 
 .rodata.Abc_font_mono22haa4_004f
                0x08136cd4       0x8f fonts/hdudispfmono22haa4.o
                0x08136cd4                Abc_font_mono22haa4_004f
 *fill*         0x08136d63        0x1 
 .rodata.Abc_font_mono22haa4_0050
                0x08136d64       0x8f fonts/hdudispfmono22haa4.o
                0x08136d64                Abc_font_mono22haa4_0050
 *fill*         0x08136df3        0x1 
 .rodata.Abc_font_mono22haa4_0051
                0x08136df4       0x8f fonts/hdudispfmono22haa4.o
                0x08136df4                Abc_font_mono22haa4_0051
 *fill*         0x08136e83        0x1 
 .rodata.Abc_font_mono22haa4_0052
                0x08136e84       0x8f fonts/hdudispfmono22haa4.o
                0x08136e84                Abc_font_mono22haa4_0052
 *fill*         0x08136f13        0x1 
 .rodata.Abc_font_mono22haa4_0053
                0x08136f14       0x8f fonts/hdudispfmono22haa4.o
                0x08136f14                Abc_font_mono22haa4_0053
 *fill*         0x08136fa3        0x1 
 .rodata.Abc_font_mono22haa4_0054
                0x08136fa4       0x8f fonts/hdudispfmono22haa4.o
                0x08136fa4                Abc_font_mono22haa4_0054
 *fill*         0x08137033        0x1 
 .rodata.Abc_font_mono22haa4_0055
                0x08137034       0x8f fonts/hdudispfmono22haa4.o
                0x08137034                Abc_font_mono22haa4_0055
 *fill*         0x081370c3        0x1 
 .rodata.Abc_font_mono22haa4_0056
                0x081370c4       0x8f fonts/hdudispfmono22haa4.o
                0x081370c4                Abc_font_mono22haa4_0056
 *fill*         0x08137153        0x1 
 .rodata.Abc_font_mono22haa4_0057
                0x08137154       0x8f fonts/hdudispfmono22haa4.o
                0x08137154                Abc_font_mono22haa4_0057
 *fill*         0x081371e3        0x1 
 .rodata.Abc_font_mono22haa4_0058
                0x081371e4       0x8f fonts/hdudispfmono22haa4.o
                0x081371e4                Abc_font_mono22haa4_0058
 *fill*         0x08137273        0x1 
 .rodata.Abc_font_mono22haa4_0059
                0x08137274       0x8f fonts/hdudispfmono22haa4.o
                0x08137274                Abc_font_mono22haa4_0059
 *fill*         0x08137303        0x1 
 .rodata.Abc_font_mono22haa4_005a
                0x08137304       0x8f fonts/hdudispfmono22haa4.o
                0x08137304                Abc_font_mono22haa4_005a
 *fill*         0x08137393        0x1 
 .rodata.Abc_font_mono22haa4_005b
                0x08137394       0x8f fonts/hdudispfmono22haa4.o
                0x08137394                Abc_font_mono22haa4_005b
 *fill*         0x08137423        0x1 
 .rodata.Abc_font_mono22haa4_005c
                0x08137424       0x8f fonts/hdudispfmono22haa4.o
                0x08137424                Abc_font_mono22haa4_005c
 *fill*         0x081374b3        0x1 
 .rodata.Abc_font_mono22haa4_005d
                0x081374b4       0x8f fonts/hdudispfmono22haa4.o
                0x081374b4                Abc_font_mono22haa4_005d
 *fill*         0x08137543        0x1 
 .rodata.Abc_font_mono22haa4_005e
                0x08137544       0x8f fonts/hdudispfmono22haa4.o
                0x08137544                Abc_font_mono22haa4_005e
 *fill*         0x081375d3        0x1 
 .rodata.Abc_font_mono22haa4_005f
                0x081375d4       0x8f fonts/hdudispfmono22haa4.o
                0x081375d4                Abc_font_mono22haa4_005f
 *fill*         0x08137663        0x1 
 .rodata.Abc_font_mono22haa4_0060
                0x08137664       0x8f fonts/hdudispfmono22haa4.o
                0x08137664                Abc_font_mono22haa4_0060
 *fill*         0x081376f3        0x1 
 .rodata.Abc_font_mono22haa4_0061
                0x081376f4       0x8f fonts/hdudispfmono22haa4.o
                0x081376f4                Abc_font_mono22haa4_0061
 *fill*         0x08137783        0x1 
 .rodata.Abc_font_mono22haa4_0062
                0x08137784       0x8f fonts/hdudispfmono22haa4.o
                0x08137784                Abc_font_mono22haa4_0062
 *fill*         0x08137813        0x1 
 .rodata.Abc_font_mono22haa4_0063
                0x08137814       0x8f fonts/hdudispfmono22haa4.o
                0x08137814                Abc_font_mono22haa4_0063
 *fill*         0x081378a3        0x1 
 .rodata.Abc_font_mono22haa4_0064
                0x081378a4       0x8f fonts/hdudispfmono22haa4.o
                0x081378a4                Abc_font_mono22haa4_0064
 *fill*         0x08137933        0x1 
 .rodata.Abc_font_mono22haa4_0065
                0x08137934       0x8f fonts/hdudispfmono22haa4.o
                0x08137934                Abc_font_mono22haa4_0065
 *fill*         0x081379c3        0x1 
 .rodata.Abc_font_mono22haa4_0066
                0x081379c4       0x8f fonts/hdudispfmono22haa4.o
                0x081379c4                Abc_font_mono22haa4_0066
 *fill*         0x08137a53        0x1 
 .rodata.Abc_font_mono22haa4_0067
                0x08137a54       0x8f fonts/hdudispfmono22haa4.o
                0x08137a54                Abc_font_mono22haa4_0067
 *fill*         0x08137ae3        0x1 
 .rodata.Abc_font_mono22haa4_0068
                0x08137ae4       0x8f fonts/hdudispfmono22haa4.o
                0x08137ae4                Abc_font_mono22haa4_0068
 *fill*         0x08137b73        0x1 
 .rodata.Abc_font_mono22haa4_0069
                0x08137b74       0x8f fonts/hdudispfmono22haa4.o
                0x08137b74                Abc_font_mono22haa4_0069
 *fill*         0x08137c03        0x1 
 .rodata.Abc_font_mono22haa4_006a
                0x08137c04       0x8f fonts/hdudispfmono22haa4.o
                0x08137c04                Abc_font_mono22haa4_006a
 *fill*         0x08137c93        0x1 
 .rodata.Abc_font_mono22haa4_006b
                0x08137c94       0x8f fonts/hdudispfmono22haa4.o
                0x08137c94                Abc_font_mono22haa4_006b
 *fill*         0x08137d23        0x1 
 .rodata.Abc_font_mono22haa4_006c
                0x08137d24       0x8f fonts/hdudispfmono22haa4.o
                0x08137d24                Abc_font_mono22haa4_006c
 *fill*         0x08137db3        0x1 
 .rodata.Abc_font_mono22haa4_006d
                0x08137db4       0x8f fonts/hdudispfmono22haa4.o
                0x08137db4                Abc_font_mono22haa4_006d
 *fill*         0x08137e43        0x1 
 .rodata.Abc_font_mono22haa4_006e
                0x08137e44       0x8f fonts/hdudispfmono22haa4.o
                0x08137e44                Abc_font_mono22haa4_006e
 *fill*         0x08137ed3        0x1 
 .rodata.Abc_font_mono22haa4_006f
                0x08137ed4       0x8f fonts/hdudispfmono22haa4.o
                0x08137ed4                Abc_font_mono22haa4_006f
 *fill*         0x08137f63        0x1 
 .rodata.Abc_font_mono22haa4_0070
                0x08137f64       0x8f fonts/hdudispfmono22haa4.o
                0x08137f64                Abc_font_mono22haa4_0070
 *fill*         0x08137ff3        0x1 
 .rodata.Abc_font_mono22haa4_0071
                0x08137ff4       0x8f fonts/hdudispfmono22haa4.o
                0x08137ff4                Abc_font_mono22haa4_0071
 *fill*         0x08138083        0x1 
 .rodata.Abc_font_mono22haa4_0072
                0x08138084       0x8f fonts/hdudispfmono22haa4.o
                0x08138084                Abc_font_mono22haa4_0072
 *fill*         0x08138113        0x1 
 .rodata.Abc_font_mono22haa4_0073
                0x08138114       0x8f fonts/hdudispfmono22haa4.o
                0x08138114                Abc_font_mono22haa4_0073
 *fill*         0x081381a3        0x1 
 .rodata.Abc_font_mono22haa4_0074
                0x081381a4       0x8f fonts/hdudispfmono22haa4.o
                0x081381a4                Abc_font_mono22haa4_0074
 *fill*         0x08138233        0x1 
 .rodata.Abc_font_mono22haa4_0075
                0x08138234       0x8f fonts/hdudispfmono22haa4.o
                0x08138234                Abc_font_mono22haa4_0075
 *fill*         0x081382c3        0x1 
 .rodata.Abc_font_mono22haa4_0076
                0x081382c4       0x8f fonts/hdudispfmono22haa4.o
                0x081382c4                Abc_font_mono22haa4_0076
 *fill*         0x08138353        0x1 
 .rodata.Abc_font_mono22haa4_0077
                0x08138354       0x8f fonts/hdudispfmono22haa4.o
                0x08138354                Abc_font_mono22haa4_0077
 *fill*         0x081383e3        0x1 
 .rodata.Abc_font_mono22haa4_0078
                0x081383e4       0x8f fonts/hdudispfmono22haa4.o
                0x081383e4                Abc_font_mono22haa4_0078
 *fill*         0x08138473        0x1 
 .rodata.Abc_font_mono22haa4_0079
                0x08138474       0x8f fonts/hdudispfmono22haa4.o
                0x08138474                Abc_font_mono22haa4_0079
 *fill*         0x08138503        0x1 
 .rodata.Abc_font_mono22haa4_007a
                0x08138504       0x8f fonts/hdudispfmono22haa4.o
                0x08138504                Abc_font_mono22haa4_007a
 *fill*         0x08138593        0x1 
 .rodata.Abc_font_mono22haa4_007b
                0x08138594       0x8f fonts/hdudispfmono22haa4.o
                0x08138594                Abc_font_mono22haa4_007b
 *fill*         0x08138623        0x1 
 .rodata.Abc_font_mono22haa4_007c
                0x08138624       0x8f fonts/hdudispfmono22haa4.o
                0x08138624                Abc_font_mono22haa4_007c
 *fill*         0x081386b3        0x1 
 .rodata.Abc_font_mono22haa4_007d
                0x081386b4       0x8f fonts/hdudispfmono22haa4.o
                0x081386b4                Abc_font_mono22haa4_007d
 *fill*         0x08138743        0x1 
 .rodata.Abc_font_mono22haa4_007e
                0x08138744       0x8f fonts/hdudispfmono22haa4.o
                0x08138744                Abc_font_mono22haa4_007e
 *fill*         0x081387d3        0x1 
 .rodata.Abc_font_mono22haa4_007f
                0x081387d4       0x79 fonts/hdudispfmono22haa4.o
                0x081387d4                Abc_font_mono22haa4_007f
 *fill*         0x0813884d        0x3 
 .rodata.Abc_font_mono22haa4_0090
                0x08138850       0x8f fonts/hdudispfmono22haa4.o
                0x08138850                Abc_font_mono22haa4_0090
 *fill*         0x081388df        0x1 
 .rodata.Abc_font_mono22haa4_0091
                0x081388e0       0x8f fonts/hdudispfmono22haa4.o
                0x081388e0                Abc_font_mono22haa4_0091
 *fill*         0x0813896f        0x1 
 .rodata.Abc_font_mono22haa4_0092
                0x08138970       0x8f fonts/hdudispfmono22haa4.o
                0x08138970                Abc_font_mono22haa4_0092
 *fill*         0x081389ff        0x1 
 .rodata.Abc_font_mono22haa4_0093
                0x08138a00       0x8f fonts/hdudispfmono22haa4.o
                0x08138a00                Abc_font_mono22haa4_0093
 *fill*         0x08138a8f        0x1 
 .rodata.Abc_font_mono22haa4_0094
                0x08138a90       0x8f fonts/hdudispfmono22haa4.o
                0x08138a90                Abc_font_mono22haa4_0094
 *fill*         0x08138b1f        0x1 
 .rodata.Abc_font_mono22haa4_0095
                0x08138b20       0x8f fonts/hdudispfmono22haa4.o
                0x08138b20                Abc_font_mono22haa4_0095
 *fill*         0x08138baf        0x1 
 .rodata.Abc_font_mono22haa4_0096
                0x08138bb0       0x8f fonts/hdudispfmono22haa4.o
                0x08138bb0                Abc_font_mono22haa4_0096
 *fill*         0x08138c3f        0x1 
 .rodata.Abc_font_mono22haa4_0097
                0x08138c40       0x21 fonts/hdudispfmono22haa4.o
                0x08138c40                Abc_font_mono22haa4_0097
 *fill*         0x08138c61        0x3 
 .rodata.Abc_font_mono22haa4_0098
                0x08138c64       0x21 fonts/hdudispfmono22haa4.o
                0x08138c64                Abc_font_mono22haa4_0098
 *fill*         0x08138c85        0x3 
 .rodata.Abc_font_mono22haa4_0099
                0x08138c88       0x2c fonts/hdudispfmono22haa4.o
                0x08138c88                Abc_font_mono22haa4_0099
 .rodata.Abc_font_mono22haa4_009a
                0x08138cb4       0x2c fonts/hdudispfmono22haa4.o
                0x08138cb4                Abc_font_mono22haa4_009a
 .rodata.Abc_font_mono22haa4_009b
                0x08138ce0       0x2c fonts/hdudispfmono22haa4.o
                0x08138ce0                Abc_font_mono22haa4_009b
 .rodata.Abc_font_mono22haa4_009c
                0x08138d0c       0x2c fonts/hdudispfmono22haa4.o
                0x08138d0c                Abc_font_mono22haa4_009c
 .rodata.Abc_font_mono22haa4_009d
                0x08138d38       0x79 fonts/hdudispfmono22haa4.o
                0x08138d38                Abc_font_mono22haa4_009d
 *fill*         0x08138db1        0x3 
 .rodata.Abc_font_mono22haa4_009e
                0x08138db4       0x2c fonts/hdudispfmono22haa4.o
                0x08138db4                Abc_font_mono22haa4_009e
 .rodata.Abc_font_mono22haa4_009f
                0x08138de0       0x2c fonts/hdudispfmono22haa4.o
                0x08138de0                Abc_font_mono22haa4_009f
 .rodata.Abc_font_mono22haa4_00a0
                0x08138e0c       0x8f fonts/hdudispfmono22haa4.o
                0x08138e0c                Abc_font_mono22haa4_00a0
 *fill*         0x08138e9b        0x1 
 .rodata.Abc_font_mono22haa4_00a1
                0x08138e9c       0x8f fonts/hdudispfmono22haa4.o
                0x08138e9c                Abc_font_mono22haa4_00a1
 *fill*         0x08138f2b        0x1 
 .rodata.Abc_font_mono22haa4_00a2
                0x08138f2c       0x8f fonts/hdudispfmono22haa4.o
                0x08138f2c                Abc_font_mono22haa4_00a2
 *fill*         0x08138fbb        0x1 
 .rodata.Abc_font_mono22haa4_00a3
                0x08138fbc       0x8f fonts/hdudispfmono22haa4.o
                0x08138fbc                Abc_font_mono22haa4_00a3
 *fill*         0x0813904b        0x1 
 .rodata.Abc_font_mono22haa4_00a4
                0x0813904c       0x8f fonts/hdudispfmono22haa4.o
                0x0813904c                Abc_font_mono22haa4_00a4
 *fill*         0x081390db        0x1 
 .rodata.Abc_font_mono22haa4_00a5
                0x081390dc       0x8f fonts/hdudispfmono22haa4.o
                0x081390dc                Abc_font_mono22haa4_00a5
 *fill*         0x0813916b        0x1 
 .rodata.Abc_font_mono22haa4_00a6
                0x0813916c       0x9a fonts/hdudispfmono22haa4.o
                0x0813916c                Abc_font_mono22haa4_00a6
 *fill*         0x08139206        0x2 
 .rodata.Abc_font_mono22haa4_00a7
                0x08139208       0x8f fonts/hdudispfmono22haa4.o
                0x08139208                Abc_font_mono22haa4_00a7
 *fill*         0x08139297        0x1 
 .rodata.Abc_font_mono22haa4_00a8
                0x08139298       0x8f fonts/hdudispfmono22haa4.o
                0x08139298                Abc_font_mono22haa4_00a8
 *fill*         0x08139327        0x1 
 .rodata.Abc_font_mono22haa4_00a9
                0x08139328       0x8f fonts/hdudispfmono22haa4.o
                0x08139328                Abc_font_mono22haa4_00a9
 *fill*         0x081393b7        0x1 
 .rodata.Abc_font_mono22haa4_00aa
                0x081393b8       0x8f fonts/hdudispfmono22haa4.o
                0x081393b8                Abc_font_mono22haa4_00aa
 *fill*         0x08139447        0x1 
 .rodata.Abc_font_mono22haa4_00ab
                0x08139448       0x8f fonts/hdudispfmono22haa4.o
                0x08139448                Abc_font_mono22haa4_00ab
 *fill*         0x081394d7        0x1 
 .rodata.Abc_font_mono22haa4_00ac
                0x081394d8       0x8f fonts/hdudispfmono22haa4.o
                0x081394d8                Abc_font_mono22haa4_00ac
 *fill*         0x08139567        0x1 
 .rodata.Abc_font_mono22haa4_00ad
                0x08139568       0x8f fonts/hdudispfmono22haa4.o
                0x08139568                Abc_font_mono22haa4_00ad
 *fill*         0x081395f7        0x1 
 .rodata.Abc_font_mono22haa4_00ae
                0x081395f8       0x8f fonts/hdudispfmono22haa4.o
                0x081395f8                Abc_font_mono22haa4_00ae
 *fill*         0x08139687        0x1 
 .rodata.Abc_font_mono22haa4_00af
                0x08139688       0x8f fonts/hdudispfmono22haa4.o
                0x08139688                Abc_font_mono22haa4_00af
 *fill*         0x08139717        0x1 
 .rodata.Abc_font_mono22haa4_00b0
                0x08139718       0x8f fonts/hdudispfmono22haa4.o
                0x08139718                Abc_font_mono22haa4_00b0
 *fill*         0x081397a7        0x1 
 .rodata.Abc_font_mono22haa4_00b1
                0x081397a8       0x8f fonts/hdudispfmono22haa4.o
                0x081397a8                Abc_font_mono22haa4_00b1
 *fill*         0x08139837        0x1 
 .rodata.Abc_font_mono22haa4_00b2
                0x08139838       0x8f fonts/hdudispfmono22haa4.o
                0x08139838                Abc_font_mono22haa4_00b2
 *fill*         0x081398c7        0x1 
 .rodata.Abc_font_mono22haa4_00b3
                0x081398c8       0x8f fonts/hdudispfmono22haa4.o
                0x081398c8                Abc_font_mono22haa4_00b3
 *fill*         0x08139957        0x1 
 .rodata.Abc_font_mono22haa4_00b4
                0x08139958       0x8f fonts/hdudispfmono22haa4.o
                0x08139958                Abc_font_mono22haa4_00b4
 *fill*         0x081399e7        0x1 
 .rodata.Abc_font_mono22haa4_00b5
                0x081399e8       0x8f fonts/hdudispfmono22haa4.o
                0x081399e8                Abc_font_mono22haa4_00b5
 *fill*         0x08139a77        0x1 
 .rodata.Abc_font_mono22haa4_00b6
                0x08139a78       0x8f fonts/hdudispfmono22haa4.o
                0x08139a78                Abc_font_mono22haa4_00b6
 *fill*         0x08139b07        0x1 
 .rodata.Abc_font_mono22haa4_00b7
                0x08139b08       0x8f fonts/hdudispfmono22haa4.o
                0x08139b08                Abc_font_mono22haa4_00b7
 *fill*         0x08139b97        0x1 
 .rodata.Abc_font_mono22haa4_00b8
                0x08139b98       0x8f fonts/hdudispfmono22haa4.o
                0x08139b98                Abc_font_mono22haa4_00b8
 *fill*         0x08139c27        0x1 
 .rodata.Abc_font_mono22haa4_00b9
                0x08139c28       0x8f fonts/hdudispfmono22haa4.o
                0x08139c28                Abc_font_mono22haa4_00b9
 *fill*         0x08139cb7        0x1 
 .rodata.Abc_font_mono22haa4_00ba
                0x08139cb8       0x8f fonts/hdudispfmono22haa4.o
                0x08139cb8                Abc_font_mono22haa4_00ba
 *fill*         0x08139d47        0x1 
 .rodata.Abc_font_mono22haa4_00bb
                0x08139d48       0x8f fonts/hdudispfmono22haa4.o
                0x08139d48                Abc_font_mono22haa4_00bb
 *fill*         0x08139dd7        0x1 
 .rodata.Abc_font_mono22haa4_00bc
                0x08139dd8       0x8f fonts/hdudispfmono22haa4.o
                0x08139dd8                Abc_font_mono22haa4_00bc
 *fill*         0x08139e67        0x1 
 .rodata.Abc_font_mono22haa4_00bd
                0x08139e68       0x8f fonts/hdudispfmono22haa4.o
                0x08139e68                Abc_font_mono22haa4_00bd
 *fill*         0x08139ef7        0x1 
 .rodata.Abc_font_mono22haa4_00be
                0x08139ef8       0x8f fonts/hdudispfmono22haa4.o
                0x08139ef8                Abc_font_mono22haa4_00be
 *fill*         0x08139f87        0x1 
 .rodata.Abc_font_mono22haa4_00bf
                0x08139f88       0x8f fonts/hdudispfmono22haa4.o
                0x08139f88                Abc_font_mono22haa4_00bf
 *fill*         0x0813a017        0x1 
 .rodata.Abc_font_mono22haa4_00c0
                0x0813a018       0x8f fonts/hdudispfmono22haa4.o
                0x0813a018                Abc_font_mono22haa4_00c0
 *fill*         0x0813a0a7        0x1 
 .rodata.Abc_font_mono22haa4_00c1
                0x0813a0a8       0x8f fonts/hdudispfmono22haa4.o
                0x0813a0a8                Abc_font_mono22haa4_00c1
 *fill*         0x0813a137        0x1 
 .rodata.Abc_font_mono22haa4_00c2
                0x0813a138       0x8f fonts/hdudispfmono22haa4.o
                0x0813a138                Abc_font_mono22haa4_00c2
 *fill*         0x0813a1c7        0x1 
 .rodata.Abc_font_mono22haa4_00c3
                0x0813a1c8       0x8f fonts/hdudispfmono22haa4.o
                0x0813a1c8                Abc_font_mono22haa4_00c3
 *fill*         0x0813a257        0x1 
 .rodata.Abc_font_mono22haa4_00c4
                0x0813a258       0x8f fonts/hdudispfmono22haa4.o
                0x0813a258                Abc_font_mono22haa4_00c4
 *fill*         0x0813a2e7        0x1 
 .rodata.Abc_font_mono22haa4_00c5
                0x0813a2e8       0x8f fonts/hdudispfmono22haa4.o
                0x0813a2e8                Abc_font_mono22haa4_00c5
 *fill*         0x0813a377        0x1 
 .rodata.Abc_font_mono22haa4_00c6
                0x0813a378       0x8f fonts/hdudispfmono22haa4.o
                0x0813a378                Abc_font_mono22haa4_00c6
 *fill*         0x0813a407        0x1 
 .rodata.Abc_font_mono22haa4_00c7
                0x0813a408       0x8f fonts/hdudispfmono22haa4.o
                0x0813a408                Abc_font_mono22haa4_00c7
 *fill*         0x0813a497        0x1 
 .rodata.Abc_font_mono22haa4_00c8
                0x0813a498       0x8f fonts/hdudispfmono22haa4.o
                0x0813a498                Abc_font_mono22haa4_00c8
 *fill*         0x0813a527        0x1 
 .rodata.Abc_font_mono22haa4_00c9
                0x0813a528       0x8f fonts/hdudispfmono22haa4.o
                0x0813a528                Abc_font_mono22haa4_00c9
 *fill*         0x0813a5b7        0x1 
 .rodata.Abc_font_mono22haa4_00ca
                0x0813a5b8       0x8f fonts/hdudispfmono22haa4.o
                0x0813a5b8                Abc_font_mono22haa4_00ca
 *fill*         0x0813a647        0x1 
 .rodata.Abc_font_mono22haa4_00cb
                0x0813a648       0x8f fonts/hdudispfmono22haa4.o
                0x0813a648                Abc_font_mono22haa4_00cb
 *fill*         0x0813a6d7        0x1 
 .rodata.Abc_font_mono22haa4_00cc
                0x0813a6d8       0x8f fonts/hdudispfmono22haa4.o
                0x0813a6d8                Abc_font_mono22haa4_00cc
 *fill*         0x0813a767        0x1 
 .rodata.Abc_font_mono22haa4_00cd
                0x0813a768       0x8f fonts/hdudispfmono22haa4.o
                0x0813a768                Abc_font_mono22haa4_00cd
 *fill*         0x0813a7f7        0x1 
 .rodata.Abc_font_mono22haa4_00ce
                0x0813a7f8       0x8f fonts/hdudispfmono22haa4.o
                0x0813a7f8                Abc_font_mono22haa4_00ce
 *fill*         0x0813a887        0x1 
 .rodata.Abc_font_mono22haa4_00cf
                0x0813a888       0x8f fonts/hdudispfmono22haa4.o
                0x0813a888                Abc_font_mono22haa4_00cf
 *fill*         0x0813a917        0x1 
 .rodata.Abc_font_mono22haa4_00d0
                0x0813a918       0x8f fonts/hdudispfmono22haa4.o
                0x0813a918                Abc_font_mono22haa4_00d0
 *fill*         0x0813a9a7        0x1 
 .rodata.Abc_font_mono22haa4_00d1
                0x0813a9a8       0x8f fonts/hdudispfmono22haa4.o
                0x0813a9a8                Abc_font_mono22haa4_00d1
 *fill*         0x0813aa37        0x1 
 .rodata.Abc_font_mono22haa4_00d2
                0x0813aa38       0x8f fonts/hdudispfmono22haa4.o
                0x0813aa38                Abc_font_mono22haa4_00d2
 *fill*         0x0813aac7        0x1 
 .rodata.Abc_font_mono22haa4_00d3
                0x0813aac8       0x8f fonts/hdudispfmono22haa4.o
                0x0813aac8                Abc_font_mono22haa4_00d3
 *fill*         0x0813ab57        0x1 
 .rodata.Abc_font_mono22haa4_00d4
                0x0813ab58       0x8f fonts/hdudispfmono22haa4.o
                0x0813ab58                Abc_font_mono22haa4_00d4
 *fill*         0x0813abe7        0x1 
 .rodata.Abc_font_mono22haa4_00d5
                0x0813abe8       0x8f fonts/hdudispfmono22haa4.o
                0x0813abe8                Abc_font_mono22haa4_00d5
 *fill*         0x0813ac77        0x1 
 .rodata.Abc_font_mono22haa4_00d6
                0x0813ac78       0x8f fonts/hdudispfmono22haa4.o
                0x0813ac78                Abc_font_mono22haa4_00d6
 *fill*         0x0813ad07        0x1 
 .rodata.Abc_font_mono22haa4_00d7
                0x0813ad08       0x8f fonts/hdudispfmono22haa4.o
                0x0813ad08                Abc_font_mono22haa4_00d7
 *fill*         0x0813ad97        0x1 
 .rodata.Abc_font_mono22haa4_00d8
                0x0813ad98       0x8f fonts/hdudispfmono22haa4.o
                0x0813ad98                Abc_font_mono22haa4_00d8
 *fill*         0x0813ae27        0x1 
 .rodata.Abc_font_mono22haa4_00d9
                0x0813ae28       0x8f fonts/hdudispfmono22haa4.o
                0x0813ae28                Abc_font_mono22haa4_00d9
 *fill*         0x0813aeb7        0x1 
 .rodata.Abc_font_mono22haa4_00da
                0x0813aeb8       0x8f fonts/hdudispfmono22haa4.o
                0x0813aeb8                Abc_font_mono22haa4_00da
 *fill*         0x0813af47        0x1 
 .rodata.Abc_font_mono22haa4_00db
                0x0813af48       0x8f fonts/hdudispfmono22haa4.o
                0x0813af48                Abc_font_mono22haa4_00db
 *fill*         0x0813afd7        0x1 
 .rodata.Abc_font_mono22haa4_00dc
                0x0813afd8       0x8f fonts/hdudispfmono22haa4.o
                0x0813afd8                Abc_font_mono22haa4_00dc
 *fill*         0x0813b067        0x1 
 .rodata.Abc_font_mono22haa4_00dd
                0x0813b068       0x8f fonts/hdudispfmono22haa4.o
                0x0813b068                Abc_font_mono22haa4_00dd
 *fill*         0x0813b0f7        0x1 
 .rodata.Abc_font_mono22haa4_00de
                0x0813b0f8       0x8f fonts/hdudispfmono22haa4.o
                0x0813b0f8                Abc_font_mono22haa4_00de
 *fill*         0x0813b187        0x1 
 .rodata.Abc_font_mono22haa4_00df
                0x0813b188       0x8f fonts/hdudispfmono22haa4.o
                0x0813b188                Abc_font_mono22haa4_00df
 *fill*         0x0813b217        0x1 
 .rodata.Abc_font_mono22haa4_00e0
                0x0813b218       0x8f fonts/hdudispfmono22haa4.o
                0x0813b218                Abc_font_mono22haa4_00e0
 *fill*         0x0813b2a7        0x1 
 .rodata.Abc_font_mono22haa4_00e1
                0x0813b2a8       0x8f fonts/hdudispfmono22haa4.o
                0x0813b2a8                Abc_font_mono22haa4_00e1
 *fill*         0x0813b337        0x1 
 .rodata.Abc_font_mono22haa4_00e2
                0x0813b338       0x8f fonts/hdudispfmono22haa4.o
                0x0813b338                Abc_font_mono22haa4_00e2
 *fill*         0x0813b3c7        0x1 
 .rodata.Abc_font_mono22haa4_00e3
                0x0813b3c8       0x8f fonts/hdudispfmono22haa4.o
                0x0813b3c8                Abc_font_mono22haa4_00e3
 *fill*         0x0813b457        0x1 
 .rodata.Abc_font_mono22haa4_00e4
                0x0813b458       0x8f fonts/hdudispfmono22haa4.o
                0x0813b458                Abc_font_mono22haa4_00e4
 *fill*         0x0813b4e7        0x1 
 .rodata.Abc_font_mono22haa4_00e5
                0x0813b4e8       0x8f fonts/hdudispfmono22haa4.o
                0x0813b4e8                Abc_font_mono22haa4_00e5
 *fill*         0x0813b577        0x1 
 .rodata.Abc_font_mono22haa4_00e6
                0x0813b578       0x8f fonts/hdudispfmono22haa4.o
                0x0813b578                Abc_font_mono22haa4_00e6
 *fill*         0x0813b607        0x1 
 .rodata.Abc_font_mono22haa4_00e7
                0x0813b608       0x8f fonts/hdudispfmono22haa4.o
                0x0813b608                Abc_font_mono22haa4_00e7
 *fill*         0x0813b697        0x1 
 .rodata.Abc_font_mono22haa4_00e8
                0x0813b698       0x8f fonts/hdudispfmono22haa4.o
                0x0813b698                Abc_font_mono22haa4_00e8
 *fill*         0x0813b727        0x1 
 .rodata.Abc_font_mono22haa4_00e9
                0x0813b728       0x8f fonts/hdudispfmono22haa4.o
                0x0813b728                Abc_font_mono22haa4_00e9
 *fill*         0x0813b7b7        0x1 
 .rodata.Abc_font_mono22haa4_00ea
                0x0813b7b8       0x8f fonts/hdudispfmono22haa4.o
                0x0813b7b8                Abc_font_mono22haa4_00ea
 *fill*         0x0813b847        0x1 
 .rodata.Abc_font_mono22haa4_00eb
                0x0813b848       0x8f fonts/hdudispfmono22haa4.o
                0x0813b848                Abc_font_mono22haa4_00eb
 *fill*         0x0813b8d7        0x1 
 .rodata.Abc_font_mono22haa4_00ec
                0x0813b8d8       0x8f fonts/hdudispfmono22haa4.o
                0x0813b8d8                Abc_font_mono22haa4_00ec
 *fill*         0x0813b967        0x1 
 .rodata.Abc_font_mono22haa4_00ed
                0x0813b968       0x8f fonts/hdudispfmono22haa4.o
                0x0813b968                Abc_font_mono22haa4_00ed
 *fill*         0x0813b9f7        0x1 
 .rodata.Abc_font_mono22haa4_00ee
                0x0813b9f8       0x8f fonts/hdudispfmono22haa4.o
                0x0813b9f8                Abc_font_mono22haa4_00ee
 *fill*         0x0813ba87        0x1 
 .rodata.Abc_font_mono22haa4_00ef
                0x0813ba88       0x8f fonts/hdudispfmono22haa4.o
                0x0813ba88                Abc_font_mono22haa4_00ef
 *fill*         0x0813bb17        0x1 
 .rodata.Abc_font_mono22haa4_00f0
                0x0813bb18       0x8f fonts/hdudispfmono22haa4.o
                0x0813bb18                Abc_font_mono22haa4_00f0
 *fill*         0x0813bba7        0x1 
 .rodata.Abc_font_mono22haa4_00f1
                0x0813bba8       0x8f fonts/hdudispfmono22haa4.o
                0x0813bba8                Abc_font_mono22haa4_00f1
 *fill*         0x0813bc37        0x1 
 .rodata.Abc_font_mono22haa4_00f2
                0x0813bc38       0x8f fonts/hdudispfmono22haa4.o
                0x0813bc38                Abc_font_mono22haa4_00f2
 *fill*         0x0813bcc7        0x1 
 .rodata.Abc_font_mono22haa4_00f3
                0x0813bcc8       0x8f fonts/hdudispfmono22haa4.o
                0x0813bcc8                Abc_font_mono22haa4_00f3
 *fill*         0x0813bd57        0x1 
 .rodata.Abc_font_mono22haa4_00f4
                0x0813bd58       0x8f fonts/hdudispfmono22haa4.o
                0x0813bd58                Abc_font_mono22haa4_00f4
 *fill*         0x0813bde7        0x1 
 .rodata.Abc_font_mono22haa4_00f5
                0x0813bde8       0x8f fonts/hdudispfmono22haa4.o
                0x0813bde8                Abc_font_mono22haa4_00f5
 *fill*         0x0813be77        0x1 
 .rodata.Abc_font_mono22haa4_00f6
                0x0813be78       0x8f fonts/hdudispfmono22haa4.o
                0x0813be78                Abc_font_mono22haa4_00f6
 *fill*         0x0813bf07        0x1 
 .rodata.Abc_font_mono22haa4_00f7
                0x0813bf08       0x8f fonts/hdudispfmono22haa4.o
                0x0813bf08                Abc_font_mono22haa4_00f7
 *fill*         0x0813bf97        0x1 
 .rodata.Abc_font_mono22haa4_00f8
                0x0813bf98       0x8f fonts/hdudispfmono22haa4.o
                0x0813bf98                Abc_font_mono22haa4_00f8
 *fill*         0x0813c027        0x1 
 .rodata.Abc_font_mono22haa4_00f9
                0x0813c028       0x8f fonts/hdudispfmono22haa4.o
                0x0813c028                Abc_font_mono22haa4_00f9
 *fill*         0x0813c0b7        0x1 
 .rodata.Abc_font_mono22haa4_00fa
                0x0813c0b8       0x8f fonts/hdudispfmono22haa4.o
                0x0813c0b8                Abc_font_mono22haa4_00fa
 *fill*         0x0813c147        0x1 
 .rodata.Abc_font_mono22haa4_00fb
                0x0813c148       0x8f fonts/hdudispfmono22haa4.o
                0x0813c148                Abc_font_mono22haa4_00fb
 *fill*         0x0813c1d7        0x1 
 .rodata.Abc_font_mono22haa4_00fc
                0x0813c1d8       0x8f fonts/hdudispfmono22haa4.o
                0x0813c1d8                Abc_font_mono22haa4_00fc
 *fill*         0x0813c267        0x1 
 .rodata.Abc_font_mono22haa4_00fd
                0x0813c268       0x8f fonts/hdudispfmono22haa4.o
                0x0813c268                Abc_font_mono22haa4_00fd
 *fill*         0x0813c2f7        0x1 
 .rodata.Abc_font_mono22haa4_00fe
                0x0813c2f8       0x8f fonts/hdudispfmono22haa4.o
                0x0813c2f8                Abc_font_mono22haa4_00fe
 *fill*         0x0813c387        0x1 
 .rodata.Abc_font_mono22haa4_00ff
                0x0813c388       0xfd fonts/hdudispfmono22haa4.o
                0x0813c388                Abc_font_mono22haa4_00ff
 *fill*         0x0813c485        0x3 
 .rodata.Font_mono22haa4_char_info
                0x0813c488      0x700 fonts/hdudispfmono22haa4.o
                0x0813c488                Font_mono22haa4_char_info
 .rodata.Font_mono22haa4_prop2
                0x0813cb88        0xc fonts/hdudispfmono22haa4.o
                0x0813cb88                Font_mono22haa4_prop2
 .rodata.Font_mono22haa4_prop1
                0x0813cb94        0xc fonts/hdudispfmono22haa4.o
                0x0813cb94                Font_mono22haa4_prop1
 .rodata.Font_small
                0x0813cba0       0x10 fonts/hdudispfmono22haa4.o
                0x0813cba0                Font_small
 .rodata.Font_bezel
                0x0813cbb0       0x10 fonts/hdudispfmono22haa4.o
                0x0813cbb0                Font_bezel
 .rodata.Abc_font_mono30haa4_0010
                0x0813cbc0       0xf0 fonts/hdudispfmono30haa4.o
                0x0813cbc0                Abc_font_mono30haa4_0010
 .rodata.Abc_font_mono30haa4_0011
                0x0813ccb0       0xf0 fonts/hdudispfmono30haa4.o
                0x0813ccb0                Abc_font_mono30haa4_0011
 .rodata.Abc_font_mono30haa4_0012
                0x0813cda0       0xf0 fonts/hdudispfmono30haa4.o
                0x0813cda0                Abc_font_mono30haa4_0012
 .rodata.Abc_font_mono30haa4_0013
                0x0813ce90       0xf0 fonts/hdudispfmono30haa4.o
                0x0813ce90                Abc_font_mono30haa4_0013
 .rodata.Abc_font_mono30haa4_0014
                0x0813cf80       0xf0 fonts/hdudispfmono30haa4.o
                0x0813cf80                Abc_font_mono30haa4_0014
 .rodata.Abc_font_mono30haa4_0015
                0x0813d070       0xf0 fonts/hdudispfmono30haa4.o
                0x0813d070                Abc_font_mono30haa4_0015
 .rodata.Abc_font_mono30haa4_0016
                0x0813d160       0xf0 fonts/hdudispfmono30haa4.o
                0x0813d160                Abc_font_mono30haa4_0016
 .rodata.Abc_font_mono30haa4_0017
                0x0813d250       0x3c fonts/hdudispfmono30haa4.o
                0x0813d250                Abc_font_mono30haa4_0017
 .rodata.Abc_font_mono30haa4_0018
                0x0813d28c       0x3c fonts/hdudispfmono30haa4.o
                0x0813d28c                Abc_font_mono30haa4_0018
 .rodata.Abc_font_mono30haa4_0019
                0x0813d2c8        0xf fonts/hdudispfmono30haa4.o
                0x0813d2c8                Abc_font_mono30haa4_0019
 *fill*         0x0813d2d7        0x1 
 .rodata.Abc_font_mono30haa4_001a
                0x0813d2d8        0xf fonts/hdudispfmono30haa4.o
                0x0813d2d8                Abc_font_mono30haa4_001a
 *fill*         0x0813d2e7        0x1 
 .rodata.Abc_font_mono30haa4_001b
                0x0813d2e8       0xe1 fonts/hdudispfmono30haa4.o
                0x0813d2e8                Abc_font_mono30haa4_001b
 *fill*         0x0813d3c9        0x3 
 .rodata.Abc_font_mono30haa4_001c
                0x0813d3cc       0xe1 fonts/hdudispfmono30haa4.o
                0x0813d3cc                Abc_font_mono30haa4_001c
 *fill*         0x0813d4ad        0x3 
 .rodata.Abc_font_mono30haa4_001d
                0x0813d4b0       0xe1 fonts/hdudispfmono30haa4.o
                0x0813d4b0                Abc_font_mono30haa4_001d
 *fill*         0x0813d591        0x3 
 .rodata.Abc_font_mono30haa4_001e
                0x0813d594       0xe1 fonts/hdudispfmono30haa4.o
                0x0813d594                Abc_font_mono30haa4_001e
 *fill*         0x0813d675        0x3 
 .rodata.Abc_font_mono30haa4_001f
                0x0813d678       0xe1 fonts/hdudispfmono30haa4.o
                0x0813d678                Abc_font_mono30haa4_001f
 *fill*         0x0813d759        0x3 
 .rodata.Abc_font_mono30haa4_0020
                0x0813d75c       0xf0 fonts/hdudispfmono30haa4.o
                0x0813d75c                Abc_font_mono30haa4_0020
 .rodata.Abc_font_mono30haa4_0021
                0x0813d84c       0xf0 fonts/hdudispfmono30haa4.o
                0x0813d84c                Abc_font_mono30haa4_0021
 .rodata.Abc_font_mono30haa4_0022
                0x0813d93c       0xf0 fonts/hdudispfmono30haa4.o
                0x0813d93c                Abc_font_mono30haa4_0022
 .rodata.Abc_font_mono30haa4_0023
                0x0813da2c       0xf0 fonts/hdudispfmono30haa4.o
                0x0813da2c                Abc_font_mono30haa4_0023
 .rodata.Abc_font_mono30haa4_0024
                0x0813db1c       0xf0 fonts/hdudispfmono30haa4.o
                0x0813db1c                Abc_font_mono30haa4_0024
 .rodata.Abc_font_mono30haa4_0025
                0x0813dc0c       0xf0 fonts/hdudispfmono30haa4.o
                0x0813dc0c                Abc_font_mono30haa4_0025
 .rodata.Abc_font_mono30haa4_0026
                0x0813dcfc       0xf0 fonts/hdudispfmono30haa4.o
                0x0813dcfc                Abc_font_mono30haa4_0026
 .rodata.Abc_font_mono30haa4_0027
                0x0813ddec       0xf0 fonts/hdudispfmono30haa4.o
                0x0813ddec                Abc_font_mono30haa4_0027
 .rodata.Abc_font_mono30haa4_0028
                0x0813dedc       0xf0 fonts/hdudispfmono30haa4.o
                0x0813dedc                Abc_font_mono30haa4_0028
 .rodata.Abc_font_mono30haa4_0029
                0x0813dfcc       0xf0 fonts/hdudispfmono30haa4.o
                0x0813dfcc                Abc_font_mono30haa4_0029
 .rodata.Abc_font_mono30haa4_002a
                0x0813e0bc       0xf0 fonts/hdudispfmono30haa4.o
                0x0813e0bc                Abc_font_mono30haa4_002a
 .rodata.Abc_font_mono30haa4_002b
                0x0813e1ac       0xf0 fonts/hdudispfmono30haa4.o
                0x0813e1ac                Abc_font_mono30haa4_002b
 .rodata.Abc_font_mono30haa4_002c
                0x0813e29c       0xf0 fonts/hdudispfmono30haa4.o
                0x0813e29c                Abc_font_mono30haa4_002c
 .rodata.Abc_font_mono30haa4_002d
                0x0813e38c       0xf0 fonts/hdudispfmono30haa4.o
                0x0813e38c                Abc_font_mono30haa4_002d
 .rodata.Abc_font_mono30haa4_002e
                0x0813e47c       0xf0 fonts/hdudispfmono30haa4.o
                0x0813e47c                Abc_font_mono30haa4_002e
 .rodata.Abc_font_mono30haa4_002f
                0x0813e56c       0xf0 fonts/hdudispfmono30haa4.o
                0x0813e56c                Abc_font_mono30haa4_002f
 .rodata.Abc_font_mono30haa4_0030
                0x0813e65c       0xf0 fonts/hdudispfmono30haa4.o
                0x0813e65c                Abc_font_mono30haa4_0030
 .rodata.Abc_font_mono30haa4_0031
                0x0813e74c       0xf0 fonts/hdudispfmono30haa4.o
                0x0813e74c                Abc_font_mono30haa4_0031
 .rodata.Abc_font_mono30haa4_0032
                0x0813e83c       0xf0 fonts/hdudispfmono30haa4.o
                0x0813e83c                Abc_font_mono30haa4_0032
 .rodata.Abc_font_mono30haa4_0033
                0x0813e92c       0xf0 fonts/hdudispfmono30haa4.o
                0x0813e92c                Abc_font_mono30haa4_0033
 .rodata.Abc_font_mono30haa4_0034
                0x0813ea1c       0xf0 fonts/hdudispfmono30haa4.o
                0x0813ea1c                Abc_font_mono30haa4_0034
 .rodata.Abc_font_mono30haa4_0035
                0x0813eb0c       0xf0 fonts/hdudispfmono30haa4.o
                0x0813eb0c                Abc_font_mono30haa4_0035
 .rodata.Abc_font_mono30haa4_0036
                0x0813ebfc       0xf0 fonts/hdudispfmono30haa4.o
                0x0813ebfc                Abc_font_mono30haa4_0036
 .rodata.Abc_font_mono30haa4_0037
                0x0813ecec       0xf0 fonts/hdudispfmono30haa4.o
                0x0813ecec                Abc_font_mono30haa4_0037
 .rodata.Abc_font_mono30haa4_0038
                0x0813eddc       0xf0 fonts/hdudispfmono30haa4.o
                0x0813eddc                Abc_font_mono30haa4_0038
 .rodata.Abc_font_mono30haa4_0039
                0x0813eecc       0xf0 fonts/hdudispfmono30haa4.o
                0x0813eecc                Abc_font_mono30haa4_0039
 .rodata.Abc_font_mono30haa4_003a
                0x0813efbc       0xf0 fonts/hdudispfmono30haa4.o
                0x0813efbc                Abc_font_mono30haa4_003a
 .rodata.Abc_font_mono30haa4_003b
                0x0813f0ac       0xf0 fonts/hdudispfmono30haa4.o
                0x0813f0ac                Abc_font_mono30haa4_003b
 .rodata.Abc_font_mono30haa4_003c
                0x0813f19c       0xf0 fonts/hdudispfmono30haa4.o
                0x0813f19c                Abc_font_mono30haa4_003c
 .rodata.Abc_font_mono30haa4_003d
                0x0813f28c       0xf0 fonts/hdudispfmono30haa4.o
                0x0813f28c                Abc_font_mono30haa4_003d
 .rodata.Abc_font_mono30haa4_003e
                0x0813f37c       0xf0 fonts/hdudispfmono30haa4.o
                0x0813f37c                Abc_font_mono30haa4_003e
 .rodata.Abc_font_mono30haa4_003f
                0x0813f46c       0xf0 fonts/hdudispfmono30haa4.o
                0x0813f46c                Abc_font_mono30haa4_003f
 .rodata.Abc_font_mono30haa4_0040
                0x0813f55c       0xf0 fonts/hdudispfmono30haa4.o
                0x0813f55c                Abc_font_mono30haa4_0040
 .rodata.Abc_font_mono30haa4_0041
                0x0813f64c       0xf0 fonts/hdudispfmono30haa4.o
                0x0813f64c                Abc_font_mono30haa4_0041
 .rodata.Abc_font_mono30haa4_0042
                0x0813f73c       0xf0 fonts/hdudispfmono30haa4.o
                0x0813f73c                Abc_font_mono30haa4_0042
 .rodata.Abc_font_mono30haa4_0043
                0x0813f82c       0xf0 fonts/hdudispfmono30haa4.o
                0x0813f82c                Abc_font_mono30haa4_0043
 .rodata.Abc_font_mono30haa4_0044
                0x0813f91c       0xf0 fonts/hdudispfmono30haa4.o
                0x0813f91c                Abc_font_mono30haa4_0044
 .rodata.Abc_font_mono30haa4_0045
                0x0813fa0c       0xf0 fonts/hdudispfmono30haa4.o
                0x0813fa0c                Abc_font_mono30haa4_0045
 .rodata.Abc_font_mono30haa4_0046
                0x0813fafc       0xf0 fonts/hdudispfmono30haa4.o
                0x0813fafc                Abc_font_mono30haa4_0046
 .rodata.Abc_font_mono30haa4_0047
                0x0813fbec       0xf0 fonts/hdudispfmono30haa4.o
                0x0813fbec                Abc_font_mono30haa4_0047
 .rodata.Abc_font_mono30haa4_0048
                0x0813fcdc       0xf0 fonts/hdudispfmono30haa4.o
                0x0813fcdc                Abc_font_mono30haa4_0048
 .rodata.Abc_font_mono30haa4_0049
                0x0813fdcc       0xf0 fonts/hdudispfmono30haa4.o
                0x0813fdcc                Abc_font_mono30haa4_0049
 .rodata.Abc_font_mono30haa4_004a
                0x0813febc       0xf0 fonts/hdudispfmono30haa4.o
                0x0813febc                Abc_font_mono30haa4_004a
 .rodata.Abc_font_mono30haa4_004b
                0x0813ffac       0xf0 fonts/hdudispfmono30haa4.o
                0x0813ffac                Abc_font_mono30haa4_004b
 .rodata.Abc_font_mono30haa4_004c
                0x0814009c       0xf0 fonts/hdudispfmono30haa4.o
                0x0814009c                Abc_font_mono30haa4_004c
 .rodata.Abc_font_mono30haa4_004d
                0x0814018c       0xf0 fonts/hdudispfmono30haa4.o
                0x0814018c                Abc_font_mono30haa4_004d
 .rodata.Abc_font_mono30haa4_004e
                0x0814027c       0xf0 fonts/hdudispfmono30haa4.o
                0x0814027c                Abc_font_mono30haa4_004e
 .rodata.Abc_font_mono30haa4_004f
                0x0814036c       0xf0 fonts/hdudispfmono30haa4.o
                0x0814036c                Abc_font_mono30haa4_004f
 .rodata.Abc_font_mono30haa4_0050
                0x0814045c       0xf0 fonts/hdudispfmono30haa4.o
                0x0814045c                Abc_font_mono30haa4_0050
 .rodata.Abc_font_mono30haa4_0051
                0x0814054c       0xf0 fonts/hdudispfmono30haa4.o
                0x0814054c                Abc_font_mono30haa4_0051
 .rodata.Abc_font_mono30haa4_0052
                0x0814063c       0xf0 fonts/hdudispfmono30haa4.o
                0x0814063c                Abc_font_mono30haa4_0052
 .rodata.Abc_font_mono30haa4_0053
                0x0814072c       0xf0 fonts/hdudispfmono30haa4.o
                0x0814072c                Abc_font_mono30haa4_0053
 .rodata.Abc_font_mono30haa4_0054
                0x0814081c       0xf0 fonts/hdudispfmono30haa4.o
                0x0814081c                Abc_font_mono30haa4_0054
 .rodata.Abc_font_mono30haa4_0055
                0x0814090c       0xf0 fonts/hdudispfmono30haa4.o
                0x0814090c                Abc_font_mono30haa4_0055
 .rodata.Abc_font_mono30haa4_0056
                0x081409fc       0xf0 fonts/hdudispfmono30haa4.o
                0x081409fc                Abc_font_mono30haa4_0056
 .rodata.Abc_font_mono30haa4_0057
                0x08140aec       0xf0 fonts/hdudispfmono30haa4.o
                0x08140aec                Abc_font_mono30haa4_0057
 .rodata.Abc_font_mono30haa4_0058
                0x08140bdc       0xf0 fonts/hdudispfmono30haa4.o
                0x08140bdc                Abc_font_mono30haa4_0058
 .rodata.Abc_font_mono30haa4_0059
                0x08140ccc       0xf0 fonts/hdudispfmono30haa4.o
                0x08140ccc                Abc_font_mono30haa4_0059
 .rodata.Abc_font_mono30haa4_005a
                0x08140dbc       0xf0 fonts/hdudispfmono30haa4.o
                0x08140dbc                Abc_font_mono30haa4_005a
 .rodata.Abc_font_mono30haa4_005b
                0x08140eac       0xf0 fonts/hdudispfmono30haa4.o
                0x08140eac                Abc_font_mono30haa4_005b
 .rodata.Abc_font_mono30haa4_005c
                0x08140f9c       0xf0 fonts/hdudispfmono30haa4.o
                0x08140f9c                Abc_font_mono30haa4_005c
 .rodata.Abc_font_mono30haa4_005d
                0x0814108c       0xf0 fonts/hdudispfmono30haa4.o
                0x0814108c                Abc_font_mono30haa4_005d
 .rodata.Abc_font_mono30haa4_005e
                0x0814117c       0xf0 fonts/hdudispfmono30haa4.o
                0x0814117c                Abc_font_mono30haa4_005e
 .rodata.Abc_font_mono30haa4_005f
                0x0814126c       0xf0 fonts/hdudispfmono30haa4.o
                0x0814126c                Abc_font_mono30haa4_005f
 .rodata.Abc_font_mono30haa4_0060
                0x0814135c       0xf0 fonts/hdudispfmono30haa4.o
                0x0814135c                Abc_font_mono30haa4_0060
 .rodata.Abc_font_mono30haa4_0061
                0x0814144c       0xf0 fonts/hdudispfmono30haa4.o
                0x0814144c                Abc_font_mono30haa4_0061
 .rodata.Abc_font_mono30haa4_0062
                0x0814153c       0xf0 fonts/hdudispfmono30haa4.o
                0x0814153c                Abc_font_mono30haa4_0062
 .rodata.Abc_font_mono30haa4_0063
                0x0814162c       0xf0 fonts/hdudispfmono30haa4.o
                0x0814162c                Abc_font_mono30haa4_0063
 .rodata.Abc_font_mono30haa4_0064
                0x0814171c       0xf0 fonts/hdudispfmono30haa4.o
                0x0814171c                Abc_font_mono30haa4_0064
 .rodata.Abc_font_mono30haa4_0065
                0x0814180c       0xf0 fonts/hdudispfmono30haa4.o
                0x0814180c                Abc_font_mono30haa4_0065
 .rodata.Abc_font_mono30haa4_0066
                0x081418fc       0xf0 fonts/hdudispfmono30haa4.o
                0x081418fc                Abc_font_mono30haa4_0066
 .rodata.Abc_font_mono30haa4_0067
                0x081419ec       0xf0 fonts/hdudispfmono30haa4.o
                0x081419ec                Abc_font_mono30haa4_0067
 .rodata.Abc_font_mono30haa4_0068
                0x08141adc       0xf0 fonts/hdudispfmono30haa4.o
                0x08141adc                Abc_font_mono30haa4_0068
 .rodata.Abc_font_mono30haa4_0069
                0x08141bcc       0xf0 fonts/hdudispfmono30haa4.o
                0x08141bcc                Abc_font_mono30haa4_0069
 .rodata.Abc_font_mono30haa4_006a
                0x08141cbc       0xf0 fonts/hdudispfmono30haa4.o
                0x08141cbc                Abc_font_mono30haa4_006a
 .rodata.Abc_font_mono30haa4_006b
                0x08141dac       0xf0 fonts/hdudispfmono30haa4.o
                0x08141dac                Abc_font_mono30haa4_006b
 .rodata.Abc_font_mono30haa4_006c
                0x08141e9c       0xf0 fonts/hdudispfmono30haa4.o
                0x08141e9c                Abc_font_mono30haa4_006c
 .rodata.Abc_font_mono30haa4_006d
                0x08141f8c       0xf0 fonts/hdudispfmono30haa4.o
                0x08141f8c                Abc_font_mono30haa4_006d
 .rodata.Abc_font_mono30haa4_006e
                0x0814207c       0xf0 fonts/hdudispfmono30haa4.o
                0x0814207c                Abc_font_mono30haa4_006e
 .rodata.Abc_font_mono30haa4_006f
                0x0814216c       0xf0 fonts/hdudispfmono30haa4.o
                0x0814216c                Abc_font_mono30haa4_006f
 .rodata.Abc_font_mono30haa4_0070
                0x0814225c       0xf0 fonts/hdudispfmono30haa4.o
                0x0814225c                Abc_font_mono30haa4_0070
 .rodata.Abc_font_mono30haa4_0071
                0x0814234c       0xf0 fonts/hdudispfmono30haa4.o
                0x0814234c                Abc_font_mono30haa4_0071
 .rodata.Abc_font_mono30haa4_0072
                0x0814243c       0xf0 fonts/hdudispfmono30haa4.o
                0x0814243c                Abc_font_mono30haa4_0072
 .rodata.Abc_font_mono30haa4_0073
                0x0814252c       0xf0 fonts/hdudispfmono30haa4.o
                0x0814252c                Abc_font_mono30haa4_0073
 .rodata.Abc_font_mono30haa4_0074
                0x0814261c       0xf0 fonts/hdudispfmono30haa4.o
                0x0814261c                Abc_font_mono30haa4_0074
 .rodata.Abc_font_mono30haa4_0075
                0x0814270c       0xf0 fonts/hdudispfmono30haa4.o
                0x0814270c                Abc_font_mono30haa4_0075
 .rodata.Abc_font_mono30haa4_0076
                0x081427fc       0xf0 fonts/hdudispfmono30haa4.o
                0x081427fc                Abc_font_mono30haa4_0076
 .rodata.Abc_font_mono30haa4_0077
                0x081428ec       0xf0 fonts/hdudispfmono30haa4.o
                0x081428ec                Abc_font_mono30haa4_0077
 .rodata.Abc_font_mono30haa4_0078
                0x081429dc       0xf0 fonts/hdudispfmono30haa4.o
                0x081429dc                Abc_font_mono30haa4_0078
 .rodata.Abc_font_mono30haa4_0079
                0x08142acc       0xf0 fonts/hdudispfmono30haa4.o
                0x08142acc                Abc_font_mono30haa4_0079
 .rodata.Abc_font_mono30haa4_007a
                0x08142bbc       0xf0 fonts/hdudispfmono30haa4.o
                0x08142bbc                Abc_font_mono30haa4_007a
 .rodata.Abc_font_mono30haa4_007b
                0x08142cac       0xf0 fonts/hdudispfmono30haa4.o
                0x08142cac                Abc_font_mono30haa4_007b
 .rodata.Abc_font_mono30haa4_007c
                0x08142d9c       0xf0 fonts/hdudispfmono30haa4.o
                0x08142d9c                Abc_font_mono30haa4_007c
 .rodata.Abc_font_mono30haa4_007d
                0x08142e8c       0xf0 fonts/hdudispfmono30haa4.o
                0x08142e8c                Abc_font_mono30haa4_007d
 .rodata.Abc_font_mono30haa4_007e
                0x08142f7c       0xf0 fonts/hdudispfmono30haa4.o
                0x08142f7c                Abc_font_mono30haa4_007e
 .rodata.Abc_font_mono30haa4_007f
                0x0814306c       0xe1 fonts/hdudispfmono30haa4.o
                0x0814306c                Abc_font_mono30haa4_007f
 *fill*         0x0814314d        0x3 
 .rodata.Abc_font_mono30haa4_0090
                0x08143150       0xf0 fonts/hdudispfmono30haa4.o
                0x08143150                Abc_font_mono30haa4_0090
 .rodata.Abc_font_mono30haa4_0091
                0x08143240       0xf0 fonts/hdudispfmono30haa4.o
                0x08143240                Abc_font_mono30haa4_0091
 .rodata.Abc_font_mono30haa4_0092
                0x08143330       0xf0 fonts/hdudispfmono30haa4.o
                0x08143330                Abc_font_mono30haa4_0092
 .rodata.Abc_font_mono30haa4_0093
                0x08143420       0xf0 fonts/hdudispfmono30haa4.o
                0x08143420                Abc_font_mono30haa4_0093
 .rodata.Abc_font_mono30haa4_0094
                0x08143510       0xf0 fonts/hdudispfmono30haa4.o
                0x08143510                Abc_font_mono30haa4_0094
 .rodata.Abc_font_mono30haa4_0095
                0x08143600       0xf0 fonts/hdudispfmono30haa4.o
                0x08143600                Abc_font_mono30haa4_0095
 .rodata.Abc_font_mono30haa4_0096
                0x081436f0       0xf0 fonts/hdudispfmono30haa4.o
                0x081436f0                Abc_font_mono30haa4_0096
 .rodata.Abc_font_mono30haa4_0097
                0x081437e0       0x3c fonts/hdudispfmono30haa4.o
                0x081437e0                Abc_font_mono30haa4_0097
 .rodata.Abc_font_mono30haa4_0098
                0x0814381c       0x3c fonts/hdudispfmono30haa4.o
                0x0814381c                Abc_font_mono30haa4_0098
 .rodata.Abc_font_mono30haa4_0099
                0x08143858        0xf fonts/hdudispfmono30haa4.o
                0x08143858                Abc_font_mono30haa4_0099
 *fill*         0x08143867        0x1 
 .rodata.Abc_font_mono30haa4_009a
                0x08143868       0xf0 fonts/hdudispfmono30haa4.o
                0x08143868                Abc_font_mono30haa4_009a
 .rodata.Abc_font_mono30haa4_009b
                0x08143958       0x3c fonts/hdudispfmono30haa4.o
                0x08143958                Abc_font_mono30haa4_009b
 .rodata.Abc_font_mono30haa4_009c
                0x08143994       0x3c fonts/hdudispfmono30haa4.o
                0x08143994                Abc_font_mono30haa4_009c
 .rodata.Abc_font_mono30haa4_009d
                0x081439d0       0xe1 fonts/hdudispfmono30haa4.o
                0x081439d0                Abc_font_mono30haa4_009d
 *fill*         0x08143ab1        0x3 
 .rodata.Abc_font_mono30haa4_009e
                0x08143ab4       0x3c fonts/hdudispfmono30haa4.o
                0x08143ab4                Abc_font_mono30haa4_009e
 .rodata.Abc_font_mono30haa4_009f
                0x08143af0       0x3c fonts/hdudispfmono30haa4.o
                0x08143af0                Abc_font_mono30haa4_009f
 .rodata.Abc_font_mono30haa4_00a0
                0x08143b2c       0xf0 fonts/hdudispfmono30haa4.o
                0x08143b2c                Abc_font_mono30haa4_00a0
 .rodata.Abc_font_mono30haa4_00a1
                0x08143c1c       0xf0 fonts/hdudispfmono30haa4.o
                0x08143c1c                Abc_font_mono30haa4_00a1
 .rodata.Abc_font_mono30haa4_00a2
                0x08143d0c       0xf0 fonts/hdudispfmono30haa4.o
                0x08143d0c                Abc_font_mono30haa4_00a2
 .rodata.Abc_font_mono30haa4_00a3
                0x08143dfc       0xf0 fonts/hdudispfmono30haa4.o
                0x08143dfc                Abc_font_mono30haa4_00a3
 .rodata.Abc_font_mono30haa4_00a4
                0x08143eec       0xf0 fonts/hdudispfmono30haa4.o
                0x08143eec                Abc_font_mono30haa4_00a4
 .rodata.Abc_font_mono30haa4_00a5
                0x08143fdc       0xf0 fonts/hdudispfmono30haa4.o
                0x08143fdc                Abc_font_mono30haa4_00a5
 .rodata.Abc_font_mono30haa4_00a6
                0x081440cc       0xf0 fonts/hdudispfmono30haa4.o
                0x081440cc                Abc_font_mono30haa4_00a6
 .rodata.Abc_font_mono30haa4_00a7
                0x081441bc       0xf0 fonts/hdudispfmono30haa4.o
                0x081441bc                Abc_font_mono30haa4_00a7
 .rodata.Abc_font_mono30haa4_00a8
                0x081442ac       0xf0 fonts/hdudispfmono30haa4.o
                0x081442ac                Abc_font_mono30haa4_00a8
 .rodata.Abc_font_mono30haa4_00a9
                0x0814439c       0xf0 fonts/hdudispfmono30haa4.o
                0x0814439c                Abc_font_mono30haa4_00a9
 .rodata.Abc_font_mono30haa4_00aa
                0x0814448c       0xf0 fonts/hdudispfmono30haa4.o
                0x0814448c                Abc_font_mono30haa4_00aa
 .rodata.Abc_font_mono30haa4_00ab
                0x0814457c       0xf0 fonts/hdudispfmono30haa4.o
                0x0814457c                Abc_font_mono30haa4_00ab
 .rodata.Abc_font_mono30haa4_00ac
                0x0814466c       0xf0 fonts/hdudispfmono30haa4.o
                0x0814466c                Abc_font_mono30haa4_00ac
 .rodata.Abc_font_mono30haa4_00ad
                0x0814475c       0xf0 fonts/hdudispfmono30haa4.o
                0x0814475c                Abc_font_mono30haa4_00ad
 .rodata.Abc_font_mono30haa4_00ae
                0x0814484c       0xf0 fonts/hdudispfmono30haa4.o
                0x0814484c                Abc_font_mono30haa4_00ae
 .rodata.Abc_font_mono30haa4_00af
                0x0814493c       0xf0 fonts/hdudispfmono30haa4.o
                0x0814493c                Abc_font_mono30haa4_00af
 .rodata.Abc_font_mono30haa4_00b0
                0x08144a2c       0xf0 fonts/hdudispfmono30haa4.o
                0x08144a2c                Abc_font_mono30haa4_00b0
 .rodata.Abc_font_mono30haa4_00b1
                0x08144b1c       0xf0 fonts/hdudispfmono30haa4.o
                0x08144b1c                Abc_font_mono30haa4_00b1
 .rodata.Abc_font_mono30haa4_00b2
                0x08144c0c       0xf0 fonts/hdudispfmono30haa4.o
                0x08144c0c                Abc_font_mono30haa4_00b2
 .rodata.Abc_font_mono30haa4_00b3
                0x08144cfc       0xf0 fonts/hdudispfmono30haa4.o
                0x08144cfc                Abc_font_mono30haa4_00b3
 .rodata.Abc_font_mono30haa4_00b4
                0x08144dec       0xf0 fonts/hdudispfmono30haa4.o
                0x08144dec                Abc_font_mono30haa4_00b4
 .rodata.Abc_font_mono30haa4_00b5
                0x08144edc       0xf0 fonts/hdudispfmono30haa4.o
                0x08144edc                Abc_font_mono30haa4_00b5
 .rodata.Abc_font_mono30haa4_00b6
                0x08144fcc       0xf0 fonts/hdudispfmono30haa4.o
                0x08144fcc                Abc_font_mono30haa4_00b6
 .rodata.Abc_font_mono30haa4_00b7
                0x081450bc       0xf0 fonts/hdudispfmono30haa4.o
                0x081450bc                Abc_font_mono30haa4_00b7
 .rodata.Abc_font_mono30haa4_00b8
                0x081451ac       0xf0 fonts/hdudispfmono30haa4.o
                0x081451ac                Abc_font_mono30haa4_00b8
 .rodata.Abc_font_mono30haa4_00b9
                0x0814529c       0xf0 fonts/hdudispfmono30haa4.o
                0x0814529c                Abc_font_mono30haa4_00b9
 .rodata.Abc_font_mono30haa4_00ba
                0x0814538c       0xf0 fonts/hdudispfmono30haa4.o
                0x0814538c                Abc_font_mono30haa4_00ba
 .rodata.Abc_font_mono30haa4_00bb
                0x0814547c       0xf0 fonts/hdudispfmono30haa4.o
                0x0814547c                Abc_font_mono30haa4_00bb
 .rodata.Abc_font_mono30haa4_00bc
                0x0814556c       0xf0 fonts/hdudispfmono30haa4.o
                0x0814556c                Abc_font_mono30haa4_00bc
 .rodata.Abc_font_mono30haa4_00bd
                0x0814565c       0xf0 fonts/hdudispfmono30haa4.o
                0x0814565c                Abc_font_mono30haa4_00bd
 .rodata.Abc_font_mono30haa4_00be
                0x0814574c       0xf0 fonts/hdudispfmono30haa4.o
                0x0814574c                Abc_font_mono30haa4_00be
 .rodata.Abc_font_mono30haa4_00bf
                0x0814583c       0xf0 fonts/hdudispfmono30haa4.o
                0x0814583c                Abc_font_mono30haa4_00bf
 .rodata.Abc_font_mono30haa4_00c0
                0x0814592c       0xf0 fonts/hdudispfmono30haa4.o
                0x0814592c                Abc_font_mono30haa4_00c0
 .rodata.Abc_font_mono30haa4_00c1
                0x08145a1c       0xf0 fonts/hdudispfmono30haa4.o
                0x08145a1c                Abc_font_mono30haa4_00c1
 .rodata.Abc_font_mono30haa4_00c2
                0x08145b0c       0xf0 fonts/hdudispfmono30haa4.o
                0x08145b0c                Abc_font_mono30haa4_00c2
 .rodata.Abc_font_mono30haa4_00c3
                0x08145bfc       0xf0 fonts/hdudispfmono30haa4.o
                0x08145bfc                Abc_font_mono30haa4_00c3
 .rodata.Abc_font_mono30haa4_00c4
                0x08145cec       0xf0 fonts/hdudispfmono30haa4.o
                0x08145cec                Abc_font_mono30haa4_00c4
 .rodata.Abc_font_mono30haa4_00c5
                0x08145ddc       0xf0 fonts/hdudispfmono30haa4.o
                0x08145ddc                Abc_font_mono30haa4_00c5
 .rodata.Abc_font_mono30haa4_00c6
                0x08145ecc       0xf0 fonts/hdudispfmono30haa4.o
                0x08145ecc                Abc_font_mono30haa4_00c6
 .rodata.Abc_font_mono30haa4_00c7
                0x08145fbc       0xf0 fonts/hdudispfmono30haa4.o
                0x08145fbc                Abc_font_mono30haa4_00c7
 .rodata.Abc_font_mono30haa4_00c8
                0x081460ac       0xf0 fonts/hdudispfmono30haa4.o
                0x081460ac                Abc_font_mono30haa4_00c8
 .rodata.Abc_font_mono30haa4_00c9
                0x0814619c       0xf0 fonts/hdudispfmono30haa4.o
                0x0814619c                Abc_font_mono30haa4_00c9
 .rodata.Abc_font_mono30haa4_00ca
                0x0814628c       0xf0 fonts/hdudispfmono30haa4.o
                0x0814628c                Abc_font_mono30haa4_00ca
 .rodata.Abc_font_mono30haa4_00cb
                0x0814637c       0xf0 fonts/hdudispfmono30haa4.o
                0x0814637c                Abc_font_mono30haa4_00cb
 .rodata.Abc_font_mono30haa4_00cc
                0x0814646c       0xf0 fonts/hdudispfmono30haa4.o
                0x0814646c                Abc_font_mono30haa4_00cc
 .rodata.Abc_font_mono30haa4_00cd
                0x0814655c       0xf0 fonts/hdudispfmono30haa4.o
                0x0814655c                Abc_font_mono30haa4_00cd
 .rodata.Abc_font_mono30haa4_00ce
                0x0814664c       0xf0 fonts/hdudispfmono30haa4.o
                0x0814664c                Abc_font_mono30haa4_00ce
 .rodata.Abc_font_mono30haa4_00cf
                0x0814673c       0xf0 fonts/hdudispfmono30haa4.o
                0x0814673c                Abc_font_mono30haa4_00cf
 .rodata.Abc_font_mono30haa4_00d0
                0x0814682c       0xf0 fonts/hdudispfmono30haa4.o
                0x0814682c                Abc_font_mono30haa4_00d0
 .rodata.Abc_font_mono30haa4_00d1
                0x0814691c       0xf0 fonts/hdudispfmono30haa4.o
                0x0814691c                Abc_font_mono30haa4_00d1
 .rodata.Abc_font_mono30haa4_00d2
                0x08146a0c       0xf0 fonts/hdudispfmono30haa4.o
                0x08146a0c                Abc_font_mono30haa4_00d2
 .rodata.Abc_font_mono30haa4_00d3
                0x08146afc       0xf0 fonts/hdudispfmono30haa4.o
                0x08146afc                Abc_font_mono30haa4_00d3
 .rodata.Abc_font_mono30haa4_00d4
                0x08146bec       0xf0 fonts/hdudispfmono30haa4.o
                0x08146bec                Abc_font_mono30haa4_00d4
 .rodata.Abc_font_mono30haa4_00d5
                0x08146cdc       0xf0 fonts/hdudispfmono30haa4.o
                0x08146cdc                Abc_font_mono30haa4_00d5
 .rodata.Abc_font_mono30haa4_00d6
                0x08146dcc       0xf0 fonts/hdudispfmono30haa4.o
                0x08146dcc                Abc_font_mono30haa4_00d6
 .rodata.Abc_font_mono30haa4_00d7
                0x08146ebc       0xf0 fonts/hdudispfmono30haa4.o
                0x08146ebc                Abc_font_mono30haa4_00d7
 .rodata.Abc_font_mono30haa4_00d8
                0x08146fac       0xf0 fonts/hdudispfmono30haa4.o
                0x08146fac                Abc_font_mono30haa4_00d8
 .rodata.Abc_font_mono30haa4_00d9
                0x0814709c       0xf0 fonts/hdudispfmono30haa4.o
                0x0814709c                Abc_font_mono30haa4_00d9
 .rodata.Abc_font_mono30haa4_00da
                0x0814718c       0xf0 fonts/hdudispfmono30haa4.o
                0x0814718c                Abc_font_mono30haa4_00da
 .rodata.Abc_font_mono30haa4_00db
                0x0814727c       0xf0 fonts/hdudispfmono30haa4.o
                0x0814727c                Abc_font_mono30haa4_00db
 .rodata.Abc_font_mono30haa4_00dc
                0x0814736c       0xf0 fonts/hdudispfmono30haa4.o
                0x0814736c                Abc_font_mono30haa4_00dc
 .rodata.Abc_font_mono30haa4_00dd
                0x0814745c       0xf0 fonts/hdudispfmono30haa4.o
                0x0814745c                Abc_font_mono30haa4_00dd
 .rodata.Abc_font_mono30haa4_00de
                0x0814754c       0xf0 fonts/hdudispfmono30haa4.o
                0x0814754c                Abc_font_mono30haa4_00de
 .rodata.Abc_font_mono30haa4_00df
                0x0814763c       0xf0 fonts/hdudispfmono30haa4.o
                0x0814763c                Abc_font_mono30haa4_00df
 .rodata.Abc_font_mono30haa4_00e0
                0x0814772c       0xf0 fonts/hdudispfmono30haa4.o
                0x0814772c                Abc_font_mono30haa4_00e0
 .rodata.Abc_font_mono30haa4_00e1
                0x0814781c       0xf0 fonts/hdudispfmono30haa4.o
                0x0814781c                Abc_font_mono30haa4_00e1
 .rodata.Abc_font_mono30haa4_00e2
                0x0814790c       0xf0 fonts/hdudispfmono30haa4.o
                0x0814790c                Abc_font_mono30haa4_00e2
 .rodata.Abc_font_mono30haa4_00e3
                0x081479fc       0xf0 fonts/hdudispfmono30haa4.o
                0x081479fc                Abc_font_mono30haa4_00e3
 .rodata.Abc_font_mono30haa4_00e4
                0x08147aec       0xf0 fonts/hdudispfmono30haa4.o
                0x08147aec                Abc_font_mono30haa4_00e4
 .rodata.Abc_font_mono30haa4_00e5
                0x08147bdc       0xf0 fonts/hdudispfmono30haa4.o
                0x08147bdc                Abc_font_mono30haa4_00e5
 .rodata.Abc_font_mono30haa4_00e6
                0x08147ccc       0xf0 fonts/hdudispfmono30haa4.o
                0x08147ccc                Abc_font_mono30haa4_00e6
 .rodata.Abc_font_mono30haa4_00e7
                0x08147dbc       0xf0 fonts/hdudispfmono30haa4.o
                0x08147dbc                Abc_font_mono30haa4_00e7
 .rodata.Abc_font_mono30haa4_00e8
                0x08147eac       0xf0 fonts/hdudispfmono30haa4.o
                0x08147eac                Abc_font_mono30haa4_00e8
 .rodata.Abc_font_mono30haa4_00e9
                0x08147f9c       0xf0 fonts/hdudispfmono30haa4.o
                0x08147f9c                Abc_font_mono30haa4_00e9
 .rodata.Abc_font_mono30haa4_00ea
                0x0814808c       0xf0 fonts/hdudispfmono30haa4.o
                0x0814808c                Abc_font_mono30haa4_00ea
 .rodata.Abc_font_mono30haa4_00eb
                0x0814817c       0xf0 fonts/hdudispfmono30haa4.o
                0x0814817c                Abc_font_mono30haa4_00eb
 .rodata.Abc_font_mono30haa4_00ec
                0x0814826c       0xf0 fonts/hdudispfmono30haa4.o
                0x0814826c                Abc_font_mono30haa4_00ec
 .rodata.Abc_font_mono30haa4_00ed
                0x0814835c       0xf0 fonts/hdudispfmono30haa4.o
                0x0814835c                Abc_font_mono30haa4_00ed
 .rodata.Abc_font_mono30haa4_00ee
                0x0814844c       0xf0 fonts/hdudispfmono30haa4.o
                0x0814844c                Abc_font_mono30haa4_00ee
 .rodata.Abc_font_mono30haa4_00ef
                0x0814853c       0xf0 fonts/hdudispfmono30haa4.o
                0x0814853c                Abc_font_mono30haa4_00ef
 .rodata.Abc_font_mono30haa4_00f0
                0x0814862c       0xf0 fonts/hdudispfmono30haa4.o
                0x0814862c                Abc_font_mono30haa4_00f0
 .rodata.Abc_font_mono30haa4_00f1
                0x0814871c       0xf0 fonts/hdudispfmono30haa4.o
                0x0814871c                Abc_font_mono30haa4_00f1
 .rodata.Abc_font_mono30haa4_00f2
                0x0814880c       0xf0 fonts/hdudispfmono30haa4.o
                0x0814880c                Abc_font_mono30haa4_00f2
 .rodata.Abc_font_mono30haa4_00f3
                0x081488fc       0xf0 fonts/hdudispfmono30haa4.o
                0x081488fc                Abc_font_mono30haa4_00f3
 .rodata.Abc_font_mono30haa4_00f4
                0x081489ec       0xf0 fonts/hdudispfmono30haa4.o
                0x081489ec                Abc_font_mono30haa4_00f4
 .rodata.Abc_font_mono30haa4_00f5
                0x08148adc       0xf0 fonts/hdudispfmono30haa4.o
                0x08148adc                Abc_font_mono30haa4_00f5
 .rodata.Abc_font_mono30haa4_00f6
                0x08148bcc       0xf0 fonts/hdudispfmono30haa4.o
                0x08148bcc                Abc_font_mono30haa4_00f6
 .rodata.Abc_font_mono30haa4_00f7
                0x08148cbc       0xf0 fonts/hdudispfmono30haa4.o
                0x08148cbc                Abc_font_mono30haa4_00f7
 .rodata.Abc_font_mono30haa4_00f8
                0x08148dac       0xf0 fonts/hdudispfmono30haa4.o
                0x08148dac                Abc_font_mono30haa4_00f8
 .rodata.Abc_font_mono30haa4_00f9
                0x08148e9c       0xf0 fonts/hdudispfmono30haa4.o
                0x08148e9c                Abc_font_mono30haa4_00f9
 .rodata.Abc_font_mono30haa4_00fa
                0x08148f8c       0xf0 fonts/hdudispfmono30haa4.o
                0x08148f8c                Abc_font_mono30haa4_00fa
 .rodata.Abc_font_mono30haa4_00fb
                0x0814907c       0xf0 fonts/hdudispfmono30haa4.o
                0x0814907c                Abc_font_mono30haa4_00fb
 .rodata.Abc_font_mono30haa4_00fc
                0x0814916c       0xf0 fonts/hdudispfmono30haa4.o
                0x0814916c                Abc_font_mono30haa4_00fc
 .rodata.Abc_font_mono30haa4_00fd
                0x0814925c       0xf0 fonts/hdudispfmono30haa4.o
                0x0814925c                Abc_font_mono30haa4_00fd
 .rodata.Abc_font_mono30haa4_00fe
                0x0814934c       0xf0 fonts/hdudispfmono30haa4.o
                0x0814934c                Abc_font_mono30haa4_00fe
 .rodata.Abc_font_mono30haa4_00ff
                0x0814943c      0x1b3 fonts/hdudispfmono30haa4.o
                0x0814943c                Abc_font_mono30haa4_00ff
 *fill*         0x081495ef        0x1 
 .rodata.Font_mono30haa4_char_info
                0x081495f0      0x700 fonts/hdudispfmono30haa4.o
                0x081495f0                Font_mono30haa4_char_info
 .rodata.Font_mono30haa4_prop2
                0x08149cf0        0xc fonts/hdudispfmono30haa4.o
                0x08149cf0                Font_mono30haa4_prop2
 .rodata.Font_mono30haa4_prop1
                0x08149cfc        0xc fonts/hdudispfmono30haa4.o
                0x08149cfc                Font_mono30haa4_prop1
 .rodata.Font_normal
                0x08149d08       0x10 fonts/hdudispfmono30haa4.o
                0x08149d08                Font_normal
 .rodata.Abc_font_mono42haa4_0010
                0x08149d18      0x1ce fonts/hdudispfmono42haa4.o
                0x08149d18                Abc_font_mono42haa4_0010
 *fill*         0x08149ee6        0x2 
 .rodata.Abc_font_mono42haa4_0011
                0x08149ee8      0x1ce fonts/hdudispfmono42haa4.o
                0x08149ee8                Abc_font_mono42haa4_0011
 *fill*         0x0814a0b6        0x2 
 .rodata.Abc_font_mono42haa4_0012
                0x0814a0b8      0x1ce fonts/hdudispfmono42haa4.o
                0x0814a0b8                Abc_font_mono42haa4_0012
 *fill*         0x0814a286        0x2 
 .rodata.Abc_font_mono42haa4_0013
                0x0814a288      0x1ce fonts/hdudispfmono42haa4.o
                0x0814a288                Abc_font_mono42haa4_0013
 *fill*         0x0814a456        0x2 
 .rodata.Abc_font_mono42haa4_0014
                0x0814a458      0x1ce fonts/hdudispfmono42haa4.o
                0x0814a458                Abc_font_mono42haa4_0014
 *fill*         0x0814a626        0x2 
 .rodata.Abc_font_mono42haa4_0015
                0x0814a628      0x1ce fonts/hdudispfmono42haa4.o
                0x0814a628                Abc_font_mono42haa4_0015
 *fill*         0x0814a7f6        0x2 
 .rodata.Abc_font_mono42haa4_0016
                0x0814a7f8      0x1ce fonts/hdudispfmono42haa4.o
                0x0814a7f8                Abc_font_mono42haa4_0016
 *fill*         0x0814a9c6        0x2 
 .rodata.Abc_font_mono42haa4_0017
                0x0814a9c8       0x7e fonts/hdudispfmono42haa4.o
                0x0814a9c8                Abc_font_mono42haa4_0017
 *fill*         0x0814aa46        0x2 
 .rodata.Abc_font_mono42haa4_0018
                0x0814aa48       0x7e fonts/hdudispfmono42haa4.o
                0x0814aa48                Abc_font_mono42haa4_0018
 *fill*         0x0814aac6        0x2 
 .rodata.Abc_font_mono42haa4_0019
                0x0814aac8      0x1a4 fonts/hdudispfmono42haa4.o
                0x0814aac8                Abc_font_mono42haa4_0019
 .rodata.Abc_font_mono42haa4_001a
                0x0814ac6c      0x1a4 fonts/hdudispfmono42haa4.o
                0x0814ac6c                Abc_font_mono42haa4_001a
 .rodata.Abc_font_mono42haa4_001b
                0x0814ae10      0x1a4 fonts/hdudispfmono42haa4.o
                0x0814ae10                Abc_font_mono42haa4_001b
 .rodata.Abc_font_mono42haa4_001c
                0x0814afb4      0x1a4 fonts/hdudispfmono42haa4.o
                0x0814afb4                Abc_font_mono42haa4_001c
 .rodata.Abc_font_mono42haa4_001d
                0x0814b158      0x1a4 fonts/hdudispfmono42haa4.o
                0x0814b158                Abc_font_mono42haa4_001d
 .rodata.Abc_font_mono42haa4_001e
                0x0814b2fc      0x1a4 fonts/hdudispfmono42haa4.o
                0x0814b2fc                Abc_font_mono42haa4_001e
 .rodata.Abc_font_mono42haa4_001f
                0x0814b4a0      0x1a4 fonts/hdudispfmono42haa4.o
                0x0814b4a0                Abc_font_mono42haa4_001f
 .rodata.Abc_font_mono42haa4_0020
                0x0814b644      0x1ce fonts/hdudispfmono42haa4.o
                0x0814b644                Abc_font_mono42haa4_0020
 *fill*         0x0814b812        0x2 
 .rodata.Abc_font_mono42haa4_0021
                0x0814b814      0x1ce fonts/hdudispfmono42haa4.o
                0x0814b814                Abc_font_mono42haa4_0021
 *fill*         0x0814b9e2        0x2 
 .rodata.Abc_font_mono42haa4_0022
                0x0814b9e4      0x1ce fonts/hdudispfmono42haa4.o
                0x0814b9e4                Abc_font_mono42haa4_0022
 *fill*         0x0814bbb2        0x2 
 .rodata.Abc_font_mono42haa4_0023
                0x0814bbb4      0x1ce fonts/hdudispfmono42haa4.o
                0x0814bbb4                Abc_font_mono42haa4_0023
 *fill*         0x0814bd82        0x2 
 .rodata.Abc_font_mono42haa4_0024
                0x0814bd84      0x1ce fonts/hdudispfmono42haa4.o
                0x0814bd84                Abc_font_mono42haa4_0024
 *fill*         0x0814bf52        0x2 
 .rodata.Abc_font_mono42haa4_0025
                0x0814bf54      0x1ce fonts/hdudispfmono42haa4.o
                0x0814bf54                Abc_font_mono42haa4_0025
 *fill*         0x0814c122        0x2 
 .rodata.Abc_font_mono42haa4_0026
                0x0814c124      0x1f8 fonts/hdudispfmono42haa4.o
                0x0814c124                Abc_font_mono42haa4_0026
 .rodata.Abc_font_mono42haa4_0027
                0x0814c31c      0x1ce fonts/hdudispfmono42haa4.o
                0x0814c31c                Abc_font_mono42haa4_0027
 *fill*         0x0814c4ea        0x2 
 .rodata.Abc_font_mono42haa4_0028
                0x0814c4ec      0x1ce fonts/hdudispfmono42haa4.o
                0x0814c4ec                Abc_font_mono42haa4_0028
 *fill*         0x0814c6ba        0x2 
 .rodata.Abc_font_mono42haa4_0029
                0x0814c6bc      0x1ce fonts/hdudispfmono42haa4.o
                0x0814c6bc                Abc_font_mono42haa4_0029
 *fill*         0x0814c88a        0x2 
 .rodata.Abc_font_mono42haa4_002a
                0x0814c88c      0x1ce fonts/hdudispfmono42haa4.o
                0x0814c88c                Abc_font_mono42haa4_002a
 *fill*         0x0814ca5a        0x2 
 .rodata.Abc_font_mono42haa4_002b
                0x0814ca5c      0x1ce fonts/hdudispfmono42haa4.o
                0x0814ca5c                Abc_font_mono42haa4_002b
 *fill*         0x0814cc2a        0x2 
 .rodata.Abc_font_mono42haa4_002c
                0x0814cc2c      0x1ce fonts/hdudispfmono42haa4.o
                0x0814cc2c                Abc_font_mono42haa4_002c
 *fill*         0x0814cdfa        0x2 
 .rodata.Abc_font_mono42haa4_002d
                0x0814cdfc      0x1ce fonts/hdudispfmono42haa4.o
                0x0814cdfc                Abc_font_mono42haa4_002d
 *fill*         0x0814cfca        0x2 
 .rodata.Abc_font_mono42haa4_002e
                0x0814cfcc      0x1ce fonts/hdudispfmono42haa4.o
                0x0814cfcc                Abc_font_mono42haa4_002e
 *fill*         0x0814d19a        0x2 
 .rodata.Abc_font_mono42haa4_002f
                0x0814d19c      0x1ce fonts/hdudispfmono42haa4.o
                0x0814d19c                Abc_font_mono42haa4_002f
 *fill*         0x0814d36a        0x2 
 .rodata.Abc_font_mono42haa4_0030
                0x0814d36c      0x1ce fonts/hdudispfmono42haa4.o
                0x0814d36c                Abc_font_mono42haa4_0030
 *fill*         0x0814d53a        0x2 
 .rodata.Abc_font_mono42haa4_0031
                0x0814d53c      0x1ce fonts/hdudispfmono42haa4.o
                0x0814d53c                Abc_font_mono42haa4_0031
 *fill*         0x0814d70a        0x2 
 .rodata.Abc_font_mono42haa4_0032
                0x0814d70c      0x1ce fonts/hdudispfmono42haa4.o
                0x0814d70c                Abc_font_mono42haa4_0032
 *fill*         0x0814d8da        0x2 
 .rodata.Abc_font_mono42haa4_0033
                0x0814d8dc      0x1ce fonts/hdudispfmono42haa4.o
                0x0814d8dc                Abc_font_mono42haa4_0033
 *fill*         0x0814daaa        0x2 
 .rodata.Abc_font_mono42haa4_0034
                0x0814daac      0x1ce fonts/hdudispfmono42haa4.o
                0x0814daac                Abc_font_mono42haa4_0034
 *fill*         0x0814dc7a        0x2 
 .rodata.Abc_font_mono42haa4_0035
                0x0814dc7c      0x1ce fonts/hdudispfmono42haa4.o
                0x0814dc7c                Abc_font_mono42haa4_0035
 *fill*         0x0814de4a        0x2 
 .rodata.Abc_font_mono42haa4_0036
                0x0814de4c      0x1ce fonts/hdudispfmono42haa4.o
                0x0814de4c                Abc_font_mono42haa4_0036
 *fill*         0x0814e01a        0x2 
 .rodata.Abc_font_mono42haa4_0037
                0x0814e01c      0x1ce fonts/hdudispfmono42haa4.o
                0x0814e01c                Abc_font_mono42haa4_0037
 *fill*         0x0814e1ea        0x2 
 .rodata.Abc_font_mono42haa4_0038
                0x0814e1ec      0x1ce fonts/hdudispfmono42haa4.o
                0x0814e1ec                Abc_font_mono42haa4_0038
 *fill*         0x0814e3ba        0x2 
 .rodata.Abc_font_mono42haa4_0039
                0x0814e3bc      0x1ce fonts/hdudispfmono42haa4.o
                0x0814e3bc                Abc_font_mono42haa4_0039
 *fill*         0x0814e58a        0x2 
 .rodata.Abc_font_mono42haa4_003a
                0x0814e58c      0x1ce fonts/hdudispfmono42haa4.o
                0x0814e58c                Abc_font_mono42haa4_003a
 *fill*         0x0814e75a        0x2 
 .rodata.Abc_font_mono42haa4_003b
                0x0814e75c      0x1ce fonts/hdudispfmono42haa4.o
                0x0814e75c                Abc_font_mono42haa4_003b
 *fill*         0x0814e92a        0x2 
 .rodata.Abc_font_mono42haa4_003c
                0x0814e92c      0x1ce fonts/hdudispfmono42haa4.o
                0x0814e92c                Abc_font_mono42haa4_003c
 *fill*         0x0814eafa        0x2 
 .rodata.Abc_font_mono42haa4_003d
                0x0814eafc      0x1ce fonts/hdudispfmono42haa4.o
                0x0814eafc                Abc_font_mono42haa4_003d
 *fill*         0x0814ecca        0x2 
 .rodata.Abc_font_mono42haa4_003e
                0x0814eccc      0x1ce fonts/hdudispfmono42haa4.o
                0x0814eccc                Abc_font_mono42haa4_003e
 *fill*         0x0814ee9a        0x2 
 .rodata.Abc_font_mono42haa4_003f
                0x0814ee9c      0x1ce fonts/hdudispfmono42haa4.o
                0x0814ee9c                Abc_font_mono42haa4_003f
 *fill*         0x0814f06a        0x2 
 .rodata.Abc_font_mono42haa4_0040
                0x0814f06c      0x1ce fonts/hdudispfmono42haa4.o
                0x0814f06c                Abc_font_mono42haa4_0040
 *fill*         0x0814f23a        0x2 
 .rodata.Abc_font_mono42haa4_0041
                0x0814f23c      0x1ce fonts/hdudispfmono42haa4.o
                0x0814f23c                Abc_font_mono42haa4_0041
 *fill*         0x0814f40a        0x2 
 .rodata.Abc_font_mono42haa4_0042
                0x0814f40c      0x1ce fonts/hdudispfmono42haa4.o
                0x0814f40c                Abc_font_mono42haa4_0042
 *fill*         0x0814f5da        0x2 
 .rodata.Abc_font_mono42haa4_0043
                0x0814f5dc      0x1ce fonts/hdudispfmono42haa4.o
                0x0814f5dc                Abc_font_mono42haa4_0043
 *fill*         0x0814f7aa        0x2 
 .rodata.Abc_font_mono42haa4_0044
                0x0814f7ac      0x1ce fonts/hdudispfmono42haa4.o
                0x0814f7ac                Abc_font_mono42haa4_0044
 *fill*         0x0814f97a        0x2 
 .rodata.Abc_font_mono42haa4_0045
                0x0814f97c      0x1ce fonts/hdudispfmono42haa4.o
                0x0814f97c                Abc_font_mono42haa4_0045
 *fill*         0x0814fb4a        0x2 
 .rodata.Abc_font_mono42haa4_0046
                0x0814fb4c      0x1ce fonts/hdudispfmono42haa4.o
                0x0814fb4c                Abc_font_mono42haa4_0046
 *fill*         0x0814fd1a        0x2 
 .rodata.Abc_font_mono42haa4_0047
                0x0814fd1c      0x1ce fonts/hdudispfmono42haa4.o
                0x0814fd1c                Abc_font_mono42haa4_0047
 *fill*         0x0814feea        0x2 
 .rodata.Abc_font_mono42haa4_0048
                0x0814feec      0x1ce fonts/hdudispfmono42haa4.o
                0x0814feec                Abc_font_mono42haa4_0048
 *fill*         0x081500ba        0x2 
 .rodata.Abc_font_mono42haa4_0049
                0x081500bc      0x1ce fonts/hdudispfmono42haa4.o
                0x081500bc                Abc_font_mono42haa4_0049
 *fill*         0x0815028a        0x2 
 .rodata.Abc_font_mono42haa4_004a
                0x0815028c      0x1ce fonts/hdudispfmono42haa4.o
                0x0815028c                Abc_font_mono42haa4_004a
 *fill*         0x0815045a        0x2 
 .rodata.Abc_font_mono42haa4_004b
                0x0815045c      0x1ce fonts/hdudispfmono42haa4.o
                0x0815045c                Abc_font_mono42haa4_004b
 *fill*         0x0815062a        0x2 
 .rodata.Abc_font_mono42haa4_004c
                0x0815062c      0x1ce fonts/hdudispfmono42haa4.o
                0x0815062c                Abc_font_mono42haa4_004c
 *fill*         0x081507fa        0x2 
 .rodata.Abc_font_mono42haa4_004d
                0x081507fc      0x1ce fonts/hdudispfmono42haa4.o
                0x081507fc                Abc_font_mono42haa4_004d
 *fill*         0x081509ca        0x2 
 .rodata.Abc_font_mono42haa4_004e
                0x081509cc      0x1ce fonts/hdudispfmono42haa4.o
                0x081509cc                Abc_font_mono42haa4_004e
 *fill*         0x08150b9a        0x2 
 .rodata.Abc_font_mono42haa4_004f
                0x08150b9c      0x1ce fonts/hdudispfmono42haa4.o
                0x08150b9c                Abc_font_mono42haa4_004f
 *fill*         0x08150d6a        0x2 
 .rodata.Abc_font_mono42haa4_0050
                0x08150d6c      0x1ce fonts/hdudispfmono42haa4.o
                0x08150d6c                Abc_font_mono42haa4_0050
 *fill*         0x08150f3a        0x2 
 .rodata.Abc_font_mono42haa4_0051
                0x08150f3c      0x1ce fonts/hdudispfmono42haa4.o
                0x08150f3c                Abc_font_mono42haa4_0051
 *fill*         0x0815110a        0x2 
 .rodata.Abc_font_mono42haa4_0052
                0x0815110c      0x1ce fonts/hdudispfmono42haa4.o
                0x0815110c                Abc_font_mono42haa4_0052
 *fill*         0x081512da        0x2 
 .rodata.Abc_font_mono42haa4_0053
                0x081512dc      0x1ce fonts/hdudispfmono42haa4.o
                0x081512dc                Abc_font_mono42haa4_0053
 *fill*         0x081514aa        0x2 
 .rodata.Abc_font_mono42haa4_0054
                0x081514ac      0x1ce fonts/hdudispfmono42haa4.o
                0x081514ac                Abc_font_mono42haa4_0054
 *fill*         0x0815167a        0x2 
 .rodata.Abc_font_mono42haa4_0055
                0x0815167c      0x1ce fonts/hdudispfmono42haa4.o
                0x0815167c                Abc_font_mono42haa4_0055
 *fill*         0x0815184a        0x2 
 .rodata.Abc_font_mono42haa4_0056
                0x0815184c      0x1ce fonts/hdudispfmono42haa4.o
                0x0815184c                Abc_font_mono42haa4_0056
 *fill*         0x08151a1a        0x2 
 .rodata.Abc_font_mono42haa4_0057
                0x08151a1c      0x1ce fonts/hdudispfmono42haa4.o
                0x08151a1c                Abc_font_mono42haa4_0057
 *fill*         0x08151bea        0x2 
 .rodata.Abc_font_mono42haa4_0058
                0x08151bec      0x1ce fonts/hdudispfmono42haa4.o
                0x08151bec                Abc_font_mono42haa4_0058
 *fill*         0x08151dba        0x2 
 .rodata.Abc_font_mono42haa4_0059
                0x08151dbc      0x1e3 fonts/hdudispfmono42haa4.o
                0x08151dbc                Abc_font_mono42haa4_0059
 *fill*         0x08151f9f        0x1 
 .rodata.Abc_font_mono42haa4_005a
                0x08151fa0      0x1ce fonts/hdudispfmono42haa4.o
                0x08151fa0                Abc_font_mono42haa4_005a
 *fill*         0x0815216e        0x2 
 .rodata.Abc_font_mono42haa4_005b
                0x08152170      0x1ce fonts/hdudispfmono42haa4.o
                0x08152170                Abc_font_mono42haa4_005b
 *fill*         0x0815233e        0x2 
 .rodata.Abc_font_mono42haa4_005c
                0x08152340      0x1ce fonts/hdudispfmono42haa4.o
                0x08152340                Abc_font_mono42haa4_005c
 *fill*         0x0815250e        0x2 
 .rodata.Abc_font_mono42haa4_005d
                0x08152510      0x1ce fonts/hdudispfmono42haa4.o
                0x08152510                Abc_font_mono42haa4_005d
 *fill*         0x081526de        0x2 
 .rodata.Abc_font_mono42haa4_005e
                0x081526e0      0x1ce fonts/hdudispfmono42haa4.o
                0x081526e0                Abc_font_mono42haa4_005e
 *fill*         0x081528ae        0x2 
 .rodata.Abc_font_mono42haa4_005f
                0x081528b0      0x1ce fonts/hdudispfmono42haa4.o
                0x081528b0                Abc_font_mono42haa4_005f
 *fill*         0x08152a7e        0x2 
 .rodata.Abc_font_mono42haa4_0060
                0x08152a80      0x1ce fonts/hdudispfmono42haa4.o
                0x08152a80                Abc_font_mono42haa4_0060
 *fill*         0x08152c4e        0x2 
 .rodata.Abc_font_mono42haa4_0061
                0x08152c50      0x1ce fonts/hdudispfmono42haa4.o
                0x08152c50                Abc_font_mono42haa4_0061
 *fill*         0x08152e1e        0x2 
 .rodata.Abc_font_mono42haa4_0062
                0x08152e20      0x1ce fonts/hdudispfmono42haa4.o
                0x08152e20                Abc_font_mono42haa4_0062
 *fill*         0x08152fee        0x2 
 .rodata.Abc_font_mono42haa4_0063
                0x08152ff0      0x1ce fonts/hdudispfmono42haa4.o
                0x08152ff0                Abc_font_mono42haa4_0063
 *fill*         0x081531be        0x2 
 .rodata.Abc_font_mono42haa4_0064
                0x081531c0      0x1ce fonts/hdudispfmono42haa4.o
                0x081531c0                Abc_font_mono42haa4_0064
 *fill*         0x0815338e        0x2 
 .rodata.Abc_font_mono42haa4_0065
                0x08153390      0x1ce fonts/hdudispfmono42haa4.o
                0x08153390                Abc_font_mono42haa4_0065
 *fill*         0x0815355e        0x2 
 .rodata.Abc_font_mono42haa4_0066
                0x08153560      0x1ce fonts/hdudispfmono42haa4.o
                0x08153560                Abc_font_mono42haa4_0066
 *fill*         0x0815372e        0x2 
 .rodata.Abc_font_mono42haa4_0067
                0x08153730      0x1ce fonts/hdudispfmono42haa4.o
                0x08153730                Abc_font_mono42haa4_0067
 *fill*         0x081538fe        0x2 
 .rodata.Abc_font_mono42haa4_0068
                0x08153900      0x1ce fonts/hdudispfmono42haa4.o
                0x08153900                Abc_font_mono42haa4_0068
 *fill*         0x08153ace        0x2 
 .rodata.Abc_font_mono42haa4_0069
                0x08153ad0      0x1ce fonts/hdudispfmono42haa4.o
                0x08153ad0                Abc_font_mono42haa4_0069
 *fill*         0x08153c9e        0x2 
 .rodata.Abc_font_mono42haa4_006a
                0x08153ca0      0x1ce fonts/hdudispfmono42haa4.o
                0x08153ca0                Abc_font_mono42haa4_006a
 *fill*         0x08153e6e        0x2 
 .rodata.Abc_font_mono42haa4_006b
                0x08153e70      0x1ce fonts/hdudispfmono42haa4.o
                0x08153e70                Abc_font_mono42haa4_006b
 *fill*         0x0815403e        0x2 
 .rodata.Abc_font_mono42haa4_006c
                0x08154040      0x1ce fonts/hdudispfmono42haa4.o
                0x08154040                Abc_font_mono42haa4_006c
 *fill*         0x0815420e        0x2 
 .rodata.Abc_font_mono42haa4_006d
                0x08154210      0x1ce fonts/hdudispfmono42haa4.o
                0x08154210                Abc_font_mono42haa4_006d
 *fill*         0x081543de        0x2 
 .rodata.Abc_font_mono42haa4_006e
                0x081543e0      0x1ce fonts/hdudispfmono42haa4.o
                0x081543e0                Abc_font_mono42haa4_006e
 *fill*         0x081545ae        0x2 
 .rodata.Abc_font_mono42haa4_006f
                0x081545b0      0x1ce fonts/hdudispfmono42haa4.o
                0x081545b0                Abc_font_mono42haa4_006f
 *fill*         0x0815477e        0x2 
 .rodata.Abc_font_mono42haa4_0070
                0x08154780      0x1ce fonts/hdudispfmono42haa4.o
                0x08154780                Abc_font_mono42haa4_0070
 *fill*         0x0815494e        0x2 
 .rodata.Abc_font_mono42haa4_0071
                0x08154950      0x1ce fonts/hdudispfmono42haa4.o
                0x08154950                Abc_font_mono42haa4_0071
 *fill*         0x08154b1e        0x2 
 .rodata.Abc_font_mono42haa4_0072
                0x08154b20      0x1ce fonts/hdudispfmono42haa4.o
                0x08154b20                Abc_font_mono42haa4_0072
 *fill*         0x08154cee        0x2 
 .rodata.Abc_font_mono42haa4_0073
                0x08154cf0      0x1ce fonts/hdudispfmono42haa4.o
                0x08154cf0                Abc_font_mono42haa4_0073
 *fill*         0x08154ebe        0x2 
 .rodata.Abc_font_mono42haa4_0074
                0x08154ec0      0x1ce fonts/hdudispfmono42haa4.o
                0x08154ec0                Abc_font_mono42haa4_0074
 *fill*         0x0815508e        0x2 
 .rodata.Abc_font_mono42haa4_0075
                0x08155090      0x1ce fonts/hdudispfmono42haa4.o
                0x08155090                Abc_font_mono42haa4_0075
 *fill*         0x0815525e        0x2 
 .rodata.Abc_font_mono42haa4_0076
                0x08155260      0x1ce fonts/hdudispfmono42haa4.o
                0x08155260                Abc_font_mono42haa4_0076
 *fill*         0x0815542e        0x2 
 .rodata.Abc_font_mono42haa4_0077
                0x08155430      0x1ce fonts/hdudispfmono42haa4.o
                0x08155430                Abc_font_mono42haa4_0077
 *fill*         0x081555fe        0x2 
 .rodata.Abc_font_mono42haa4_0078
                0x08155600      0x1ce fonts/hdudispfmono42haa4.o
                0x08155600                Abc_font_mono42haa4_0078
 *fill*         0x081557ce        0x2 
 .rodata.Abc_font_mono42haa4_0079
                0x081557d0      0x1ce fonts/hdudispfmono42haa4.o
                0x081557d0                Abc_font_mono42haa4_0079
 *fill*         0x0815599e        0x2 
 .rodata.Abc_font_mono42haa4_007a
                0x081559a0      0x1ce fonts/hdudispfmono42haa4.o
                0x081559a0                Abc_font_mono42haa4_007a
 *fill*         0x08155b6e        0x2 
 .rodata.Abc_font_mono42haa4_007b
                0x08155b70      0x1ce fonts/hdudispfmono42haa4.o
                0x08155b70                Abc_font_mono42haa4_007b
 *fill*         0x08155d3e        0x2 
 .rodata.Abc_font_mono42haa4_007c
                0x08155d40      0x1ce fonts/hdudispfmono42haa4.o
                0x08155d40                Abc_font_mono42haa4_007c
 *fill*         0x08155f0e        0x2 
 .rodata.Abc_font_mono42haa4_007d
                0x08155f10      0x1ce fonts/hdudispfmono42haa4.o
                0x08155f10                Abc_font_mono42haa4_007d
 *fill*         0x081560de        0x2 
 .rodata.Abc_font_mono42haa4_007e
                0x081560e0      0x1ce fonts/hdudispfmono42haa4.o
                0x081560e0                Abc_font_mono42haa4_007e
 *fill*         0x081562ae        0x2 
 .rodata.Abc_font_mono42haa4_007f
                0x081562b0      0x1a4 fonts/hdudispfmono42haa4.o
                0x081562b0                Abc_font_mono42haa4_007f
 .rodata.Abc_font_mono42haa4_0090
                0x08156454      0x1ce fonts/hdudispfmono42haa4.o
                0x08156454                Abc_font_mono42haa4_0090
 *fill*         0x08156622        0x2 
 .rodata.Abc_font_mono42haa4_0091
                0x08156624      0x1ce fonts/hdudispfmono42haa4.o
                0x08156624                Abc_font_mono42haa4_0091
 *fill*         0x081567f2        0x2 
 .rodata.Abc_font_mono42haa4_0092
                0x081567f4      0x1ce fonts/hdudispfmono42haa4.o
                0x081567f4                Abc_font_mono42haa4_0092
 *fill*         0x081569c2        0x2 
 .rodata.Abc_font_mono42haa4_0093
                0x081569c4      0x1ce fonts/hdudispfmono42haa4.o
                0x081569c4                Abc_font_mono42haa4_0093
 *fill*         0x08156b92        0x2 
 .rodata.Abc_font_mono42haa4_0094
                0x08156b94      0x1ce fonts/hdudispfmono42haa4.o
                0x08156b94                Abc_font_mono42haa4_0094
 *fill*         0x08156d62        0x2 
 .rodata.Abc_font_mono42haa4_0095
                0x08156d64      0x1ce fonts/hdudispfmono42haa4.o
                0x08156d64                Abc_font_mono42haa4_0095
 *fill*         0x08156f32        0x2 
 .rodata.Abc_font_mono42haa4_0096
                0x08156f34      0x1ce fonts/hdudispfmono42haa4.o
                0x08156f34                Abc_font_mono42haa4_0096
 *fill*         0x08157102        0x2 
 .rodata.Abc_font_mono42haa4_0097
                0x08157104       0x7e fonts/hdudispfmono42haa4.o
                0x08157104                Abc_font_mono42haa4_0097
 *fill*         0x08157182        0x2 
 .rodata.Abc_font_mono42haa4_0098
                0x08157184       0x7e fonts/hdudispfmono42haa4.o
                0x08157184                Abc_font_mono42haa4_0098
 *fill*         0x08157202        0x2 
 .rodata.Abc_font_mono42haa4_0099
                0x08157204       0x54 fonts/hdudispfmono42haa4.o
                0x08157204                Abc_font_mono42haa4_0099
 .rodata.Abc_font_mono42haa4_009a
                0x08157258       0x54 fonts/hdudispfmono42haa4.o
                0x08157258                Abc_font_mono42haa4_009a
 .rodata.Abc_font_mono42haa4_009b
                0x081572ac       0x54 fonts/hdudispfmono42haa4.o
                0x081572ac                Abc_font_mono42haa4_009b
 .rodata.Abc_font_mono42haa4_009c
                0x08157300       0x54 fonts/hdudispfmono42haa4.o
                0x08157300                Abc_font_mono42haa4_009c
 .rodata.Abc_font_mono42haa4_009d
                0x08157354      0x1a4 fonts/hdudispfmono42haa4.o
                0x08157354                Abc_font_mono42haa4_009d
 .rodata.Abc_font_mono42haa4_009e
                0x081574f8       0x54 fonts/hdudispfmono42haa4.o
                0x081574f8                Abc_font_mono42haa4_009e
 .rodata.Abc_font_mono42haa4_009f
                0x0815754c       0x54 fonts/hdudispfmono42haa4.o
                0x0815754c                Abc_font_mono42haa4_009f
 .rodata.Abc_font_mono42haa4_00a0
                0x081575a0      0x1ce fonts/hdudispfmono42haa4.o
                0x081575a0                Abc_font_mono42haa4_00a0
 *fill*         0x0815776e        0x2 
 .rodata.Abc_font_mono42haa4_00a1
                0x08157770      0x1ce fonts/hdudispfmono42haa4.o
                0x08157770                Abc_font_mono42haa4_00a1
 *fill*         0x0815793e        0x2 
 .rodata.Abc_font_mono42haa4_00a2
                0x08157940      0x1ce fonts/hdudispfmono42haa4.o
                0x08157940                Abc_font_mono42haa4_00a2
 *fill*         0x08157b0e        0x2 
 .rodata.Abc_font_mono42haa4_00a3
                0x08157b10      0x1ce fonts/hdudispfmono42haa4.o
                0x08157b10                Abc_font_mono42haa4_00a3
 *fill*         0x08157cde        0x2 
 .rodata.Abc_font_mono42haa4_00a4
                0x08157ce0      0x1ce fonts/hdudispfmono42haa4.o
                0x08157ce0                Abc_font_mono42haa4_00a4
 *fill*         0x08157eae        0x2 
 .rodata.Abc_font_mono42haa4_00a5
                0x08157eb0      0x1ce fonts/hdudispfmono42haa4.o
                0x08157eb0                Abc_font_mono42haa4_00a5
 *fill*         0x0815807e        0x2 
 .rodata.Abc_font_mono42haa4_00a6
                0x08158080      0x1f8 fonts/hdudispfmono42haa4.o
                0x08158080                Abc_font_mono42haa4_00a6
 .rodata.Abc_font_mono42haa4_00a7
                0x08158278      0x1ce fonts/hdudispfmono42haa4.o
                0x08158278                Abc_font_mono42haa4_00a7
 *fill*         0x08158446        0x2 
 .rodata.Abc_font_mono42haa4_00a8
                0x08158448      0x1ce fonts/hdudispfmono42haa4.o
                0x08158448                Abc_font_mono42haa4_00a8
 *fill*         0x08158616        0x2 
 .rodata.Abc_font_mono42haa4_00a9
                0x08158618      0x1ce fonts/hdudispfmono42haa4.o
                0x08158618                Abc_font_mono42haa4_00a9
 *fill*         0x081587e6        0x2 
 .rodata.Abc_font_mono42haa4_00aa
                0x081587e8      0x1ce fonts/hdudispfmono42haa4.o
                0x081587e8                Abc_font_mono42haa4_00aa
 *fill*         0x081589b6        0x2 
 .rodata.Abc_font_mono42haa4_00ab
                0x081589b8      0x1ce fonts/hdudispfmono42haa4.o
                0x081589b8                Abc_font_mono42haa4_00ab
 *fill*         0x08158b86        0x2 
 .rodata.Abc_font_mono42haa4_00ac
                0x08158b88      0x1ce fonts/hdudispfmono42haa4.o
                0x08158b88                Abc_font_mono42haa4_00ac
 *fill*         0x08158d56        0x2 
 .rodata.Abc_font_mono42haa4_00ad
                0x08158d58      0x1ce fonts/hdudispfmono42haa4.o
                0x08158d58                Abc_font_mono42haa4_00ad
 *fill*         0x08158f26        0x2 
 .rodata.Abc_font_mono42haa4_00ae
                0x08158f28      0x1ce fonts/hdudispfmono42haa4.o
                0x08158f28                Abc_font_mono42haa4_00ae
 *fill*         0x081590f6        0x2 
 .rodata.Abc_font_mono42haa4_00af
                0x081590f8      0x1ce fonts/hdudispfmono42haa4.o
                0x081590f8                Abc_font_mono42haa4_00af
 *fill*         0x081592c6        0x2 
 .rodata.Abc_font_mono42haa4_00b0
                0x081592c8      0x1ce fonts/hdudispfmono42haa4.o
                0x081592c8                Abc_font_mono42haa4_00b0
 *fill*         0x08159496        0x2 
 .rodata.Abc_font_mono42haa4_00b1
                0x08159498      0x1ce fonts/hdudispfmono42haa4.o
                0x08159498                Abc_font_mono42haa4_00b1
 *fill*         0x08159666        0x2 
 .rodata.Abc_font_mono42haa4_00b2
                0x08159668      0x1ce fonts/hdudispfmono42haa4.o
                0x08159668                Abc_font_mono42haa4_00b2
 *fill*         0x08159836        0x2 
 .rodata.Abc_font_mono42haa4_00b3
                0x08159838      0x1ce fonts/hdudispfmono42haa4.o
                0x08159838                Abc_font_mono42haa4_00b3
 *fill*         0x08159a06        0x2 
 .rodata.Abc_font_mono42haa4_00b4
                0x08159a08      0x1ce fonts/hdudispfmono42haa4.o
                0x08159a08                Abc_font_mono42haa4_00b4
 *fill*         0x08159bd6        0x2 
 .rodata.Abc_font_mono42haa4_00b5
                0x08159bd8      0x1ce fonts/hdudispfmono42haa4.o
                0x08159bd8                Abc_font_mono42haa4_00b5
 *fill*         0x08159da6        0x2 
 .rodata.Abc_font_mono42haa4_00b6
                0x08159da8      0x1ce fonts/hdudispfmono42haa4.o
                0x08159da8                Abc_font_mono42haa4_00b6
 *fill*         0x08159f76        0x2 
 .rodata.Abc_font_mono42haa4_00b7
                0x08159f78      0x1ce fonts/hdudispfmono42haa4.o
                0x08159f78                Abc_font_mono42haa4_00b7
 *fill*         0x0815a146        0x2 
 .rodata.Abc_font_mono42haa4_00b8
                0x0815a148      0x1ce fonts/hdudispfmono42haa4.o
                0x0815a148                Abc_font_mono42haa4_00b8
 *fill*         0x0815a316        0x2 
 .rodata.Abc_font_mono42haa4_00b9
                0x0815a318      0x1ce fonts/hdudispfmono42haa4.o
                0x0815a318                Abc_font_mono42haa4_00b9
 *fill*         0x0815a4e6        0x2 
 .rodata.Abc_font_mono42haa4_00ba
                0x0815a4e8      0x1ce fonts/hdudispfmono42haa4.o
                0x0815a4e8                Abc_font_mono42haa4_00ba
 *fill*         0x0815a6b6        0x2 
 .rodata.Abc_font_mono42haa4_00bb
                0x0815a6b8      0x1ce fonts/hdudispfmono42haa4.o
                0x0815a6b8                Abc_font_mono42haa4_00bb
 *fill*         0x0815a886        0x2 
 .rodata.Abc_font_mono42haa4_00bc
                0x0815a888      0x1ce fonts/hdudispfmono42haa4.o
                0x0815a888                Abc_font_mono42haa4_00bc
 *fill*         0x0815aa56        0x2 
 .rodata.Abc_font_mono42haa4_00bd
                0x0815aa58      0x1ce fonts/hdudispfmono42haa4.o
                0x0815aa58                Abc_font_mono42haa4_00bd
 *fill*         0x0815ac26        0x2 
 .rodata.Abc_font_mono42haa4_00be
                0x0815ac28      0x1ce fonts/hdudispfmono42haa4.o
                0x0815ac28                Abc_font_mono42haa4_00be
 *fill*         0x0815adf6        0x2 
 .rodata.Abc_font_mono42haa4_00bf
                0x0815adf8      0x1ce fonts/hdudispfmono42haa4.o
                0x0815adf8                Abc_font_mono42haa4_00bf
 *fill*         0x0815afc6        0x2 
 .rodata.Abc_font_mono42haa4_00c0
                0x0815afc8      0x1ce fonts/hdudispfmono42haa4.o
                0x0815afc8                Abc_font_mono42haa4_00c0
 *fill*         0x0815b196        0x2 
 .rodata.Abc_font_mono42haa4_00c1
                0x0815b198      0x1ce fonts/hdudispfmono42haa4.o
                0x0815b198                Abc_font_mono42haa4_00c1
 *fill*         0x0815b366        0x2 
 .rodata.Abc_font_mono42haa4_00c2
                0x0815b368      0x1ce fonts/hdudispfmono42haa4.o
                0x0815b368                Abc_font_mono42haa4_00c2
 *fill*         0x0815b536        0x2 
 .rodata.Abc_font_mono42haa4_00c3
                0x0815b538      0x1ce fonts/hdudispfmono42haa4.o
                0x0815b538                Abc_font_mono42haa4_00c3
 *fill*         0x0815b706        0x2 
 .rodata.Abc_font_mono42haa4_00c4
                0x0815b708      0x1ce fonts/hdudispfmono42haa4.o
                0x0815b708                Abc_font_mono42haa4_00c4
 *fill*         0x0815b8d6        0x2 
 .rodata.Abc_font_mono42haa4_00c5
                0x0815b8d8      0x1ce fonts/hdudispfmono42haa4.o
                0x0815b8d8                Abc_font_mono42haa4_00c5
 *fill*         0x0815baa6        0x2 
 .rodata.Abc_font_mono42haa4_00c6
                0x0815baa8      0x1ce fonts/hdudispfmono42haa4.o
                0x0815baa8                Abc_font_mono42haa4_00c6
 *fill*         0x0815bc76        0x2 
 .rodata.Abc_font_mono42haa4_00c7
                0x0815bc78      0x1ce fonts/hdudispfmono42haa4.o
                0x0815bc78                Abc_font_mono42haa4_00c7
 *fill*         0x0815be46        0x2 
 .rodata.Abc_font_mono42haa4_00c8
                0x0815be48      0x1ce fonts/hdudispfmono42haa4.o
                0x0815be48                Abc_font_mono42haa4_00c8
 *fill*         0x0815c016        0x2 
 .rodata.Abc_font_mono42haa4_00c9
                0x0815c018      0x1ce fonts/hdudispfmono42haa4.o
                0x0815c018                Abc_font_mono42haa4_00c9
 *fill*         0x0815c1e6        0x2 
 .rodata.Abc_font_mono42haa4_00ca
                0x0815c1e8      0x1ce fonts/hdudispfmono42haa4.o
                0x0815c1e8                Abc_font_mono42haa4_00ca
 *fill*         0x0815c3b6        0x2 
 .rodata.Abc_font_mono42haa4_00cb
                0x0815c3b8      0x1ce fonts/hdudispfmono42haa4.o
                0x0815c3b8                Abc_font_mono42haa4_00cb
 *fill*         0x0815c586        0x2 
 .rodata.Abc_font_mono42haa4_00cc
                0x0815c588      0x1ce fonts/hdudispfmono42haa4.o
                0x0815c588                Abc_font_mono42haa4_00cc
 *fill*         0x0815c756        0x2 
 .rodata.Abc_font_mono42haa4_00cd
                0x0815c758      0x1ce fonts/hdudispfmono42haa4.o
                0x0815c758                Abc_font_mono42haa4_00cd
 *fill*         0x0815c926        0x2 
 .rodata.Abc_font_mono42haa4_00ce
                0x0815c928      0x1ce fonts/hdudispfmono42haa4.o
                0x0815c928                Abc_font_mono42haa4_00ce
 *fill*         0x0815caf6        0x2 
 .rodata.Abc_font_mono42haa4_00cf
                0x0815caf8      0x1ce fonts/hdudispfmono42haa4.o
                0x0815caf8                Abc_font_mono42haa4_00cf
 *fill*         0x0815ccc6        0x2 
 .rodata.Abc_font_mono42haa4_00d0
                0x0815ccc8      0x1ce fonts/hdudispfmono42haa4.o
                0x0815ccc8                Abc_font_mono42haa4_00d0
 *fill*         0x0815ce96        0x2 
 .rodata.Abc_font_mono42haa4_00d1
                0x0815ce98      0x1ce fonts/hdudispfmono42haa4.o
                0x0815ce98                Abc_font_mono42haa4_00d1
 *fill*         0x0815d066        0x2 
 .rodata.Abc_font_mono42haa4_00d2
                0x0815d068      0x1ce fonts/hdudispfmono42haa4.o
                0x0815d068                Abc_font_mono42haa4_00d2
 *fill*         0x0815d236        0x2 
 .rodata.Abc_font_mono42haa4_00d3
                0x0815d238      0x1ce fonts/hdudispfmono42haa4.o
                0x0815d238                Abc_font_mono42haa4_00d3
 *fill*         0x0815d406        0x2 
 .rodata.Abc_font_mono42haa4_00d4
                0x0815d408      0x1ce fonts/hdudispfmono42haa4.o
                0x0815d408                Abc_font_mono42haa4_00d4
 *fill*         0x0815d5d6        0x2 
 .rodata.Abc_font_mono42haa4_00d5
                0x0815d5d8      0x1ce fonts/hdudispfmono42haa4.o
                0x0815d5d8                Abc_font_mono42haa4_00d5
 *fill*         0x0815d7a6        0x2 
 .rodata.Abc_font_mono42haa4_00d6
                0x0815d7a8      0x1ce fonts/hdudispfmono42haa4.o
                0x0815d7a8                Abc_font_mono42haa4_00d6
 *fill*         0x0815d976        0x2 
 .rodata.Abc_font_mono42haa4_00d7
                0x0815d978      0x1ce fonts/hdudispfmono42haa4.o
                0x0815d978                Abc_font_mono42haa4_00d7
 *fill*         0x0815db46        0x2 
 .rodata.Abc_font_mono42haa4_00d8
                0x0815db48      0x1ce fonts/hdudispfmono42haa4.o
                0x0815db48                Abc_font_mono42haa4_00d8
 *fill*         0x0815dd16        0x2 
 .rodata.Abc_font_mono42haa4_00d9
                0x0815dd18      0x1e3 fonts/hdudispfmono42haa4.o
                0x0815dd18                Abc_font_mono42haa4_00d9
 *fill*         0x0815defb        0x1 
 .rodata.Abc_font_mono42haa4_00da
                0x0815defc      0x1ce fonts/hdudispfmono42haa4.o
                0x0815defc                Abc_font_mono42haa4_00da
 *fill*         0x0815e0ca        0x2 
 .rodata.Abc_font_mono42haa4_00db
                0x0815e0cc      0x1ce fonts/hdudispfmono42haa4.o
                0x0815e0cc                Abc_font_mono42haa4_00db
 *fill*         0x0815e29a        0x2 
 .rodata.Abc_font_mono42haa4_00dc
                0x0815e29c      0x1ce fonts/hdudispfmono42haa4.o
                0x0815e29c                Abc_font_mono42haa4_00dc
 *fill*         0x0815e46a        0x2 
 .rodata.Abc_font_mono42haa4_00dd
                0x0815e46c      0x1ce fonts/hdudispfmono42haa4.o
                0x0815e46c                Abc_font_mono42haa4_00dd
 *fill*         0x0815e63a        0x2 
 .rodata.Abc_font_mono42haa4_00de
                0x0815e63c      0x1ce fonts/hdudispfmono42haa4.o
                0x0815e63c                Abc_font_mono42haa4_00de
 *fill*         0x0815e80a        0x2 
 .rodata.Abc_font_mono42haa4_00df
                0x0815e80c      0x1ce fonts/hdudispfmono42haa4.o
                0x0815e80c                Abc_font_mono42haa4_00df
 *fill*         0x0815e9da        0x2 
 .rodata.Abc_font_mono42haa4_00e0
                0x0815e9dc      0x1ce fonts/hdudispfmono42haa4.o
                0x0815e9dc                Abc_font_mono42haa4_00e0
 *fill*         0x0815ebaa        0x2 
 .rodata.Abc_font_mono42haa4_00e1
                0x0815ebac      0x1ce fonts/hdudispfmono42haa4.o
                0x0815ebac                Abc_font_mono42haa4_00e1
 *fill*         0x0815ed7a        0x2 
 .rodata.Abc_font_mono42haa4_00e2
                0x0815ed7c      0x1ce fonts/hdudispfmono42haa4.o
                0x0815ed7c                Abc_font_mono42haa4_00e2
 *fill*         0x0815ef4a        0x2 
 .rodata.Abc_font_mono42haa4_00e3
                0x0815ef4c      0x1ce fonts/hdudispfmono42haa4.o
                0x0815ef4c                Abc_font_mono42haa4_00e3
 *fill*         0x0815f11a        0x2 
 .rodata.Abc_font_mono42haa4_00e4
                0x0815f11c      0x1ce fonts/hdudispfmono42haa4.o
                0x0815f11c                Abc_font_mono42haa4_00e4
 *fill*         0x0815f2ea        0x2 
 .rodata.Abc_font_mono42haa4_00e5
                0x0815f2ec      0x1ce fonts/hdudispfmono42haa4.o
                0x0815f2ec                Abc_font_mono42haa4_00e5
 *fill*         0x0815f4ba        0x2 
 .rodata.Abc_font_mono42haa4_00e6
                0x0815f4bc      0x1ce fonts/hdudispfmono42haa4.o
                0x0815f4bc                Abc_font_mono42haa4_00e6
 *fill*         0x0815f68a        0x2 
 .rodata.Abc_font_mono42haa4_00e7
                0x0815f68c      0x1ce fonts/hdudispfmono42haa4.o
                0x0815f68c                Abc_font_mono42haa4_00e7
 *fill*         0x0815f85a        0x2 
 .rodata.Abc_font_mono42haa4_00e8
                0x0815f85c      0x1ce fonts/hdudispfmono42haa4.o
                0x0815f85c                Abc_font_mono42haa4_00e8
 *fill*         0x0815fa2a        0x2 
 .rodata.Abc_font_mono42haa4_00e9
                0x0815fa2c      0x1ce fonts/hdudispfmono42haa4.o
                0x0815fa2c                Abc_font_mono42haa4_00e9
 *fill*         0x0815fbfa        0x2 
 .rodata.Abc_font_mono42haa4_00ea
                0x0815fbfc      0x1ce fonts/hdudispfmono42haa4.o
                0x0815fbfc                Abc_font_mono42haa4_00ea
 *fill*         0x0815fdca        0x2 
 .rodata.Abc_font_mono42haa4_00eb
                0x0815fdcc      0x1ce fonts/hdudispfmono42haa4.o
                0x0815fdcc                Abc_font_mono42haa4_00eb
 *fill*         0x0815ff9a        0x2 
 .rodata.Abc_font_mono42haa4_00ec
                0x0815ff9c      0x1ce fonts/hdudispfmono42haa4.o
                0x0815ff9c                Abc_font_mono42haa4_00ec
 *fill*         0x0816016a        0x2 
 .rodata.Abc_font_mono42haa4_00ed
                0x0816016c      0x1ce fonts/hdudispfmono42haa4.o
                0x0816016c                Abc_font_mono42haa4_00ed
 *fill*         0x0816033a        0x2 
 .rodata.Abc_font_mono42haa4_00ee
                0x0816033c      0x1ce fonts/hdudispfmono42haa4.o
                0x0816033c                Abc_font_mono42haa4_00ee
 *fill*         0x0816050a        0x2 
 .rodata.Abc_font_mono42haa4_00ef
                0x0816050c      0x1ce fonts/hdudispfmono42haa4.o
                0x0816050c                Abc_font_mono42haa4_00ef
 *fill*         0x081606da        0x2 
 .rodata.Abc_font_mono42haa4_00f0
                0x081606dc      0x1ce fonts/hdudispfmono42haa4.o
                0x081606dc                Abc_font_mono42haa4_00f0
 *fill*         0x081608aa        0x2 
 .rodata.Abc_font_mono42haa4_00f1
                0x081608ac      0x1ce fonts/hdudispfmono42haa4.o
                0x081608ac                Abc_font_mono42haa4_00f1
 *fill*         0x08160a7a        0x2 
 .rodata.Abc_font_mono42haa4_00f2
                0x08160a7c      0x1ce fonts/hdudispfmono42haa4.o
                0x08160a7c                Abc_font_mono42haa4_00f2
 *fill*         0x08160c4a        0x2 
 .rodata.Abc_font_mono42haa4_00f3
                0x08160c4c      0x1ce fonts/hdudispfmono42haa4.o
                0x08160c4c                Abc_font_mono42haa4_00f3
 *fill*         0x08160e1a        0x2 
 .rodata.Abc_font_mono42haa4_00f4
                0x08160e1c      0x1ce fonts/hdudispfmono42haa4.o
                0x08160e1c                Abc_font_mono42haa4_00f4
 *fill*         0x08160fea        0x2 
 .rodata.Abc_font_mono42haa4_00f5
                0x08160fec      0x1ce fonts/hdudispfmono42haa4.o
                0x08160fec                Abc_font_mono42haa4_00f5
 *fill*         0x081611ba        0x2 
 .rodata.Abc_font_mono42haa4_00f6
                0x081611bc      0x1ce fonts/hdudispfmono42haa4.o
                0x081611bc                Abc_font_mono42haa4_00f6
 *fill*         0x0816138a        0x2 
 .rodata.Abc_font_mono42haa4_00f7
                0x0816138c      0x1ce fonts/hdudispfmono42haa4.o
                0x0816138c                Abc_font_mono42haa4_00f7
 *fill*         0x0816155a        0x2 
 .rodata.Abc_font_mono42haa4_00f8
                0x0816155c      0x1ce fonts/hdudispfmono42haa4.o
                0x0816155c                Abc_font_mono42haa4_00f8
 *fill*         0x0816172a        0x2 
 .rodata.Abc_font_mono42haa4_00f9
                0x0816172c      0x1ce fonts/hdudispfmono42haa4.o
                0x0816172c                Abc_font_mono42haa4_00f9
 *fill*         0x081618fa        0x2 
 .rodata.Abc_font_mono42haa4_00fa
                0x081618fc      0x1ce fonts/hdudispfmono42haa4.o
                0x081618fc                Abc_font_mono42haa4_00fa
 *fill*         0x08161aca        0x2 
 .rodata.Abc_font_mono42haa4_00fb
                0x08161acc      0x1ce fonts/hdudispfmono42haa4.o
                0x08161acc                Abc_font_mono42haa4_00fb
 *fill*         0x08161c9a        0x2 
 .rodata.Abc_font_mono42haa4_00fc
                0x08161c9c      0x1ce fonts/hdudispfmono42haa4.o
                0x08161c9c                Abc_font_mono42haa4_00fc
 *fill*         0x08161e6a        0x2 
 .rodata.Abc_font_mono42haa4_00fd
                0x08161e6c      0x1ce fonts/hdudispfmono42haa4.o
                0x08161e6c                Abc_font_mono42haa4_00fd
 *fill*         0x0816203a        0x2 
 .rodata.Abc_font_mono42haa4_00fe
                0x0816203c      0x1ce fonts/hdudispfmono42haa4.o
                0x0816203c                Abc_font_mono42haa4_00fe
 *fill*         0x0816220a        0x2 
 .rodata.Abc_font_mono42haa4_00ff
                0x0816220c      0x348 fonts/hdudispfmono42haa4.o
                0x0816220c                Abc_font_mono42haa4_00ff
 .rodata.Font_mono42haa4_char_info
                0x08162554      0x700 fonts/hdudispfmono42haa4.o
                0x08162554                Font_mono42haa4_char_info
 .rodata.Font_mono42haa4_prop2
                0x08162c54        0xc fonts/hdudispfmono42haa4.o
                0x08162c54                Font_mono42haa4_prop2
 .rodata.Font_mono42haa4_prop1
                0x08162c60        0xc fonts/hdudispfmono42haa4.o
                0x08162c60                Font_mono42haa4_prop1
 .rodata.Font_large
                0x08162c6c       0x10 fonts/hdudispfmono42haa4.o
                0x08162c6c                Font_large
 .rodata.Os_map_tbl
                0x08162c7c        0x8 D:\Work\Howell\MD\S17HOWDSPSW\ACCORD\Trunk\SourceCode\DisplayBoard\UCOS\Release\libUCOS.a(hdudispfucos.o)
 .rodata.Os_un_map_tbl
                0x08162c84      0x100 D:\Work\Howell\MD\S17HOWDSPSW\ACCORD\Trunk\SourceCode\DisplayBoard\UCOS\Release\libUCOS.a(hdudispfucos.o)
                0x08162c84                Os_un_map_tbl
 .rodata.U32_clear_data
                0x08162d84     0x9c40 D:\Work\Howell\MD\S17HOWDSPSW\ACCORD\Trunk\SourceCode\DisplayBoard\COMMON\Release\libCOMMON.a(hdudispfdma2.o)
 .rodata.flag_bit_shift_offset.5471
                0x0816c9c4        0x8 D:\Work\Howell\MD\S17HOWDSPSW\ACCORD\Trunk\SourceCode\DisplayBoard\HAL_Driver\Release\libHAL_Driver.a(hdulibstm32f7xxhaldma.o)
 .rodata.Ahb_presc_table
                0x0816c9cc       0x10 D:\Work\Howell\MD\S17HOWDSPSW\ACCORD\Trunk\SourceCode\DisplayBoard\HAL_Driver\Release\libHAL_Driver.a(hdulibsystemstm32f7xx.o)
                0x0816c9cc                Ahb_presc_table
 .rodata.Sin_table_q15
                0x0816c9dc      0x402 D:\Work\Howell\MD\S17HOWDSPSW\ACCORD\Trunk\SourceCode\DisplayBoard\WIDGETS\Release\libWIDGETS.a(hdudispfbfarmcommontables.o)
                0x0816c9dc                Sin_table_q15
 *fill*         0x0816cdde        0x2 
 .rodata._global_impure_ptr
                0x0816cde0        0x4 c:/ac6/systemworkbench/plugins/fr.ac6.mcu.externaltools.arm-none.win32_1.13.2.201705091103/tools/compiler/bin/../lib/gcc/arm-none-eabi/5.4.1/../../../../arm-none-eabi/lib/armv7e-m/fpu/fpv5-sp-d16\libc.a(lib_a-impure.o)
                0x0816cde0                _global_impure_ptr
                0x0816cde4                . = ALIGN (0x4)
                0x0816cde4                _erodata = .

.rel.dyn        0x0816cde4        0x0
 .rel.iplt      0x0816cde4        0x0 c:/ac6/systemworkbench/plugins/fr.ac6.mcu.externaltools.arm-none.win32_1.13.2.201705091103/tools/compiler/bin/../lib/gcc/arm-none-eabi/5.4.1/armv7e-m/fpu/fpv5-sp-d16/crtbegin.o

.ARM.extab      0x0816cde4        0x0
                0x0816cde4                . = ALIGN (0x4)
 *(.ARM.extab* .gnu.linkonce.armextab.*)
                0x0816cde4                . = ALIGN (0x4)

.ARM            0x0816cde4        0x0
                0x0816cde4                . = ALIGN (0x4)
                0x0816cde4                __exidx_start = .
 *(.ARM.exidx*)
                0x0816cde4                __exidx_end = .
                0x0816cde4                . = ALIGN (0x4)

.preinit_array  0x0816cde4        0x0
                0x0816cde4                . = ALIGN (0x4)
                0x0816cde4                PROVIDE (__preinit_array_start, .)
 *(.preinit_array*)
                0x0816cde4                PROVIDE (__preinit_array_end, .)
                0x0816cde4                . = ALIGN (0x4)

.init_array     0x0816cde4        0x8
                0x0816cde4                . = ALIGN (0x4)
                0x0816cde4                PROVIDE (__init_array_start, .)
 *(SORT(.init_array.*))
 .init_array.00000
                0x0816cde4        0x4 c:/ac6/systemworkbench/plugins/fr.ac6.mcu.externaltools.arm-none.win32_1.13.2.201705091103/tools/compiler/bin/../lib/gcc/arm-none-eabi/5.4.1/../../../../arm-none-eabi/lib/armv7e-m/fpu/fpv5-sp-d16\libc.a(lib_a-__call_atexit.o)
 *(.init_array*)
 .init_array    0x0816cde8        0x4 c:/ac6/systemworkbench/plugins/fr.ac6.mcu.externaltools.arm-none.win32_1.13.2.201705091103/tools/compiler/bin/../lib/gcc/arm-none-eabi/5.4.1/armv7e-m/fpu/fpv5-sp-d16/crtbegin.o
                0x0816cdec                PROVIDE (__init_array_end, .)
                0x0816cdec                . = ALIGN (0x4)

.fini_array     0x0816cdec        0x4
                0x0816cdec                . = ALIGN (0x4)
                0x0816cdec                PROVIDE (__fini_array_start, .)
 *(SORT(.fini_array.*))
 *(.fini_array*)
 .fini_array    0x0816cdec        0x4 c:/ac6/systemworkbench/plugins/fr.ac6.mcu.externaltools.arm-none.win32_1.13.2.201705091103/tools/compiler/bin/../lib/gcc/arm-none-eabi/5.4.1/armv7e-m/fpu/fpv5-sp-d16/crtbegin.o
                0x0816cdf0                PROVIDE (__fini_array_end, .)
                0x0816cdf0                . = ALIGN (0x4)
                0x0816cdf0                _sidata = LOADADDR (.data)

.data           0x20000000    0x119d8 load address 0x0816cdf0
                0x20000000                . = ALIGN (0x4)
                0x20000000                _sdata = .
 *(.data)
 *(.data*)
 .data.Switch_mask
                0x20000000        0x2 BSP/hdudispfpbs.o
 .data.first_press.6990
                0x20000002        0x1 BSP/hdudispfpbs.o
 .data.first_in.6991
                0x20000003        0x1 BSP/hdudispfpbs.o
 .data.S32_present_pcnt1
                0x20000004        0x4 BSP/hdudispfpwm.o
 .data.Photo_adc
                0x20000008       0x10 BSP/hdudispfpwm.o
 .data.Photo_read
                0x20000018        0xc BSP/hdudispfpwm.o
 .data.s32_target_pcnt.7975
                0x20000024        0x4 BSP/hdudispfpwm.o
 .data.A825_comm1_task_stk
                0x20000028     0x1000 Shared/hdudispfa825comm1.o
                0x20000028                A825_comm1_task_stk
 .data.A825_comm2_task_stk
                0x20001028     0x1000 Shared/hdudispfa825comm2.o
                0x20001028                A825_comm2_task_stk
 .data.Noc_tx_queue
                0x20002028      0xd2c Shared/hdudispfarinc825perph1.o
 .data.Nsc_tx_queue
                0x20002d54      0xd2c Shared/hdudispfarinc825perph1.o
 .data.Noc_rx_queue
                0x20003a80     0x168c Shared/hdudispfarinc825perph1.o
 .data.Nsc_rx_queue
                0x2000510c     0x168c Shared/hdudispfarinc825perph1.o
 .data.Noc_tx_queue
                0x20006798      0xd2c Shared/hdudispfarinc825perph2.o
 .data.Nsc_tx_queue
                0x200074c4      0xd2c Shared/hdudispfarinc825perph2.o
 .data.Noc_rx_queue
                0x200081f0     0x168c Shared/hdudispfarinc825perph2.o
 .data.Nsc_rx_queue
                0x2000987c     0x168c Shared/hdudispfarinc825perph2.o
 .data.Appdata_appdata
                0x2000af08        0x4 Shared/hdudispfpanel.o
                0x2000af08                Appdata_appdata
 .data.Vp_fgfb2
                0x2000af0c        0x4 Shared/hdudispfpanel.o
                0x2000af0c                Vp_fgfb2
 .data.Back_light
                0x2000af10        0x1 Shared/hdudispfpanel.o
                0x2000af10                Back_light
 *fill*         0x2000af11        0x3 
 .data.App_task_stk
                0x2000af14     0x1000 app/hdudispfapp.o
                0x2000af14                App_task_stk
 .data.hb_prev_missing.8377
                0x2000bf14        0x1 app/hdudispfapp.o
 *fill*         0x2000bf15        0x3 
 .data.u32_time.7911
                0x2000bf18        0x4 app/hdudispfdemo.o
 .data.firstin.7932
                0x2000bf1c        0x1 app/hdudispfdemo.o
 *fill*         0x2000bf1d        0x3 
 .data.Cool_text
                0x2000bf20        0x9 app/hdudispfgrapp.o
 *fill*         0x2000bf29        0x3 
 .data.Prim_cool_down_pop_up_box
                0x2000bf2c       0x24 app/hdudispfgrapp.o
                0x2000bf2c                Prim_cool_down_pop_up_box
 .data.Parameters
                0x2000bf50     0x1000 app/hdudispfgrapp.o
                0x2000bf50                Parameters
 .data.Parameters_numbox
                0x2000cf50     0x1000 app/hdudispfgrapp.o
                0x2000cf50                Parameters_numbox
 .data.Scu_parameters
                0x2000df50       0x30 app/hdudispfgrapp.o
                0x2000df50                Scu_parameters
 .data.U8_circle
                0x2000df80        0x2 app/hdudispfgrapp.o
                0x2000df80                U8_circle
 .data.Page_num
                0x2000df82        0x1 app/hdudispfgrapp.o
                0x2000df82                Page_num
 .data.Splash_b1_press
                0x2000df83        0x1 app/hdudispfgrapp.o
                0x2000df83                Splash_b1_press
 .data.Parameters_reading
                0x2000df84     0x1000 app/hdudispfgrapp.o
                0x2000df84                Parameters_reading
 .data.param_message.8276
                0x2000ef84       0x13 app/hdudispfgrapp.o
 *fill*         0x2000ef97        0x1 
 .data.param_message1.8277
                0x2000ef98       0x1b app/hdudispfgrapp.o
 .data.firstin_demo_mode.8272
                0x2000efb3        0x1 app/hdudispfgrapp.o
 .data.Menu_text
                0x2000efb4        0x5 app/hdudispfmenu.o
                0x2000efb4                Menu_text
 *fill*         0x2000efb9        0x3 
 .data.Page_text
                0x2000efbc        0x5 app/hdudispfmenu.o
                0x2000efbc                Page_text
 *fill*         0x2000efc1        0x3 
 .data.Msgs_text
                0x2000efc4        0x9 app/hdudispfmenu.o
                0x2000efc4                Msgs_text
 *fill*         0x2000efcd        0x3 
 .data.Cool_down_timer_text
                0x2000efd0        0xe app/hdudispfmenu.o
                0x2000efd0                Cool_down_timer_text
 *fill*         0x2000efde        0x2 
 .data.Fuel_flow_text
                0x2000efe0        0x9 app/hdudispfmenu.o
                0x2000efe0                Fuel_flow_text
 *fill*         0x2000efe9        0x3 
 .data.Sys_info_text
                0x2000efec        0x9 app/hdudispfmenu.o
                0x2000efec                Sys_info_text
 *fill*         0x2000eff5        0x3 
 .data.Exit_text
                0x2000eff8        0x5 app/hdudispfmenu.o
                0x2000eff8                Exit_text
 *fill*         0x2000effd        0x3 
 .data.Back_text
                0x2000f000        0x5 app/hdudispfmenu.o
                0x2000f000                Back_text
 *fill*         0x2000f005        0x3 
 .data.Scroll_text
                0x2000f008        0x6 app/hdudispfmenu.o
                0x2000f008                Scroll_text
 *fill*         0x2000f00e        0x2 
 .data.On_text  0x2000f010        0x3 app/hdudispfmenu.o
                0x2000f010                On_text
 *fill*         0x2000f013        0x1 
 .data.Off_text
                0x2000f014        0x4 app/hdudispfmenu.o
                0x2000f014                Off_text
 .data.Stop_text
                0x2000f018        0x5 app/hdudispfmenu.o
                0x2000f018                Stop_text
 *fill*         0x2000f01d        0x3 
 .data.Strt_text
                0x2000f020        0x5 app/hdudispfmenu.o
                0x2000f020                Strt_text
 *fill*         0x2000f025        0x3 
 .data.Rst_text
                0x2000f028        0x4 app/hdudispfmenu.o
                0x2000f028                Rst_text
 .data.Err_text
                0x2000f02c        0x4 app/hdudispfmenu.o
                0x2000f02c                Err_text
 .data.Rev_text
                0x2000f030        0x4 app/hdudispfmenu.o
                0x2000f030                Rev_text
 .data.Msg_text
                0x2000f034        0x4 app/hdudispfmenu.o
                0x2000f034                Msg_text
 .data.Eiu1_text
                0x2000f038        0x5 app/hdudispfmenu.o
                0x2000f038                Eiu1_text
 *fill*         0x2000f03d        0x3 
 .data.Eiu2_text
                0x2000f040        0x5 app/hdudispfmenu.o
                0x2000f040                Eiu2_text
 *fill*         0x2000f045        0x3 
 .data.Tmr_text
                0x2000f048        0x4 app/hdudispfmenu.o
                0x2000f048                Tmr_text
 .data.Min_text
                0x2000f04c        0x4 app/hdudispfmenu.o
                0x2000f04c                Min_text
 .data.Max_text
                0x2000f050        0x4 app/hdudispfmenu.o
                0x2000f050                Max_text
 .data.Brt_aut_text
                0x2000f054        0x8 app/hdudispfmenu.o
                0x2000f054                Brt_aut_text
 .data.Brt_man_text
                0x2000f05c        0x8 app/hdudispfmenu.o
                0x2000f05c                Brt_man_text
 .data.Brt_minus_text
                0x2000f064        0x2 app/hdudispfmenu.o
                0x2000f064                Brt_minus_text
 *fill*         0x2000f066        0x2 
 .data.Brt_plus_text
                0x2000f068        0x2 app/hdudispfmenu.o
                0x2000f068                Brt_plus_text
 *fill*         0x2000f06a        0x2 
 .data.Menu_up  0x2000f06c        0x2 app/hdudispfmenu.o
                0x2000f06c                Menu_up
 *fill*         0x2000f06e        0x2 
 .data.Menu_down
                0x2000f070        0x5 app/hdudispfmenu.o
                0x2000f070                Menu_down
 *fill*         0x2000f075        0x3 
 .data.Set_text
                0x2000f078        0x8 app/hdudispfmenu.o
                0x2000f078                Set_text
 .data.Engine_text
                0x2000f080        0x7 app/hdudispfmenu.o
                0x2000f080                Engine_text
 *fill*         0x2000f087        0x1 
 .data.Engine_calibration_text
                0x2000f088        0x8 app/hdudispfmenu.o
                0x2000f088                Engine_calibration_text
 .data.Offset_text
                0x2000f090        0x6 app/hdudispfmenu.o
                0x2000f090                Offset_text
 *fill*         0x2000f096        0x2 
 .data.Gain_text
                0x2000f098        0xd app/hdudispfmenu.o
                0x2000f098                Gain_text
 *fill*         0x2000f0a5        0x3 
 .data.Invalid_screen_number_text
                0x2000f0a8       0x16 app/hdudispfmenu.o
                0x2000f0a8                Invalid_screen_number_text
 *fill*         0x2000f0be        0x2 
 .data.Next_text
                0x2000f0c0        0x5 app/hdudispfmenu.o
                0x2000f0c0                Next_text
 *fill*         0x2000f0c5        0x3 
 .data.Ff_text  0x2000f0c8        0xc app/hdudispfmenu.o
                0x2000f0c8                Ff_text
 .data.S16_menu_stack_pointer
                0x2000f0d4        0x2 app/hdudispfmenu.o
 *fill*         0x2000f0d6        0x2 
 .data.Encoder_cool_down_text
                0x2000f0d8       0x14 app/hdudispfmenu.o
                0x2000f0d8                Encoder_cool_down_text
 .data.Encoder_fuel_flow_text
                0x2000f0ec       0x1c app/hdudispfmenu.o
                0x2000f0ec                Encoder_fuel_flow_text
 .data.Encoder_menu_text
                0x2000f108       0x21 app/hdudispfmenu.o
                0x2000f108                Encoder_menu_text
 *fill*         0x2000f129        0x3 
 .data.Encoder_menu_text_ff
                0x2000f12c       0x2c app/hdudispfmenu.o
                0x2000f12c                Encoder_menu_text_ff
 .data.Menu_text_10inch
                0x2000f158       0x1d app/hdudispfmenu.o
                0x2000f158                Menu_text_10inch
 *fill*         0x2000f175        0x3 
 .data.Calibration_text_10inch
                0x2000f178       0x1b app/hdudispfmenu.o
                0x2000f178                Calibration_text_10inch
 *fill*         0x2000f193        0x1 
 .data.Offsetgain_text
                0x2000f194       0x14 app/hdudispfmenu.o
                0x2000f194                Offsetgain_text
 .data.All_menu_items
                0x2000f1a8       0x94 app/hdudispfmenu.o
                0x2000f1a8                All_menu_items
 .data.Timer_menu
                0x2000f23c       0x24 app/hdudispfmenu.o
                0x2000f23c                Timer_menu
 .data.Page_menu
                0x2000f260       0x14 app/hdudispfmenu.o
                0x2000f260                Page_menu
 .data.Page_menu_1
                0x2000f274       0x10 app/hdudispfmenu.o
                0x2000f274                Page_menu_1
 .data.Page_menu_10inch
                0x2000f284       0x1c app/hdudispfmenu.o
                0x2000f284                Page_menu_10inch
 .data.Page_menu_10inch_1
                0x2000f2a0       0x18 app/hdudispfmenu.o
                0x2000f2a0                Page_menu_10inch_1
 .data.Menu_menu
                0x2000f2b8       0x14 app/hdudispfmenu.o
                0x2000f2b8                Menu_menu
 .data.Menu_menu_10inch
                0x2000f2cc       0x1c app/hdudispfmenu.o
                0x2000f2cc                Menu_menu_10inch
 .data.Msg_menu
                0x2000f2e8       0x18 app/hdudispfmenu.o
                0x2000f2e8                Msg_menu
 .data.Cool_down_menu
                0x2000f300       0x18 app/hdudispfmenu.o
                0x2000f300                Cool_down_menu
 .data.Calibration_menu
                0x2000f318       0x20 app/hdudispfmenu.o
                0x2000f318                Calibration_menu
 .data.Engine_calibration
                0x2000f338       0x20 app/hdudispfmenu.o
                0x2000f338                Engine_calibration
 .data.Offset_value_menu
                0x2000f358       0x24 app/hdudispfmenu.o
                0x2000f358                Offset_value_menu
 .data.Gain_value_menu
                0x2000f37c       0x24 app/hdudispfmenu.o
                0x2000f37c                Gain_value_menu
 .data.Fuel_flow
                0x2000f3a0       0x1c app/hdudispfmenu.o
                0x2000f3a0                Fuel_flow
 .data.Sys_info_menu
                0x2000f3bc       0x1c app/hdudispfmenu.o
                0x2000f3bc                Sys_info_menu
 .data.Sys_info_menu_10inch
                0x2000f3d8       0x20 app/hdudispfmenu.o
                0x2000f3d8                Sys_info_menu_10inch
 .data.Brightness_menu
                0x2000f3f8       0x18 app/hdudispfmenu.o
                0x2000f3f8                Brightness_menu
 .data.Toggle_screen
                0x2000f410        0x1 app/hdudispfmenu.o
                0x2000f410                Toggle_screen
 .data.Page_number
                0x2000f411        0x1 app/hdudispfmenu.o
                0x2000f411                Page_number
 .data.s8_max_min_timer.8386
                0x2000f412        0x1 app/hdudispfmenu.o
 .data.s8_max_min_timer.8394
                0x2000f413        0x1 app/hdudispfmenu.o
 .data.Label_size
                0x2000f414        0x1 app/hdudispfpdicheck.o
                0x2000f414                Label_size
 *fill*         0x2000f415        0x3 
 .data.Error_msg_string
                0x2000f418       0xc8 app/hdudispfpdicheck.o
                0x2000f418                Error_msg_string
 .data.u16_ctr.7483
                0x2000f4e0        0x2 app/hdudispftbase.o
 *fill*         0x2000f4e2        0x2 
 .data.Cbit_task_stack
                0x2000f4e4     0x1000 src/hdudispfcbit.o
                0x2000f4e4                Cbit_task_stack
 .data.Pdi_file_code
                0x200104e4        0x8 src/hdudispfpbit.o
                0x200104e4                Pdi_file_code
 .data.Calibration_label
                0x200104ec        0x2 D:\Work\Howell\MD\S17HOWDSPSW\ACCORD\Trunk\SourceCode\DisplayBoard\COMMON\Release\libCOMMON.a(hdudispfa429.o)
                0x200104ec                Calibration_label
 *fill*         0x200104ee        0x2 
 .data.App_revno
                0x200104f0       0x1f D:\Work\Howell\MD\S17HOWDSPSW\ACCORD\Trunk\SourceCode\DisplayBoard\COMMON\Release\libCOMMON.a(hdudispfa429.o)
                0x200104f0                App_revno
 *fill*         0x2001050f        0x1 
 .data.Boot_revno
                0x20010510       0x1f D:\Work\Howell\MD\S17HOWDSPSW\ACCORD\Trunk\SourceCode\DisplayBoard\COMMON\Release\libCOMMON.a(hdudispfa429.o)
                0x20010510                Boot_revno
 *fill*         0x2001052f        0x1 
 .data.Maint_revno
                0x20010530       0x1f D:\Work\Howell\MD\S17HOWDSPSW\ACCORD\Trunk\SourceCode\DisplayBoard\COMMON\Release\libCOMMON.a(hdudispfa429.o)
                0x20010530                Maint_revno
 *fill*         0x2001054f        0x1 
 .data.Maint_config_revno
                0x20010550       0x1f D:\Work\Howell\MD\S17HOWDSPSW\ACCORD\Trunk\SourceCode\DisplayBoard\COMMON\Release\libCOMMON.a(hdudispfa429.o)
                0x20010550                Maint_config_revno
 *fill*         0x2001056f        0x1 
 .data.Soft_loader_revno
                0x20010570       0x1f D:\Work\Howell\MD\S17HOWDSPSW\ACCORD\Trunk\SourceCode\DisplayBoard\COMMON\Release\libCOMMON.a(hdudispfa429.o)
                0x20010570                Soft_loader_revno
 *fill*         0x2001058f        0x1 
 .data.Commf_part
                0x20010590       0x1f D:\Work\Howell\MD\S17HOWDSPSW\ACCORD\Trunk\SourceCode\DisplayBoard\COMMON\Release\libCOMMON.a(hdudispfa429.o)
                0x20010590                Commf_part
 *fill*         0x200105af        0x1 
 .data.Commb_part
                0x200105b0       0x1f D:\Work\Howell\MD\S17HOWDSPSW\ACCORD\Trunk\SourceCode\DisplayBoard\COMMON\Release\libCOMMON.a(hdudispfa429.o)
                0x200105b0                Commb_part
 *fill*         0x200105cf        0x1 
 .data.Maint_part
                0x200105d0       0x1f D:\Work\Howell\MD\S17HOWDSPSW\ACCORD\Trunk\SourceCode\DisplayBoard\COMMON\Release\libCOMMON.a(hdudispfa429.o)
                0x200105d0                Maint_part
 *fill*         0x200105ef        0x1 
 .data.Commsl_part
                0x200105f0       0x1f D:\Work\Howell\MD\S17HOWDSPSW\ACCORD\Trunk\SourceCode\DisplayBoard\COMMON\Release\libCOMMON.a(hdudispfa429.o)
                0x200105f0                Commsl_part
 *fill*         0x2001060f        0x1 
 .data.Eiu_heading
                0x20010610       0x12 D:\Work\Howell\MD\S17HOWDSPSW\ACCORD\Trunk\SourceCode\DisplayBoard\COMMON\Release\libCOMMON.a(hdudispfa429.o)
                0x20010610                Eiu_heading
 *fill*         0x20010622        0x2 
 .data.Aircraft_model
                0x20010624       0x3c D:\Work\Howell\MD\S17HOWDSPSW\ACCORD\Trunk\SourceCode\DisplayBoard\COMMON\Release\libCOMMON.a(hdudispfa429.o)
                0x20010624                Aircraft_model
 .data.Engine_type
                0x20010660       0x3c D:\Work\Howell\MD\S17HOWDSPSW\ACCORD\Trunk\SourceCode\DisplayBoard\COMMON\Release\libCOMMON.a(hdudispfa429.o)
                0x20010660                Engine_type
 .data.Engine_serial
                0x2001069c       0x32 D:\Work\Howell\MD\S17HOWDSPSW\ACCORD\Trunk\SourceCode\DisplayBoard\COMMON\Release\libCOMMON.a(hdudispfa429.o)
                0x2001069c                Engine_serial
 *fill*         0x200106ce        0x2 
 .data.Aircraft_serial
                0x200106d0       0x32 D:\Work\Howell\MD\S17HOWDSPSW\ACCORD\Trunk\SourceCode\DisplayBoard\COMMON\Release\libCOMMON.a(hdudispfa429.o)
                0x200106d0                Aircraft_serial
 *fill*         0x20010702        0x2 
 .data.Aircraft_regstrn
                0x20010704       0x32 D:\Work\Howell\MD\S17HOWDSPSW\ACCORD\Trunk\SourceCode\DisplayBoard\COMMON\Release\libCOMMON.a(hdudispfa429.o)
                0x20010704                Aircraft_regstrn
 .data.nor_status.5660
                0x20010736        0x1 D:\Work\Howell\MD\S17HOWDSPSW\ACCORD\Trunk\SourceCode\DisplayBoard\COMMON\Release\libCOMMON.a(hdudispfbspnor.o)
 .data.u8_first_call.6031
                0x20010737        0x1 D:\Work\Howell\MD\S17HOWDSPSW\ACCORD\Trunk\SourceCode\DisplayBoard\COMMON\Release\libCOMMON.a(hdudispfdma2d.o)
 .data.Manual_brightness
                0x20010738        0x2 D:\Work\Howell\MD\S17HOWDSPSW\ACCORD\Trunk\SourceCode\DisplayBoard\COMMON\Release\libCOMMON.a(hdudispfglobalsettings.o)
                0x20010738                Manual_brightness
 .data.Auto_brightness
                0x2001073a        0x2 D:\Work\Howell\MD\S17HOWDSPSW\ACCORD\Trunk\SourceCode\DisplayBoard\COMMON\Release\libCOMMON.a(hdudispfglobalsettings.o)
                0x2001073a                Auto_brightness
 .data.Brightness_mode
                0x2001073c        0x1 D:\Work\Howell\MD\S17HOWDSPSW\ACCORD\Trunk\SourceCode\DisplayBoard\COMMON\Release\libCOMMON.a(hdudispfglobalsettings.o)
                0x2001073c                Brightness_mode
 .data.Cool_down_state
                0x2001073d        0x1 D:\Work\Howell\MD\S17HOWDSPSW\ACCORD\Trunk\SourceCode\DisplayBoard\COMMON\Release\libCOMMON.a(hdudispfglobalsettings.o)
                0x2001073d                Cool_down_state
 *fill*         0x2001073e        0x2 
 .data.Trig_setting
                0x20010740      0x2bc D:\Work\Howell\MD\S17HOWDSPSW\ACCORD\Trunk\SourceCode\DisplayBoard\COMMON\Release\libCOMMON.a(hdudispfglobalsettings.o)
                0x20010740                Trig_setting
 .data.init_var.7965
                0x200109fc       0x19 D:\Work\Howell\MD\S17HOWDSPSW\ACCORD\Trunk\SourceCode\DisplayBoard\COMMON\Release\libCOMMON.a(hdudispfglobalsettings.o)
 .data.init_var.7969
                0x20010a15        0x1 D:\Work\Howell\MD\S17HOWDSPSW\ACCORD\Trunk\SourceCode\DisplayBoard\COMMON\Release\libCOMMON.a(hdudispfglobalsettings.o)
 *fill*         0x20010a16        0x2 
 .data.Scu_rtd_readings
                0x20010a18       0x18 D:\Work\Howell\MD\S17HOWDSPSW\ACCORD\Trunk\SourceCode\DisplayBoard\COMMON\Release\libCOMMON.a(hdudispflmsscu.o)
 .data.Fault_data
                0x20010a30       0x60 D:\Work\Howell\MD\S17HOWDSPSW\ACCORD\Trunk\SourceCode\DisplayBoard\COMMON\Release\libCOMMON.a(hdudispflmsscu.o)
                0x20010a30                Fault_data
 .data.Previous_fault_data
                0x20010a90       0x60 D:\Work\Howell\MD\S17HOWDSPSW\ACCORD\Trunk\SourceCode\DisplayBoard\COMMON\Release\libCOMMON.a(hdudispflmsscu.o)
 .data.Fault_log_structure
                0x20010af0      0x2a8 D:\Work\Howell\MD\S17HOWDSPSW\ACCORD\Trunk\SourceCode\DisplayBoard\COMMON\Release\libCOMMON.a(hdudispflmsscu.o)
                0x20010af0                Fault_log_structure
 .data.init_var.7836
                0x20010d98        0x1 D:\Work\Howell\MD\S17HOWDSPSW\ACCORD\Trunk\SourceCode\DisplayBoard\COMMON\Release\libCOMMON.a(hdudispflmsscu.o)
 *fill*         0x20010d99        0x3 
 .data.Demo_mode_text
                0x20010d9c        0xa D:\Work\Howell\MD\S17HOWDSPSW\ACCORD\Trunk\SourceCode\DisplayBoard\COMMON\Release\libCOMMON.a(hdudispfpara.o)
 *fill*         0x20010da6        0x2 
 .data.No_sys_info_text
                0x20010da8        0xc D:\Work\Howell\MD\S17HOWDSPSW\ACCORD\Trunk\SourceCode\DisplayBoard\COMMON\Release\libCOMMON.a(hdudispfpara.o)
 .data.Disp_sw_info_text
                0x20010db4       0x16 D:\Work\Howell\MD\S17HOWDSPSW\ACCORD\Trunk\SourceCode\DisplayBoard\COMMON\Release\libCOMMON.a(hdudispfpara.o)
 *fill*         0x20010dca        0x2 
 .data.Comm_sw_info_text
                0x20010dcc       0x1c D:\Work\Howell\MD\S17HOWDSPSW\ACCORD\Trunk\SourceCode\DisplayBoard\COMMON\Release\libCOMMON.a(hdudispfpara.o)
 .data.Disp_config_info_text
                0x20010de8       0x1b D:\Work\Howell\MD\S17HOWDSPSW\ACCORD\Trunk\SourceCode\DisplayBoard\COMMON\Release\libCOMMON.a(hdudispfpara.o)
 *fill*         0x20010e03        0x1 
 .data.Xlink_fail_text
                0x20010e04       0x1a D:\Work\Howell\MD\S17HOWDSPSW\ACCORD\Trunk\SourceCode\DisplayBoard\COMMON\Release\libCOMMON.a(hdudispfpara.o)
 *fill*         0x20010e1e        0x2 
 .data.No_eiu_comm_text
                0x20010e20       0x16 D:\Work\Howell\MD\S17HOWDSPSW\ACCORD\Trunk\SourceCode\DisplayBoard\COMMON\Release\libCOMMON.a(hdudispfpara.o)
 *fill*         0x20010e36        0x2 
 .data.Pbit_err00_text
                0x20010e38       0x14 D:\Work\Howell\MD\S17HOWDSPSW\ACCORD\Trunk\SourceCode\DisplayBoard\COMMON\Release\libCOMMON.a(hdudispfpara.o)
 .data.Pbit_err01_text
                0x20010e4c       0x14 D:\Work\Howell\MD\S17HOWDSPSW\ACCORD\Trunk\SourceCode\DisplayBoard\COMMON\Release\libCOMMON.a(hdudispfpara.o)
 .data.Pbit_err02_text
                0x20010e60       0x14 D:\Work\Howell\MD\S17HOWDSPSW\ACCORD\Trunk\SourceCode\DisplayBoard\COMMON\Release\libCOMMON.a(hdudispfpara.o)
 .data.Pbit_err03_text
                0x20010e74       0x14 D:\Work\Howell\MD\S17HOWDSPSW\ACCORD\Trunk\SourceCode\DisplayBoard\COMMON\Release\libCOMMON.a(hdudispfpara.o)
 .data.Pbit_err04_text
                0x20010e88       0x14 D:\Work\Howell\MD\S17HOWDSPSW\ACCORD\Trunk\SourceCode\DisplayBoard\COMMON\Release\libCOMMON.a(hdudispfpara.o)
 .data.Pbit_err05_text
                0x20010e9c       0x14 D:\Work\Howell\MD\S17HOWDSPSW\ACCORD\Trunk\SourceCode\DisplayBoard\COMMON\Release\libCOMMON.a(hdudispfpara.o)
 .data.Pbit_err06_text
                0x20010eb0       0x14 D:\Work\Howell\MD\S17HOWDSPSW\ACCORD\Trunk\SourceCode\DisplayBoard\COMMON\Release\libCOMMON.a(hdudispfpara.o)
 .data.Pbit_err07_text
                0x20010ec4       0x14 D:\Work\Howell\MD\S17HOWDSPSW\ACCORD\Trunk\SourceCode\DisplayBoard\COMMON\Release\libCOMMON.a(hdudispfpara.o)
 .data.Pbit_err08_text
                0x20010ed8       0x14 D:\Work\Howell\MD\S17HOWDSPSW\ACCORD\Trunk\SourceCode\DisplayBoard\COMMON\Release\libCOMMON.a(hdudispfpara.o)
 .data.Pbit_err09_text
                0x20010eec       0x14 D:\Work\Howell\MD\S17HOWDSPSW\ACCORD\Trunk\SourceCode\DisplayBoard\COMMON\Release\libCOMMON.a(hdudispfpara.o)
 .data.Pbit_err10_text
                0x20010f00       0x14 D:\Work\Howell\MD\S17HOWDSPSW\ACCORD\Trunk\SourceCode\DisplayBoard\COMMON\Release\libCOMMON.a(hdudispfpara.o)
 .data.Pbit_err11_text
                0x20010f14       0x14 D:\Work\Howell\MD\S17HOWDSPSW\ACCORD\Trunk\SourceCode\DisplayBoard\COMMON\Release\libCOMMON.a(hdudispfpara.o)
 .data.Cbit_err01_text
                0x20010f28       0x14 D:\Work\Howell\MD\S17HOWDSPSW\ACCORD\Trunk\SourceCode\DisplayBoard\COMMON\Release\libCOMMON.a(hdudispfpara.o)
 .data.Cbit_err02_text
                0x20010f3c       0x14 D:\Work\Howell\MD\S17HOWDSPSW\ACCORD\Trunk\SourceCode\DisplayBoard\COMMON\Release\libCOMMON.a(hdudispfpara.o)
 .data.Cbit_err03_text
                0x20010f50       0x14 D:\Work\Howell\MD\S17HOWDSPSW\ACCORD\Trunk\SourceCode\DisplayBoard\COMMON\Release\libCOMMON.a(hdudispfpara.o)
 .data.No_inter_system_comm_text
                0x20010f64       0x1e D:\Work\Howell\MD\S17HOWDSPSW\ACCORD\Trunk\SourceCode\DisplayBoard\COMMON\Release\libCOMMON.a(hdudispfpara.o)
 *fill*         0x20010f82        0x2 
 .data.Airframe_msg
                0x20010f84       0x20 D:\Work\Howell\MD\S17HOWDSPSW\ACCORD\Trunk\SourceCode\DisplayBoard\COMMON\Release\libCOMMON.a(hdudispfpara.o)
 .data.Pbit_err12_text
                0x20010fa4       0x14 D:\Work\Howell\MD\S17HOWDSPSW\ACCORD\Trunk\SourceCode\DisplayBoard\COMMON\Release\libCOMMON.a(hdudispfpara.o)
 .data.No_msgs_text
                0x20010fb8        0xc D:\Work\Howell\MD\S17HOWDSPSW\ACCORD\Trunk\SourceCode\DisplayBoard\COMMON\Release\libCOMMON.a(hdudispfpara.o)
 .data.Scu_probe_err01
                0x20010fc4       0x13 D:\Work\Howell\MD\S17HOWDSPSW\ACCORD\Trunk\SourceCode\DisplayBoard\COMMON\Release\libCOMMON.a(hdudispfpara.o)
 *fill*         0x20010fd7        0x1 
 .data.Scu_probe_err02
                0x20010fd8       0x13 D:\Work\Howell\MD\S17HOWDSPSW\ACCORD\Trunk\SourceCode\DisplayBoard\COMMON\Release\libCOMMON.a(hdudispfpara.o)
 *fill*         0x20010feb        0x1 
 .data.Scu_probe_err03
                0x20010fec       0x13 D:\Work\Howell\MD\S17HOWDSPSW\ACCORD\Trunk\SourceCode\DisplayBoard\COMMON\Release\libCOMMON.a(hdudispfpara.o)
 *fill*         0x20010fff        0x1 
 .data.Scu_sys_status_err01
                0x20011000       0x1b D:\Work\Howell\MD\S17HOWDSPSW\ACCORD\Trunk\SourceCode\DisplayBoard\COMMON\Release\libCOMMON.a(hdudispfpara.o)
 *fill*         0x2001101b        0x1 
 .data.Scu_sys_status_err02
                0x2001101c       0x1b D:\Work\Howell\MD\S17HOWDSPSW\ACCORD\Trunk\SourceCode\DisplayBoard\COMMON\Release\libCOMMON.a(hdudispfpara.o)
 *fill*         0x20011037        0x1 
 .data.Scu_sys_status_err03
                0x20011038       0x1b D:\Work\Howell\MD\S17HOWDSPSW\ACCORD\Trunk\SourceCode\DisplayBoard\COMMON\Release\libCOMMON.a(hdudispfpara.o)
 *fill*         0x20011053        0x1 
 .data.Scu_sys_status_err04
                0x20011054       0x1b D:\Work\Howell\MD\S17HOWDSPSW\ACCORD\Trunk\SourceCode\DisplayBoard\COMMON\Release\libCOMMON.a(hdudispfpara.o)
 *fill*         0x2001106f        0x1 
 .data.Scu_sys_status_err05
                0x20011070       0x1b D:\Work\Howell\MD\S17HOWDSPSW\ACCORD\Trunk\SourceCode\DisplayBoard\COMMON\Release\libCOMMON.a(hdudispfpara.o)
 *fill*         0x2001108b        0x1 
 .data.Scu_arinc_err01
                0x2001108c       0x13 D:\Work\Howell\MD\S17HOWDSPSW\ACCORD\Trunk\SourceCode\DisplayBoard\COMMON\Release\libCOMMON.a(hdudispfpara.o)
 *fill*         0x2001109f        0x1 
 .data.Scu_arinc_err02
                0x200110a0       0x13 D:\Work\Howell\MD\S17HOWDSPSW\ACCORD\Trunk\SourceCode\DisplayBoard\COMMON\Release\libCOMMON.a(hdudispfpara.o)
 .data.New_message
                0x200110b3        0x1 D:\Work\Howell\MD\S17HOWDSPSW\ACCORD\Trunk\SourceCode\DisplayBoard\COMMON\Release\libCOMMON.a(hdudispfpara.o)
                0x200110b3                New_message
 .data.Pc_empty_message_list
                0x200110b4        0x8 D:\Work\Howell\MD\S17HOWDSPSW\ACCORD\Trunk\SourceCode\DisplayBoard\COMMON\Release\libCOMMON.a(hdudispfpara.o)
                0x200110b4                Pc_empty_message_list
 .data.Pc_message_text
                0x200110bc       0xc0 D:\Work\Howell\MD\S17HOWDSPSW\ACCORD\Trunk\SourceCode\DisplayBoard\COMMON\Release\libCOMMON.a(hdudispfpara.o)
 .data.Empty_sys_info_list
                0x2001117c        0x8 D:\Work\Howell\MD\S17HOWDSPSW\ACCORD\Trunk\SourceCode\DisplayBoard\COMMON\Release\libCOMMON.a(hdudispfpara.o)
                0x2001117c                Empty_sys_info_list
 .data.Pc_sys_info_text
                0x20011184       0xc0 D:\Work\Howell\MD\S17HOWDSPSW\ACCORD\Trunk\SourceCode\DisplayBoard\COMMON\Release\libCOMMON.a(hdudispfpara.o)
 .data.Srtd_readings
                0x20011244      0x1e0 D:\Work\Howell\MD\S17HOWDSPSW\ACCORD\Trunk\SourceCode\DisplayBoard\COMMON\Release\libCOMMON.a(hdudispfrtd.o)
 .data.sdram_status.5630
                0x20011424        0x1 D:\Work\Howell\MD\S17HOWDSPSW\ACCORD\Trunk\SourceCode\DisplayBoard\HAL_Driver\Release\libHAL_Driver.a(hdulibstm32756gevalsdram.o)
 *fill*         0x20011425        0x3 
 .data.System_core_clock
                0x20011428        0x4 D:\Work\Howell\MD\S17HOWDSPSW\ACCORD\Trunk\SourceCode\DisplayBoard\HAL_Driver\Release\libHAL_Driver.a(hdulibsystemstm32f7xx.o)
                0x20011428                System_core_clock
 .data.param_message2.7509
                0x2001142c       0x15 D:\Work\Howell\MD\S17HOWDSPSW\ACCORD\Trunk\SourceCode\DisplayBoard\WIDGETS\Release\libWIDGETS.a(hdudispfbargraphs.o)
 *fill*         0x20011441        0x3 
 .data.param_message.6312
                0x20011444       0x18 D:\Work\Howell\MD\S17HOWDSPSW\ACCORD\Trunk\SourceCode\DisplayBoard\WIDGETS\Release\libWIDGETS.a(hdudispfcarrotgraph.o)
 .data.param_message.6306
                0x2001145c       0x17 D:\Work\Howell\MD\S17HOWDSPSW\ACCORD\Trunk\SourceCode\DisplayBoard\WIDGETS\Release\libWIDGETS.a(hdudispfnumbox.o)
 *fill*         0x20011473        0x1 
 .data.S16_scan_xmin
                0x20011474        0x4 D:\Work\Howell\MD\S17HOWDSPSW\ACCORD\Trunk\SourceCode\DisplayBoard\WIDGETS\Release\libWIDGETS.a(hdudispfpolygon1.o)
                0x20011474                S16_scan_xmin
 .data.param_message.7831
                0x20011478       0x1e D:\Work\Howell\MD\S17HOWDSPSW\ACCORD\Trunk\SourceCode\DisplayBoard\WIDGETS\Release\libWIDGETS.a(hdudispfpolygon1.o)
 *fill*         0x20011496        0x2 
 .data.param_message.7838
                0x20011498       0x1c D:\Work\Howell\MD\S17HOWDSPSW\ACCORD\Trunk\SourceCode\DisplayBoard\WIDGETS\Release\libWIDGETS.a(hdudispfpolygon1.o)
 .data.param_message.7867
                0x200114b4       0x1e D:\Work\Howell\MD\S17HOWDSPSW\ACCORD\Trunk\SourceCode\DisplayBoard\WIDGETS\Release\libWIDGETS.a(hdudispfpolygon1.o)
 *fill*         0x200114d2        0x2 
 .data.param_message.7902
                0x200114d4       0x25 D:\Work\Howell\MD\S17HOWDSPSW\ACCORD\Trunk\SourceCode\DisplayBoard\WIDGETS\Release\libWIDGETS.a(hdudispfpolygon1.o)
 *fill*         0x200114f9        0x3 
 .data.Pu_next_element
                0x200114fc        0x4 D:\Work\Howell\MD\S17HOWDSPSW\ACCORD\Trunk\SourceCode\DisplayBoard\WIDGETS\Release\libWIDGETS.a(hdudispfpolygon2.o)
 .data.Pu_element_lock
                0x20011500        0x4 D:\Work\Howell\MD\S17HOWDSPSW\ACCORD\Trunk\SourceCode\DisplayBoard\WIDGETS\Release\libWIDGETS.a(hdudispfpolygon2.o)
 .data.Ps_next_poly
                0x20011504        0x4 D:\Work\Howell\MD\S17HOWDSPSW\ACCORD\Trunk\SourceCode\DisplayBoard\WIDGETS\Release\libWIDGETS.a(hdudispfpolygon2.o)
 .data.Ps_poly_lock
                0x20011508        0x4 D:\Work\Howell\MD\S17HOWDSPSW\ACCORD\Trunk\SourceCode\DisplayBoard\WIDGETS\Release\libWIDGETS.a(hdudispfpolygon2.o)
 .data.param_message.6312
                0x2001150c       0x16 D:\Work\Howell\MD\S17HOWDSPSW\ACCORD\Trunk\SourceCode\DisplayBoard\WIDGETS\Release\libWIDGETS.a(hdudispfrounddial.o)
 *fill*         0x20011522        0x2 
 .data.param_message.7856
                0x20011524        0xe D:\Work\Howell\MD\S17HOWDSPSW\ACCORD\Trunk\SourceCode\DisplayBoard\WIDGETS\Release\libWIDGETS.a(hdudispftext.o)
 *fill*         0x20011532        0x2 
 .data.Pc_more_below
                0x20011534        0x9 D:\Work\Howell\MD\S17HOWDSPSW\ACCORD\Trunk\SourceCode\DisplayBoard\WIDGETS\Release\libWIDGETS.a(hdudispftextbox.o)
                0x20011534                Pc_more_below
 *fill*         0x2001153d        0x3 
 .data.param_message.6347
                0x20011540       0x13 D:\Work\Howell\MD\S17HOWDSPSW\ACCORD\Trunk\SourceCode\DisplayBoard\WIDGETS\Release\libWIDGETS.a(hdudispftextbox.o)
 *fill*         0x20011553        0x1 
 .data.param_message.6353
                0x20011554       0x14 D:\Work\Howell\MD\S17HOWDSPSW\ACCORD\Trunk\SourceCode\DisplayBoard\WIDGETS\Release\libWIDGETS.a(hdudispftextbox.o)
 .data.color.6280
                0x20011568        0x2 D:\Work\Howell\MD\S17HOWDSPSW\ACCORD\Trunk\SourceCode\DisplayBoard\WIDGETS\Release\libWIDGETS.a(hdudispftimers.o)
 *fill*         0x2001156a        0x2 
 .data.breakline.7691
                0x2001156c        0x3 D:\Work\Howell\MD\S17HOWDSPSW\ACCORD\Trunk\SourceCode\DisplayBoard\WIDGETS\Release\libWIDGETS.a(hdudispfrterror.o)
 *fill*         0x2001156f        0x1 
 .data.param_message1.7692
                0x20011570        0x9 D:\Work\Howell\MD\S17HOWDSPSW\ACCORD\Trunk\SourceCode\DisplayBoard\WIDGETS\Release\libWIDGETS.a(hdudispfrterror.o)
 *fill*         0x20011579        0x3 
 .data.param_message2.7693
                0x2001157c        0xa D:\Work\Howell\MD\S17HOWDSPSW\ACCORD\Trunk\SourceCode\DisplayBoard\WIDGETS\Release\libWIDGETS.a(hdudispfrterror.o)
 *fill*         0x20011586        0x2 
 .data.param_message3.7694
                0x20011588        0xc D:\Work\Howell\MD\S17HOWDSPSW\ACCORD\Trunk\SourceCode\DisplayBoard\WIDGETS\Release\libWIDGETS.a(hdudispfrterror.o)
 .data.First_call
                0x20011594        0x2 D:\Work\Howell\MD\S17HOWDSPSW\ACCORD\Trunk\SourceCode\DisplayBoard\WIDGETS\Release\libWIDGETS.a(hdudispftimer.o)
 *fill*         0x20011596        0x2 
 .data.param_message.4289
                0x20011598       0x11 D:\Work\Howell\MD\S17HOWDSPSW\ACCORD\Trunk\SourceCode\DisplayBoard\WIDGETS\Release\libWIDGETS.a(hdudispftimer.o)
 *fill*         0x200115a9        0x7 
 .data.impure_data
                0x200115b0      0x428 c:/ac6/systemworkbench/plugins/fr.ac6.mcu.externaltools.arm-none.win32_1.13.2.201705091103/tools/compiler/bin/../lib/gcc/arm-none-eabi/5.4.1/../../../../arm-none-eabi/lib/armv7e-m/fpu/fpv5-sp-d16\libc.a(lib_a-impure.o)
                0x200119d8                . = ALIGN (0x4)
                0x200119d8                _edata = .

.jcr            0x200119d8        0x0 load address 0x0817e7c8
 .jcr           0x200119d8        0x0 c:/ac6/systemworkbench/plugins/fr.ac6.mcu.externaltools.arm-none.win32_1.13.2.201705091103/tools/compiler/bin/../lib/gcc/arm-none-eabi/5.4.1/armv7e-m/fpu/fpv5-sp-d16/crtbegin.o

.igot.plt       0x200119d8        0x0 load address 0x0817e7c8
 .igot.plt      0x200119d8        0x0 c:/ac6/systemworkbench/plugins/fr.ac6.mcu.externaltools.arm-none.win32_1.13.2.201705091103/tools/compiler/bin/../lib/gcc/arm-none-eabi/5.4.1/armv7e-m/fpu/fpv5-sp-d16/crtbegin.o
                0x200119d8                . = ALIGN (0x4)

.bss            0x200119d8    0x36fb4 load address 0x0817e7c8
                0x200119d8                _sbss = .
                0x200119d8                __bss_start__ = _sbss
 *(.bss)
 .bss           0x200119d8       0x1c c:/ac6/systemworkbench/plugins/fr.ac6.mcu.externaltools.arm-none.win32_1.13.2.201705091103/tools/compiler/bin/../lib/gcc/arm-none-eabi/5.4.1/armv7e-m/fpu/fpv5-sp-d16/crtbegin.o
 *(.bss*)
 .bss.Switches  0x200119f4       0x18 BSP/hdudispfpbs.o
                0x200119f4                Switches
 .bss.New_switches
                0x20011a0c        0x2 BSP/hdudispfpbs.o
 .bss.Old_switches
                0x20011a0e        0x2 BSP/hdudispfpbs.o
 .bss.Sw_timer  0x20011a10        0x4 BSP/hdudispfpbs.o
 .bss.Sw_timer_b1
                0x20011a14        0x4 BSP/hdudispfpbs.o
 .bss.Switches_used
                0x20011a18        0x1 BSP/hdudispfpbs.o
 .bss.Switches_used_b1
                0x20011a19        0x1 BSP/hdudispfpbs.o
 .bss.Switches_fetched
                0x20011a1a        0x1 BSP/hdudispfpbs.o
 *fill*         0x20011a1b        0x1 
 .bss.Good_switches
                0x20011a1c        0x2 BSP/hdudispfpbs.o
 .bss.U8_last_encoder_left
                0x20011a1e        0x1 BSP/hdudispfpbs.o
 .bss.S8_position_l
                0x20011a1f        0x1 BSP/hdudispfpbs.o
 .bss.U8_last_encoder_right
                0x20011a20        0x1 BSP/hdudispfpbs.o
 .bss.S8_position_r
                0x20011a21        0x1 BSP/hdudispfpbs.o
 .bss.S8_activity
                0x20011a22        0x1 BSP/hdudispfpbs.o
 .bss.Long_press
                0x20011a23        0x1 BSP/hdudispfpbs.o
                0x20011a23                Long_press
 .bss.Tim2_handle
                0x20011a24       0x3c BSP/hdudispfpwm.o
 .bss.Tim3_handle
                0x20011a60       0x3c BSP/hdudispfpwm.o
 .bss.Tim5_handle
                0x20011a9c       0x3c BSP/hdudispfpwm.o
 .bss.S_pwm_config
                0x20011ad8       0x1c BSP/hdudispfpwm.o
 .bss.Gpio_init_struct
                0x20011af4       0x14 BSP/hdudispfpwm.o
 .bss.S32_back_light_timer
                0x20011b08        0x4 BSP/hdudispfpwm.o
 .bss.s16_target_pcnt.7982
                0x20011b0c        0x2 BSP/hdudispfpwm.o
 .bss.s16_present_pcnt.7983
                0x20011b0e        0x2 BSP/hdudispfpwm.o
 .bss.Adc_handle
                0x20011b10       0x48 BSP/hdudispfstmadc.o
 .bss.S_config1
                0x20011b58       0x10 BSP/hdudispfstmadc.o
 .bss.S_config2
                0x20011b68       0x10 BSP/hdudispfstmadc.o
 .bss.S16_adc_reading
                0x20011b78        0x4 BSP/hdudispfstmadc.o
                0x20011b78                S16_adc_reading
 .bss.u16_chan_num.5548
                0x20011b7c        0x2 BSP/hdudispfstmadc.o
 *fill*         0x20011b7e        0x2 
 .bss.U32_a825_filter_errors
                0x20011b80        0x4 Shared/hdudispfa825comm1.o
 .bss.Can1_msg_cntr
                0x20011b84        0x4 Shared/hdudispfa825comm1.o
                0x20011b84                Can1_msg_cntr
 .bss.U32_a825_filter_errors
                0x20011b88        0x4 Shared/hdudispfa825comm2.o
 .bss.Sem_a8251_commtask
                0x20011b8c        0x4 Shared/hdudispfarinc825perph1.o
                0x20011b8c                Sem_a8251_commtask
 .bss.Can_handle
                0x20011b90       0x40 Shared/hdudispfarinc825perph1.o
 .bss.Tx_message
                0x20011bd0       0x1c Shared/hdudispfarinc825perph1.o
 .bss.Rx_message
                0x20011bec       0x24 Shared/hdudispfarinc825perph1.o
 .bss.Sem_a8252_commtask
                0x20011c10        0x4 Shared/hdudispfarinc825perph2.o
                0x20011c10                Sem_a8252_commtask
 .bss.Can_handle
                0x20011c14       0x40 Shared/hdudispfarinc825perph2.o
 .bss.Tx_message
                0x20011c54       0x1c Shared/hdudispfarinc825perph2.o
 .bss.Rx_message
                0x20011c70       0x24 Shared/hdudispfarinc825perph2.o
 .bss.Distex_init
                0x20011c94        0x1 Shared/hdudispfforeground.o
                0x20011c94                Distex_init
 *fill*         0x20011c95        0x3 
 .bss.Cas_red_x
                0x20011c98       0x20 Shared/hdudispfforeground.o
 .bss.Dis_red_x
                0x20011cb8       0x20 Shared/hdudispfforeground.o
 .bss.Pu16_back_ground
                0x20011cd8        0x4 Shared/hdudispfforeground.o
 .bss.S8_had_flash
                0x20011cdc        0x1 Shared/hdudispfforeground.o
                0x20011cdc                S8_had_flash
 *fill*         0x20011cdd        0x3 
 .bss.Flash_timer
                0x20011ce0        0x4 Shared/hdudispfforeground.o
 .bss.Digital_timer
                0x20011ce4        0x4 Shared/hdudispfforeground.o
 .bss.U8_update_digital
                0x20011ce8        0x1 Shared/hdudispfforeground.o
                0x20011ce8                U8_update_digital
 .bss.Flash_state
                0x20011ce9        0x1 Shared/hdudispfforeground.o
                0x20011ce9                Flash_state
 .bss.U8_which_fgfb
                0x20011cea        0x1 Shared/hdudispfforeground.o
 .bss.E_txt_flash
                0x20011ceb        0x1 Shared/hdudispfforeground.o
 .bss.U32_digital_timer
                0x20011cec        0x4 Shared/hdudispfforeground.o
                0x20011cec                U32_digital_timer
 .bss.Bool_menu_cal
                0x20011cf0        0x1 Shared/hdudispfforeground.o
                0x20011cf0                Bool_menu_cal
 .bss.u8_delay.8033
                0x20011cf1        0x1 Shared/hdudispfforeground.o
 .bss.u8_lcd_off.8034
                0x20011cf2        0x1 Shared/hdudispfforeground.o
 .bss.u8_prev_x.8035
                0x20011cf3        0x1 Shared/hdudispfforeground.o
 .bss.Display_size
                0x20011cf4        0x1 Shared/hdudispfpanel.o
                0x20011cf4                Display_size
 *fill*         0x20011cf5        0x3 
 .bss.Ltdc_handle
                0x20011cf8       0xa8 Shared/hdudispfpanel.o
                0x20011cf8                Ltdc_handle
 .bss.P_layer_cfg1
                0x20011da0       0x34 Shared/hdudispfpanel.o
                0x20011da0                P_layer_cfg1
 .bss.P_layer_cfg
                0x20011dd4       0x34 Shared/hdudispfpanel.o
                0x20011dd4                P_layer_cfg
 .bss.S8_forground_off
                0x20011e08        0x1 Shared/hdudispfpanel.o
 .bss.Engine_count_app
                0x20011e09        0x1 app/hdudispfapp.o
                0x20011e09                Engine_count_app
 *fill*         0x20011e0a        0x2 
 .bss.Time_in_sec
                0x20011e0c        0x4 app/hdudispfapp.o
                0x20011e0c                Time_in_sec
 .bss.Sem_app_task
                0x20011e10        0x4 app/hdudispfapp.o
                0x20011e10                Sem_app_task
 .bss.toggle.8360
                0x20011e14        0x1 app/hdudispfapp.o
 .bss.toggle_log.8361
                0x20011e15        0x1 app/hdudispfapp.o
 *fill*         0x20011e16        0x2 
 .bss.u32_frame_counter.8359
                0x20011e18        0x4 app/hdudispfapp.o
 .bss.re_pull_cnt.8363
                0x20011e1c        0x4 app/hdudispfapp.o
 .bss.Sem_demo_task
                0x20011e20        0x4 app/hdudispfdemo.o
                0x20011e20                Sem_demo_task
 .bss.Demo_task_stk
                0x20011e24     0x1000 app/hdudispfdemo.o
                0x20011e24                Demo_task_stk
 .bss.Demo_active
                0x20012e24        0x1 app/hdudispfdemo.o
                0x20012e24                Demo_active
 *fill*         0x20012e25        0x3 
 .bss.A429_demo_data
                0x20012e28     0x5800 app/hdudispfdemo.o
 .bss.transmit_cnt.7910
                0x20018628        0x4 app/hdudispfdemo.o
 .bss.timer_cnt.7917
                0x2001862c        0x4 app/hdudispfdemo.o
 .bss.cas_cnt.7896
                0x20018630        0x4 app/hdudispfdemo.o
 .bss.airframe_seq.7897
                0x20018634        0x4 app/hdudispfdemo.o
 .bss.red_value.7913
                0x20018638        0x1 app/hdudispfdemo.o
 *fill*         0x20018639        0x3 
 .bss.act_delay.7931
                0x2001863c        0x4 app/hdudispfdemo.o
 .bss.u16_tick_cntr.7937
                0x20018640        0x2 app/hdudispfdemo.o
 *fill*         0x20018642        0x2 
 .bss.Empty_str
                0x20018644        0x1 app/hdudispfgrapp.o
 *fill*         0x20018645        0x3 
 .bss.Ap_page0_dials
                0x20018648     0x21c0 app/hdudispfgrapp.o
                0x20018648                Ap_page0_dials
 .bss.Ap_page2_carrot
                0x2001a808     0x2148 app/hdudispfgrapp.o
                0x2001a808                Ap_page2_carrot
 .bss.Ap_poly_graph
                0x2001c950       0xf0 app/hdudispfgrapp.o
                0x2001c950                Ap_poly_graph
 .bss.Ap_page_tbs
                0x2001ca40      0x960 app/hdudispfgrapp.o
                0x2001ca40                Ap_page_tbs
 .bss.U8_time_string
                0x2001d3a0        0xf app/hdudispfgrapp.o
                0x2001d3a0                U8_time_string
 *fill*         0x2001d3af        0x1 
 .bss.Auto_cool_down_tmr
                0x2001d3b0       0x30 app/hdudispfgrapp.o
                0x2001d3b0                Auto_cool_down_tmr
 .bss.Page_num_boxes
                0x2001d3e0     0x16a8 app/hdudispfgrapp.o
                0x2001d3e0                Page_num_boxes
 .bss.Set_new_page
                0x2001ea88        0x1 app/hdudispfgrapp.o
 .bss.New_page_num
                0x2001ea89        0x1 app/hdudispfgrapp.o
 *fill*         0x2001ea8a        0x2 
 .bss.Splash_timer
                0x2001ea8c        0x4 app/hdudispfgrapp.o
 .bss.Inside_n1
                0x2001ea90        0x1 app/hdudispfgrapp.o
 .bss.Splash_done
                0x2001ea91        0x1 app/hdudispfgrapp.o
                0x2001ea91                Splash_done
 *fill*         0x2001ea92        0x2 
 .bss.Elog_trig
                0x2001ea94      0x17c app/hdudispfgrapp.o
                0x2001ea94                Elog_trig
 .bss.Elog_label
                0x2001ec10      0x334 app/hdudispfgrapp.o
                0x2001ec10                Elog_label
 .bss.Timer_message
                0x2001ef44        0xd app/hdudispfgrapp.o
                0x2001ef44                Timer_message
 *fill*         0x2001ef51        0x3 
 .bss.Ap_page1_bar_graphs
                0x2001ef54      0xf00 app/hdudispfgrapp.o
                0x2001ef54                Ap_page1_bar_graphs
 .bss.Page_txt  0x2001fe54      0x438 app/hdudispfgrapp.o
                0x2001fe54                Page_txt
 .bss.counter_airframe.8273
                0x2002028c        0x2 app/hdudispfgrapp.o
 .bss.state.8305
                0x2002028e        0x1 app/hdudispfgrapp.o
 *fill*         0x2002028f        0x1 
 .bss.Init_task_stk
                0x20020290     0x1000 app/hdudispfinit.o
                0x20020290                Init_task_stk
 .bss.Sem_init_task
                0x20021290        0x4 app/hdudispfinit.o
 .bss.Init_b_done
                0x20021294        0x1 app/hdudispfinit.o
                0x20021294                Init_b_done
 .bss.toggle.7877
                0x20021295        0x1 app/hdudispfinit.o
 .bss.u16_tick_cntr.7883
                0x20021296        0x2 app/hdudispfinit.o
 .bss.Bitmap_crc_check_bit
                0x20021298       0x14 app/hdudispfmenu.o
                0x20021298                Bitmap_crc_check_bit
 .bss.Encoder_menu_select
                0x200212ac       0x24 app/hdudispfmenu.o
                0x200212ac                Encoder_menu_select
 .bss.Menu_select_10inch
                0x200212d0       0x24 app/hdudispfmenu.o
                0x200212d0                Menu_select_10inch
 .bss.Manual_timer_mirror
                0x200212f4        0x4 app/hdudispfmenu.o
 .bss.Menu_timer
                0x200212f8        0x4 app/hdudispfmenu.o
 .bss.Cool_timer_mirror
                0x200212fc        0x4 app/hdudispfmenu.o
 .bss.Message_cnt
                0x20021300        0x2 app/hdudispfmenu.o
 .bss.Man_timer_state
                0x20021302        0x1 app/hdudispfmenu.o
 *fill*         0x20021303        0x1 
 .bss.Pps_menu_stack
                0x20021304       0x20 app/hdudispfmenu.o
 .bss.S16_sys_info_index
                0x20021324        0x2 app/hdudispfmenu.o
 .bss.U8_selected_menu_item
                0x20021326        0x1 app/hdudispfmenu.o
 .bss.U8_selected_menu_item_10inch
                0x20021327        0x1 app/hdudispfmenu.o
 .bss.U8_selected_engine_item_10inch
                0x20021328        0x1 app/hdudispfmenu.o
 .bss.U8_selected_engine_offset_gain
                0x20021329        0x1 app/hdudispfmenu.o
 .bss.U8_selected_page_item
                0x2002132a        0x1 app/hdudispfmenu.o
 *fill*         0x2002132b        0x1 
 .bss.S16_message_index
                0x2002132c        0x2 app/hdudispfmenu.o
 *fill*         0x2002132e        0x2 
 .bss.Manual_timer
                0x20021330        0x4 app/hdudispfmenu.o
                0x20021330                Manual_timer
 .bss.Cool_timer
                0x20021334        0x4 app/hdudispfmenu.o
                0x20021334                Cool_timer
 .bss.Engine_count
                0x20021338        0x1 app/hdudispfmenu.o
                0x20021338                Engine_count
 *fill*         0x20021339        0x3 
 .bss.Offset_value
                0x2002133c       0x18 app/hdudispfmenu.o
                0x2002133c                Offset_value
 .bss.Gain_value
                0x20021354       0x28 app/hdudispfmenu.o
                0x20021354                Gain_value
 .bss.Offset_value_string
                0x2002137c       0x10 app/hdudispfmenu.o
                0x2002137c                Offset_value_string
 .bss.Gain_value_string
                0x2002138c       0x18 app/hdudispfmenu.o
                0x2002138c                Gain_value_string
 .bss.Offset_value_cal
                0x200213a4       0x10 app/hdudispfmenu.o
                0x200213a4                Offset_value_cal
 .bss.Gain_value_cal
                0x200213b4       0x10 app/hdudispfmenu.o
                0x200213b4                Gain_value_cal
 .bss.Offset_digit
                0x200213c4        0x4 app/hdudispfmenu.o
                0x200213c4                Offset_digit
 .bss.Gain_digit
                0x200213c8        0x4 app/hdudispfmenu.o
                0x200213c8                Gain_digit
 .bss.Cmu_fuel_flow
                0x200213cc        0x1 app/hdudispfmenu.o
                0x200213cc                Cmu_fuel_flow
 *fill*         0x200213cd        0x3 
 .bss.Encoder_page_text
                0x200213d0      0x168 app/hdudispfmenu.o
                0x200213d0                Encoder_page_text
 .bss.Encoder_page_select
                0x20021538       0x24 app/hdudispfmenu.o
                0x20021538                Encoder_page_select
 .bss.Button_page_select
                0x2002155c       0x24 app/hdudispfmenu.o
                0x2002155c                Button_page_select
 .bss.Message_text_box
                0x20021580       0x24 app/hdudispfmenu.o
                0x20021580                Message_text_box
 .bss.Exit_button
                0x200215a4       0x24 app/hdudispfmenu.o
                0x200215a4                Exit_button
 .bss.Back_button
                0x200215c8       0x24 app/hdudispfmenu.o
                0x200215c8                Back_button
 .bss.Scroll_button
                0x200215ec       0x24 app/hdudispfmenu.o
                0x200215ec                Scroll_button
 .bss.Cool_down_on_off_btn
                0x20021610       0x24 app/hdudispfmenu.o
                0x20021610                Cool_down_on_off_btn
 .bss.Man_timer_on_off_btn
                0x20021634       0x24 app/hdudispfmenu.o
                0x20021634                Man_timer_on_off_btn
 .bss.Manual_timer_reset_btn
                0x20021658       0x24 app/hdudispfmenu.o
                0x20021658                Manual_timer_reset_btn
 .bss.Dummy_button
                0x2002167c       0x24 app/hdudispfmenu.o
                0x2002167c                Dummy_button
 .bss.Set_button
                0x200216a0       0x24 app/hdudispfmenu.o
                0x200216a0                Set_button
 .bss.Top_button_1
                0x200216c4       0x24 app/hdudispfmenu.o
                0x200216c4                Top_button_1
 .bss.Top_button_2
                0x200216e8       0x24 app/hdudispfmenu.o
                0x200216e8                Top_button_2
 .bss.Top_button_3
                0x2002170c       0x24 app/hdudispfmenu.o
                0x2002170c                Top_button_3
 .bss.Top_button_4
                0x20021730       0x24 app/hdudispfmenu.o
                0x20021730                Top_button_4
 .bss.Top_button_5
                0x20021754       0x24 app/hdudispfmenu.o
                0x20021754                Top_button_5
 .bss.Top_button_6
                0x20021778       0x24 app/hdudispfmenu.o
                0x20021778                Top_button_6
 .bss.Timer_button
                0x2002179c       0x24 app/hdudispfmenu.o
                0x2002179c                Timer_button
 .bss.Page_button
                0x200217c0       0x24 app/hdudispfmenu.o
                0x200217c0                Page_button
 .bss.Top_button_minus
                0x200217e4       0x24 app/hdudispfmenu.o
                0x200217e4                Top_button_minus
 .bss.Top_button_plus
                0x20021808       0x24 app/hdudispfmenu.o
                0x20021808                Top_button_plus
 .bss.Brightness_button
                0x2002182c       0x24 app/hdudispfmenu.o
                0x2002182c                Brightness_button
 .bss.Fuel_flow_message
                0x20021850       0x24 app/hdudispfmenu.o
                0x20021850                Fuel_flow_message
 .bss.Sys_info_message_box
                0x20021874       0x24 app/hdudispfmenu.o
                0x20021874                Sys_info_message_box
 .bss.Encoder_cool_down_select
                0x20021898       0x24 app/hdudispfmenu.o
                0x20021898                Encoder_cool_down_select
 .bss.Calibration_box
                0x200218bc       0x24 app/hdudispfmenu.o
                0x200218bc                Calibration_box
 .bss.Engine_calibration_box
                0x200218e0       0x24 app/hdudispfmenu.o
                0x200218e0                Engine_calibration_box
 .bss.Parameter_calibration_box
                0x20021904       0x24 app/hdudispfmenu.o
                0x20021904                Parameter_calibration_box
 .bss.Next_box  0x20021928       0x24 app/hdudispfmenu.o
                0x20021928                Next_box
 .bss.Offset_box
                0x2002194c       0x24 app/hdudispfmenu.o
                0x2002194c                Offset_box
 .bss.Gain_box  0x20021970       0x24 app/hdudispfmenu.o
                0x20021970                Gain_box
 .bss.Top_menu  0x20021994       0x38 app/hdudispfmenu.o
                0x20021994                Top_menu
 .bss.Cool_down_select
                0x200219cc        0x1 app/hdudispfmenu.o
                0x200219cc                Cool_down_select
 .bss.Fuel_flow_select
                0x200219cd        0x1 app/hdudispfmenu.o
                0x200219cd                Fuel_flow_select
 *fill*         0x200219ce        0x2 
 .bss.Fuel_flow_data
                0x200219d0        0x4 app/hdudispfmenu.o
                0x200219d0                Fuel_flow_data
 .bss.Ff_a429_tag
                0x200219d4        0x1 app/hdudispfmenu.o
                0x200219d4                Ff_a429_tag
 .bss.s8_had_max.8384
                0x200219d5        0x1 app/hdudispfmenu.o
 .bss.s8_had_min.8385
                0x200219d6        0x1 app/hdudispfmenu.o
 .bss.s8_had_max.8392
                0x200219d7        0x1 app/hdudispfmenu.o
 .bss.s8_had_min.8393
                0x200219d8        0x1 app/hdudispfmenu.o
 *fill*         0x200219d9        0x1 
 .bss.Display_width
                0x200219da        0x2 app/hdudispfmenu2.o
                0x200219da                Display_width
 .bss.Display_height
                0x200219dc        0x2 app/hdudispfmenu2.o
                0x200219dc                Display_height
 .bss.Global_check
                0x200219de        0x1 app/hdudispfpdicheck.o
                0x200219de                Global_check
 *fill*         0x200219df        0x1 
 .bss.Pdi_error_count
                0x200219e0        0x2 app/hdudispfpdicheck.o
                0x200219e0                Pdi_error_count
 *fill*         0x200219e2        0x2 
 .bss.Page_check
                0x200219e4       0x14 app/hdudispfpdicheck.o
                0x200219e4                Page_check
 .bss.Global_parameter_error
                0x200219f8        0x1 app/hdudispfpdicheck.o
                0x200219f8                Global_parameter_error
 *fill*         0x200219f9        0x3 
 .bss.Page_parameter_error
                0x200219fc       0x14 app/hdudispfpdicheck.o
                0x200219fc                Page_parameter_error
 .bss.Index_value
                0x20021a10        0x1 app/hdudispfpdicheck.o
                0x20021a10                Index_value
 *fill*         0x20021a11        0x3 
 .bss.Timer_axis_error
                0x20021a14        0x4 app/hdudispfpdicheck.o
                0x20021a14                Timer_axis_error
 .bss.Acdt_axis_error
                0x20021a18        0x4 app/hdudispfpdicheck.o
                0x20021a18                Acdt_axis_error
 .bss.Cas_error
                0x20021a1c        0x4 app/hdudispfpdicheck.o
                0x20021a1c                Cas_error
 .bss.Exceed_error
                0x20021a20        0x4 app/hdudispfpdicheck.o
                0x20021a20                Exceed_error
 .bss.Ex_timer_error
                0x20021a24        0x4 app/hdudispfpdicheck.o
                0x20021a24                Ex_timer_error
 .bss.Cas_word_cnt
                0x20021a28        0x2 app/hdudispfpdidata.o
                0x20021a28                Cas_word_cnt
 .bss.Exceed_cnt
                0x20021a2a        0x1 app/hdudispfpdidata.o
                0x20021a2a                Exceed_cnt
 .bss.Bg_cnt    0x20021a2b        0x1 app/hdudispfpdidata.o
                0x20021a2b                Bg_cnt
 .bss.Elog_trig_bool
                0x20021a2c        0x1 app/hdudispfpdidata.o
                0x20021a2c                Elog_trig_bool
 .bss.Elog_param
                0x20021a2d        0x1 app/hdudispfpdidata.o
                0x20021a2d                Elog_param
 .bss.Acdt_parameters
                0x20021a2e        0x1 app/hdudispfpdidata.o
                0x20021a2e                Acdt_parameters
 .bss.Caslocationset_parameters
                0x20021a2f        0x1 app/hdudispfpdidata.o
                0x20021a2f                Caslocationset_parameters
 .bss.Scu_label_flag
                0x20021a30        0x1 app/hdudispfpdidata.o
                0x20021a30                Scu_label_flag
 *fill*         0x20021a31        0x3 
 .bss.Bg_parameter_occurrence
                0x20021a34       0x3c app/hdudispfpdidata.o
                0x20021a34                Bg_parameter_occurrence
 .bss.Rd_parameter_occurrence
                0x20021a70       0x3c app/hdudispfpdidata.o
                0x20021a70                Rd_parameter_occurrence
 .bss.Nb_parameter_occurrence
                0x20021aac       0x64 app/hdudispfpdidata.o
                0x20021aac                Nb_parameter_occurrence
 .bss.Cg_parameter_occurrence
                0x20021b10       0x3c app/hdudispfpdidata.o
                0x20021b10                Cg_parameter_occurrence
 .bss.Tb_parameter_occurrence
                0x20021b4c       0x64 app/hdudispfpdidata.o
                0x20021b4c                Tb_parameter_occurrence
 .bss.Text_parameter_occurrence
                0x20021bb0       0x3c app/hdudispfpdidata.o
                0x20021bb0                Text_parameter_occurrence
 .bss.Page_name_char_cnt
                0x20021bec        0x1 app/hdudispfpdidata.o
                0x20021bec                Page_name_char_cnt
 *fill*         0x20021bed        0x3 
 .bss.Bg_lookuptable
                0x20021bf0       0xf0 app/hdudispfpdidata.o
                0x20021bf0                Bg_lookuptable
 .bss.Rd_lookuptable
                0x20021ce0       0xf0 app/hdudispfpdidata.o
                0x20021ce0                Rd_lookuptable
 .bss.Cg_lookuptable
                0x20021dd0       0xf0 app/hdudispfpdidata.o
                0x20021dd0                Cg_lookuptable
 .bss.Page_settings
                0x20021ec0     0xca1c app/hdudispfpdidata.o
                0x20021ec0                Page_settings
 .bss.Cas_messages
                0x2002e8dc      0x5a0 app/hdudispfpdidata.o
                0x2002e8dc                Cas_messages
 .bss.Exceed_data
                0x2002ee7c      0x420 app/hdudispfpdidata.o
                0x2002ee7c                Exceed_data
 .bss.A429_cfg_data
                0x2002f29c     0x2400 app/hdudispfpdidata.o
                0x2002f29c                A429_cfg_data
 .bss.Md_engine_flag
                0x2003169c        0x1 app/hdudispfpdidata.o
                0x2003169c                Md_engine_flag
 .bss.Max_num_of_pages
                0x2003169d        0x1 app/hdudispfpdidata.o
                0x2003169d                Max_num_of_pages
 .bss.Acdt_flag
                0x2003169e        0x1 app/hdudispfpdidata.o
                0x2003169e                Acdt_flag
 .bss.Timer_flag
                0x2003169f        0x1 app/hdudispfpdidata.o
                0x2003169f                Timer_flag
 .bss.Cond_cnt  0x200316a0        0x5 app/hdudispfpdidata.o
                0x200316a0                Cond_cnt
 *fill*         0x200316a5        0x3 
 .bss.Sem_poller_task
                0x200316a8        0x4 app/hdudispfpoller.o
                0x200316a8                Sem_poller_task
 .bss.Poller_task_stk
                0x200316ac     0x1000 app/hdudispfpoller.o
                0x200316ac                Poller_task_stk
 .bss.u16_tick_cntr.7597
                0x200326ac        0x2 app/hdudispfpoller.o
 .bss.U16_pcnt_idle
                0x200326ae        0x2 app/hdudispftbase.o
                0x200326ae                U16_pcnt_idle
 .bss.Ul_temp_os_idle_ctr
                0x200326b0        0x4 app/hdudispftbase.o
 .bss.Wdog_handle
                0x200326b4       0x10 app/hdudispfwdog.o
                0x200326b4                Wdog_handle
 .bss.Sem_cbit_task
                0x200326c4        0x4 src/hdudispfcbit.o
                0x200326c4                Sem_cbit_task
 .bss.u16tickcntr.7526
                0x200326c8        0x2 src/hdudispfcbit.o
 *fill*         0x200326ca        0x2 
 .bss.Proc_test_res
                0x200326cc        0x4 src/hdudispfpbit.o
                0x200326cc                Proc_test_res
 .bss.Pbit_test_result
                0x200326d0        0x2 src/hdudispfpbit.o
                0x200326d0                Pbit_test_result
 *fill*         0x200326d2        0x2 
 .bss.U32_critical_sr
                0x200326d4        0x4 D:\Work\Howell\MD\S17HOWDSPSW\ACCORD\Trunk\SourceCode\DisplayBoard\UCOS\Release\libUCOS.a(hdudispfoscpu.o)
                0x200326d4                U32_critical_sr
 .bss.Os_ctx_sw_ctr
                0x200326d8        0x2 D:\Work\Howell\MD\S17HOWDSPSW\ACCORD\Trunk\SourceCode\DisplayBoard\UCOS\Release\libUCOS.a(hdudispfucos.o)
                0x200326d8                Os_ctx_sw_ctr
 *fill*         0x200326da        0x2 
 .bss.Os_tcb_prio_tbl
                0x200326dc      0x100 D:\Work\Howell\MD\S17HOWDSPSW\ACCORD\Trunk\SourceCode\DisplayBoard\UCOS\Release\libUCOS.a(hdudispfucos.o)
                0x200326dc                Os_tcb_prio_tbl
 .bss.Os_tcb_high_rdy
                0x200327dc        0x4 D:\Work\Howell\MD\S17HOWDSPSW\ACCORD\Trunk\SourceCode\DisplayBoard\UCOS\Release\libUCOS.a(hdudispfucos.o)
                0x200327dc                Os_tcb_high_rdy
 .bss.Os_running
                0x200327e0        0x1 D:\Work\Howell\MD\S17HOWDSPSW\ACCORD\Trunk\SourceCode\DisplayBoard\UCOS\Release\libUCOS.a(hdudispfucos.o)
                0x200327e0                Os_running
 .bss.Os_int_nesting
                0x200327e1        0x1 D:\Work\Howell\MD\S17HOWDSPSW\ACCORD\Trunk\SourceCode\DisplayBoard\UCOS\Release\libUCOS.a(hdudispfucos.o)
                0x200327e1                Os_int_nesting
 *fill*         0x200327e2        0x2 
 .bss.Os_tcb_cur
                0x200327e4        0x4 D:\Work\Howell\MD\S17HOWDSPSW\ACCORD\Trunk\SourceCode\DisplayBoard\UCOS\Release\libUCOS.a(hdudispfucos.o)
                0x200327e4                Os_tcb_cur
 .bss.Os_idle_ctr
                0x200327e8        0x4 D:\Work\Howell\MD\S17HOWDSPSW\ACCORD\Trunk\SourceCode\DisplayBoard\UCOS\Release\libUCOS.a(hdudispfucos.o)
                0x200327e8                Os_idle_ctr
 .bss.Os_tcb_list
                0x200327ec        0x4 D:\Work\Howell\MD\S17HOWDSPSW\ACCORD\Trunk\SourceCode\DisplayBoard\UCOS\Release\libUCOS.a(hdudispfucos.o)
 .bss.Os_rdy_grp
                0x200327f0        0x1 D:\Work\Howell\MD\S17HOWDSPSW\ACCORD\Trunk\SourceCode\DisplayBoard\UCOS\Release\libUCOS.a(hdudispfucos.o)
 *fill*         0x200327f1        0x3 
 .bss.Os_rdy_tbl
                0x200327f4        0x8 D:\Work\Howell\MD\S17HOWDSPSW\ACCORD\Trunk\SourceCode\DisplayBoard\UCOS\Release\libUCOS.a(hdudispfucos.o)
 .bss.Os_lock_nesting
                0x200327fc        0x1 D:\Work\Howell\MD\S17HOWDSPSW\ACCORD\Trunk\SourceCode\DisplayBoard\UCOS\Release\libUCOS.a(hdudispfucos.o)
 *fill*         0x200327fd        0x3 
 .bss.Os_tcb_free_list
                0x20032800        0x4 D:\Work\Howell\MD\S17HOWDSPSW\ACCORD\Trunk\SourceCode\DisplayBoard\UCOS\Release\libUCOS.a(hdudispfucos.o)
 .bss.Os_event_free_list
                0x20032804        0x4 D:\Work\Howell\MD\S17HOWDSPSW\ACCORD\Trunk\SourceCode\DisplayBoard\UCOS\Release\libUCOS.a(hdudispfucos.o)
 .bss.Os_time   0x20032808        0x4 D:\Work\Howell\MD\S17HOWDSPSW\ACCORD\Trunk\SourceCode\DisplayBoard\UCOS\Release\libUCOS.a(hdudispfucos.o)
 .bss.Os_int_exit_y
                0x2003280c        0x1 D:\Work\Howell\MD\S17HOWDSPSW\ACCORD\Trunk\SourceCode\DisplayBoard\UCOS\Release\libUCOS.a(hdudispfucos.o)
 *fill*         0x2003280d        0x3 
 .bss.Os_task_idle_stk
                0x20032810      0x800 D:\Work\Howell\MD\S17HOWDSPSW\ACCORD\Trunk\SourceCode\DisplayBoard\UCOS\Release\libUCOS.a(hdudispfucos.o)
                0x20032810                Os_task_idle_stk
 .bss.Os_tcb_tbl
                0x20033010      0x600 D:\Work\Howell\MD\S17HOWDSPSW\ACCORD\Trunk\SourceCode\DisplayBoard\UCOS\Release\libUCOS.a(hdudispfucos.o)
 .bss.Os_event_tbl
                0x20033610       0xf0 D:\Work\Howell\MD\S17HOWDSPSW\ACCORD\Trunk\SourceCode\DisplayBoard\UCOS\Release\libUCOS.a(hdudispfucos.o)
 .bss.Bitmap_revno
                0x20033700       0x19 D:\Work\Howell\MD\S17HOWDSPSW\ACCORD\Trunk\SourceCode\DisplayBoard\COMMON\Release\libCOMMON.a(hdudispfa429.o)
                0x20033700                Bitmap_revno
 *fill*         0x20033719        0x3 
 .bss.Config_id
                0x2003371c       0x37 D:\Work\Howell\MD\S17HOWDSPSW\ACCORD\Trunk\SourceCode\DisplayBoard\COMMON\Release\libCOMMON.a(hdudispfa429.o)
                0x2003371c                Config_id
 *fill*         0x20033753        0x1 
 .bss.Dau_config_id_disp
                0x20033754       0x37 D:\Work\Howell\MD\S17HOWDSPSW\ACCORD\Trunk\SourceCode\DisplayBoard\COMMON\Release\libCOMMON.a(hdudispfa429.o)
                0x20033754                Dau_config_id_disp
 *fill*         0x2003378b        0x1 
 .bss.Dau_config_id_dau
                0x2003378c       0x37 D:\Work\Howell\MD\S17HOWDSPSW\ACCORD\Trunk\SourceCode\DisplayBoard\COMMON\Release\libCOMMON.a(hdudispfa429.o)
                0x2003378c                Dau_config_id_dau
 *fill*         0x200337c3        0x1 
 .bss.Eiufli_part
                0x200337c4       0x1f D:\Work\Howell\MD\S17HOWDSPSW\ACCORD\Trunk\SourceCode\DisplayBoard\COMMON\Release\libCOMMON.a(hdudispfa429.o)
                0x200337c4                Eiufli_part
 *fill*         0x200337e3        0x1 
 .bss.Eiucfg_part
                0x200337e4       0x1f D:\Work\Howell\MD\S17HOWDSPSW\ACCORD\Trunk\SourceCode\DisplayBoard\COMMON\Release\libCOMMON.a(hdudispfa429.o)
                0x200337e4                Eiucfg_part
 *fill*         0x20033803        0x1 
 .bss.Eiucmub_part
                0x20033804       0x1f D:\Work\Howell\MD\S17HOWDSPSW\ACCORD\Trunk\SourceCode\DisplayBoard\COMMON\Release\libCOMMON.a(hdudispfa429.o)
                0x20033804                Eiucmub_part
 *fill*         0x20033823        0x1 
 .bss.Eiucmuf_part
                0x20033824       0x1f D:\Work\Howell\MD\S17HOWDSPSW\ACCORD\Trunk\SourceCode\DisplayBoard\COMMON\Release\libCOMMON.a(hdudispfa429.o)
                0x20033824                Eiucmuf_part
 *fill*         0x20033843        0x1 
 .bss.Eiucmum_part
                0x20033844       0x1f D:\Work\Howell\MD\S17HOWDSPSW\ACCORD\Trunk\SourceCode\DisplayBoard\COMMON\Release\libCOMMON.a(hdudispfa429.o)
                0x20033844                Eiucmum_part
 .bss.A429_data_recieved
                0x20033863        0x1 D:\Work\Howell\MD\S17HOWDSPSW\ACCORD\Trunk\SourceCode\DisplayBoard\COMMON\Release\libCOMMON.a(hdudispfa429.o)
                0x20033863                A429_data_recieved
 .bss.A429_data_recieved_0370
                0x20033864        0x1 D:\Work\Howell\MD\S17HOWDSPSW\ACCORD\Trunk\SourceCode\DisplayBoard\COMMON\Release\libCOMMON.a(hdudispfa429.o)
                0x20033864                A429_data_recieved_0370
 .bss.Cas_data_recieved
                0x20033865        0x1 D:\Work\Howell\MD\S17HOWDSPSW\ACCORD\Trunk\SourceCode\DisplayBoard\COMMON\Release\libCOMMON.a(hdudispfa429.o)
                0x20033865                Cas_data_recieved
 .bss.Cas_wog_data_recieved
                0x20033866        0x1 D:\Work\Howell\MD\S17HOWDSPSW\ACCORD\Trunk\SourceCode\DisplayBoard\COMMON\Release\libCOMMON.a(hdudispfa429.o)
                0x20033866                Cas_wog_data_recieved
 *fill*         0x20033867        0x1 
 .bss.Dau_timer
                0x20033868        0x4 D:\Work\Howell\MD\S17HOWDSPSW\ACCORD\Trunk\SourceCode\DisplayBoard\COMMON\Release\libCOMMON.a(hdudispfa429.o)
                0x20033868                Dau_timer
 .bss.Scu_timer
                0x2003386c        0x6 D:\Work\Howell\MD\S17HOWDSPSW\ACCORD\Trunk\SourceCode\DisplayBoard\COMMON\Release\libCOMMON.a(hdudispfa429.o)
                0x2003386c                Scu_timer
 .bss.Du_position
                0x20033872        0x1 D:\Work\Howell\MD\S17HOWDSPSW\ACCORD\Trunk\SourceCode\DisplayBoard\COMMON\Release\libCOMMON.a(hdudispfa429.o)
                0x20033872                Du_position
 .bss.Du_identified
                0x20033873        0x1 D:\Work\Howell\MD\S17HOWDSPSW\ACCORD\Trunk\SourceCode\DisplayBoard\COMMON\Release\libCOMMON.a(hdudispfa429.o)
                0x20033873                Du_identified
 .bss.U16_wdog  0x20033874        0x2 D:\Work\Howell\MD\S17HOWDSPSW\ACCORD\Trunk\SourceCode\DisplayBoard\COMMON\Release\libCOMMON.a(hdudispfa429.o)
 .bss.Fault_log_adv
                0x20033876        0x1 D:\Work\Howell\MD\S17HOWDSPSW\ACCORD\Trunk\SourceCode\DisplayBoard\COMMON\Release\libCOMMON.a(hdudispfa429.o)
                0x20033876                Fault_log_adv
 *fill*         0x20033877        0x1 
 .bss.Sys_info_words
                0x20033878       0xf3 D:\Work\Howell\MD\S17HOWDSPSW\ACCORD\Trunk\SourceCode\DisplayBoard\COMMON\Release\libCOMMON.a(hdudispfa429.o)
 *fill*         0x2003396b        0x1 
 .bss.A429_data
                0x2003396c     0x4000 D:\Work\Howell\MD\S17HOWDSPSW\ACCORD\Trunk\SourceCode\DisplayBoard\COMMON\Release\libCOMMON.a(hdudispfa429.o)
                0x2003396c                A429_data
 .bss.Port1_label_count
                0x2003796c        0x2 D:\Work\Howell\MD\S17HOWDSPSW\ACCORD\Trunk\SourceCode\DisplayBoard\COMMON\Release\libCOMMON.a(hdudispfa429.o)
                0x2003796c                Port1_label_count
 .bss.Port2_label_count
                0x2003796e        0x2 D:\Work\Howell\MD\S17HOWDSPSW\ACCORD\Trunk\SourceCode\DisplayBoard\COMMON\Release\libCOMMON.a(hdudispfa429.o)
                0x2003796e                Port2_label_count
 .bss.Cas_label_start_idx
                0x20037970        0x2 D:\Work\Howell\MD\S17HOWDSPSW\ACCORD\Trunk\SourceCode\DisplayBoard\COMMON\Release\libCOMMON.a(hdudispfa429.o)
                0x20037970                Cas_label_start_idx
 *fill*         0x20037972        0x2 
 .bss.Offset_bool
                0x20037974        0x4 D:\Work\Howell\MD\S17HOWDSPSW\ACCORD\Trunk\SourceCode\DisplayBoard\COMMON\Release\libCOMMON.a(hdudispfa429.o)
                0x20037974                Offset_bool
 .bss.Gain_bool
                0x20037978        0x4 D:\Work\Howell\MD\S17HOWDSPSW\ACCORD\Trunk\SourceCode\DisplayBoard\COMMON\Release\libCOMMON.a(hdudispfa429.o)
                0x20037978                Gain_bool
 .bss.Dau_config_info
                0x2003797c       0x19 D:\Work\Howell\MD\S17HOWDSPSW\ACCORD\Trunk\SourceCode\DisplayBoard\COMMON\Release\libCOMMON.a(hdudispfa429.o)
                0x2003797c                Dau_config_info
 *fill*         0x20037995        0x3 
 .bss.Sys_airframe_words
                0x20037998       0x6c D:\Work\Howell\MD\S17HOWDSPSW\ACCORD\Trunk\SourceCode\DisplayBoard\COMMON\Release\libCOMMON.a(hdudispfa429.o)
 .bss.Scu_bg_lim_val
                0x20037a04        0x8 D:\Work\Howell\MD\S17HOWDSPSW\ACCORD\Trunk\SourceCode\DisplayBoard\COMMON\Release\libCOMMON.a(hdudispfa429.o)
                0x20037a04                Scu_bg_lim_val
 .bss.Scu_fty_offset_flag
                0x20037a0c        0x1 D:\Work\Howell\MD\S17HOWDSPSW\ACCORD\Trunk\SourceCode\DisplayBoard\COMMON\Release\libCOMMON.a(hdudispfa429.o)
                0x20037a0c                Scu_fty_offset_flag
 .bss.ff_once_flag.7139
                0x20037a0d        0x1 D:\Work\Howell\MD\S17HOWDSPSW\ACCORD\Trunk\SourceCode\DisplayBoard\COMMON\Release\libCOMMON.a(hdudispfa429.o)
 *fill*         0x20037a0e        0x2 
 .bss.Nor_handle
                0x20037a10       0x48 D:\Work\Howell\MD\S17HOWDSPSW\ACCORD\Trunk\SourceCode\DisplayBoard\COMMON\Release\libCOMMON.a(hdudispfbspnor.o)
 .bss.Timing    0x20037a58       0x1c D:\Work\Howell\MD\S17HOWDSPSW\ACCORD\Trunk\SourceCode\DisplayBoard\COMMON\Release\libCOMMON.a(hdudispfbspnor.o)
 .bss.U16_cas_words
                0x20037a74       0x10 D:\Work\Howell\MD\S17HOWDSPSW\ACCORD\Trunk\SourceCode\DisplayBoard\COMMON\Release\libCOMMON.a(hdudispfcas.o)
                0x20037a74                U16_cas_words
 .bss.U16_cas_new_words
                0x20037a84       0x10 D:\Work\Howell\MD\S17HOWDSPSW\ACCORD\Trunk\SourceCode\DisplayBoard\COMMON\Release\libCOMMON.a(hdudispfcas.o)
                0x20037a84                U16_cas_new_words
 .bss.U16_cas_new_shadow
                0x20037a94       0x10 D:\Work\Howell\MD\S17HOWDSPSW\ACCORD\Trunk\SourceCode\DisplayBoard\COMMON\Release\libCOMMON.a(hdudispfcas.o)
                0x20037a94                U16_cas_new_shadow
 .bss.U16_cas_old_shadow
                0x20037aa4       0x10 D:\Work\Howell\MD\S17HOWDSPSW\ACCORD\Trunk\SourceCode\DisplayBoard\COMMON\Release\libCOMMON.a(hdudispfcas.o)
                0x20037aa4                U16_cas_old_shadow
 .bss.Crc_handle
                0x20037ab4       0x24 D:\Work\Howell\MD\S17HOWDSPSW\ACCORD\Trunk\SourceCode\DisplayBoard\COMMON\Release\libCOMMON.a(hdudispfcrc.o)
 .bss.Dma_handle
                0x20037ad8       0x60 D:\Work\Howell\MD\S17HOWDSPSW\ACCORD\Trunk\SourceCode\DisplayBoard\COMMON\Release\libCOMMON.a(hdudispfdma2.o)
                0x20037ad8                Dma_handle
 .bss.U32_clr_address
                0x20037b38        0x4 D:\Work\Howell\MD\S17HOWDSPSW\ACCORD\Trunk\SourceCode\DisplayBoard\COMMON\Release\libCOMMON.a(hdudispfdma2.o)
 .bss.U32_data_length
                0x20037b3c        0x4 D:\Work\Howell\MD\S17HOWDSPSW\ACCORD\Trunk\SourceCode\DisplayBoard\COMMON\Release\libCOMMON.a(hdudispfdma2.o)
 .bss.Transfer_error_detected
                0x20037b40        0x4 D:\Work\Howell\MD\S17HOWDSPSW\ACCORD\Trunk\SourceCode\DisplayBoard\COMMON\Release\libCOMMON.a(hdudispfdma2.o)
 .bss.Dma2d_handle
                0x20037b44       0x40 D:\Work\Howell\MD\S17HOWDSPSW\ACCORD\Trunk\SourceCode\DisplayBoard\COMMON\Release\libCOMMON.a(hdudispfdma2d.o)
                0x20037b44                Dma2d_handle
 .bss.Dma2d_mode
                0x20037b84        0x1 D:\Work\Howell\MD\S17HOWDSPSW\ACCORD\Trunk\SourceCode\DisplayBoard\COMMON\Release\libCOMMON.a(hdudispfdma2d.o)
 *fill*         0x20037b85        0x3 
 .bss.Clear_addr
                0x20037b88        0x4 D:\Work\Howell\MD\S17HOWDSPSW\ACCORD\Trunk\SourceCode\DisplayBoard\COMMON\Release\libCOMMON.a(hdudispfdma2d.o)
 .bss.Clear_count
                0x20037b8c        0x4 D:\Work\Howell\MD\S17HOWDSPSW\ACCORD\Trunk\SourceCode\DisplayBoard\COMMON\Release\libCOMMON.a(hdudispfdma2d.o)
 .bss.static_color.6060
                0x20037b90        0x2 D:\Work\Howell\MD\S17HOWDSPSW\ACCORD\Trunk\SourceCode\DisplayBoard\COMMON\Release\libCOMMON.a(hdudispfdma2d.o)
 *fill*         0x20037b92        0x2 
 .bss.u32_color.6061
                0x20037b94        0x4 D:\Work\Howell\MD\S17HOWDSPSW\ACCORD\Trunk\SourceCode\DisplayBoard\COMMON\Release\libCOMMON.a(hdudispfdma2d.o)
 .bss.static_color.6084
                0x20037b98        0x2 D:\Work\Howell\MD\S17HOWDSPSW\ACCORD\Trunk\SourceCode\DisplayBoard\COMMON\Release\libCOMMON.a(hdudispfdma2d.o)
 *fill*         0x20037b9a        0x2 
 .bss.u32_color.6083
                0x20037b9c        0x4 D:\Work\Howell\MD\S17HOWDSPSW\ACCORD\Trunk\SourceCode\DisplayBoard\COMMON\Release\libCOMMON.a(hdudispfdma2d.o)
 .bss.S32_data_exceed
                0x20037ba0       0x10 D:\Work\Howell\MD\S17HOWDSPSW\ACCORD\Trunk\SourceCode\DisplayBoard\COMMON\Release\libCOMMON.a(hdudispfglobalsettings.o)
                0x20037ba0                S32_data_exceed
 .bss.Pull_flag
                0x20037bb0        0x1 D:\Work\Howell\MD\S17HOWDSPSW\ACCORD\Trunk\SourceCode\DisplayBoard\COMMON\Release\libCOMMON.a(hdudispfglobalsettings.o)
                0x20037bb0                Pull_flag
 *fill*         0x20037bb1        0x1 
 .bss.Ex_id_count
                0x20037bb2        0x2 D:\Work\Howell\MD\S17HOWDSPSW\ACCORD\Trunk\SourceCode\DisplayBoard\COMMON\Release\libCOMMON.a(hdudispfglobalsettings.o)
                0x20037bb2                Ex_id_count
 .bss.Log_overflow
                0x20037bb4        0x1 D:\Work\Howell\MD\S17HOWDSPSW\ACCORD\Trunk\SourceCode\DisplayBoard\COMMON\Release\libCOMMON.a(hdudispfglobalsettings.o)
                0x20037bb4                Log_overflow
 .bss.Ft_log_overflow
                0x20037bb5        0x1 D:\Work\Howell\MD\S17HOWDSPSW\ACCORD\Trunk\SourceCode\DisplayBoard\COMMON\Release\libCOMMON.a(hdudispfglobalsettings.o)
                0x20037bb5                Ft_log_overflow
 .bss.Flight_count
                0x20037bb6        0x2 D:\Work\Howell\MD\S17HOWDSPSW\ACCORD\Trunk\SourceCode\DisplayBoard\COMMON\Release\libCOMMON.a(hdudispfglobalsettings.o)
                0x20037bb6                Flight_count
 .bss.Exceedance_startup_check
                0x20037bb8        0x5 D:\Work\Howell\MD\S17HOWDSPSW\ACCORD\Trunk\SourceCode\DisplayBoard\COMMON\Release\libCOMMON.a(hdudispfglobalsettings.o)
                0x20037bb8                Exceedance_startup_check
 .bss.Nv_ram_read
                0x20037bbd        0x1 D:\Work\Howell\MD\S17HOWDSPSW\ACCORD\Trunk\SourceCode\DisplayBoard\COMMON\Release\libCOMMON.a(hdudispfglobalsettings.o)
 *fill*         0x20037bbe        0x2 
 .bss.Prev_peak_val
                0x20037bc0      0x168 D:\Work\Howell\MD\S17HOWDSPSW\ACCORD\Trunk\SourceCode\DisplayBoard\COMMON\Release\libCOMMON.a(hdudispfglobalsettings.o)
 .bss.Prev_duration_val
                0x20037d28      0x168 D:\Work\Howell\MD\S17HOWDSPSW\ACCORD\Trunk\SourceCode\DisplayBoard\COMMON\Release\libCOMMON.a(hdudispfglobalsettings.o)
 .bss.Exceedance_log
                0x20037e90      0x870 D:\Work\Howell\MD\S17HOWDSPSW\ACCORD\Trunk\SourceCode\DisplayBoard\COMMON\Release\libCOMMON.a(hdudispfglobalsettings.o)
                0x20037e90                Exceedance_log
 .bss.Flight_timer_exceed
                0x20038700      0x168 D:\Work\Howell\MD\S17HOWDSPSW\ACCORD\Trunk\SourceCode\DisplayBoard\COMMON\Release\libCOMMON.a(hdudispfglobalsettings.o)
                0x20038700                Flight_timer_exceed
 .bss.Flight_timer_mirror_exceed
                0x20038868      0x168 D:\Work\Howell\MD\S17HOWDSPSW\ACCORD\Trunk\SourceCode\DisplayBoard\COMMON\Release\libCOMMON.a(hdudispfglobalsettings.o)
 .bss.Demo_mode
                0x200389d0        0x1 D:\Work\Howell\MD\S17HOWDSPSW\ACCORD\Trunk\SourceCode\DisplayBoard\COMMON\Release\libCOMMON.a(hdudispfglobalsettings.o)
                0x200389d0                Demo_mode
 .bss.Demo_mode_activate
                0x200389d1        0x1 D:\Work\Howell\MD\S17HOWDSPSW\ACCORD\Trunk\SourceCode\DisplayBoard\COMMON\Release\libCOMMON.a(hdudispfglobalsettings.o)
                0x200389d1                Demo_mode_activate
 .bss.Data_received
                0x200389d2        0x1 D:\Work\Howell\MD\S17HOWDSPSW\ACCORD\Trunk\SourceCode\DisplayBoard\COMMON\Release\libCOMMON.a(hdudispfglobalsettings.o)
                0x200389d2                Data_received
 .bss.Fuel_flow_state
                0x200389d3        0x1 D:\Work\Howell\MD\S17HOWDSPSW\ACCORD\Trunk\SourceCode\DisplayBoard\COMMON\Release\libCOMMON.a(hdudispfglobalsettings.o)
                0x200389d3                Fuel_flow_state
 .bss.Active_eiu
                0x200389d4        0x1 D:\Work\Howell\MD\S17HOWDSPSW\ACCORD\Trunk\SourceCode\DisplayBoard\COMMON\Release\libCOMMON.a(hdudispfglobalsettings.o)
                0x200389d4                Active_eiu
 .bss.Nv_crc_fail
                0x200389d5        0x1 D:\Work\Howell\MD\S17HOWDSPSW\ACCORD\Trunk\SourceCode\DisplayBoard\COMMON\Release\libCOMMON.a(hdudispfglobalsettings.o)
                0x200389d5                Nv_crc_fail
 *fill*         0x200389d6        0x2 
 .bss.Nv_storage
                0x200389d8       0xbc D:\Work\Howell\MD\S17HOWDSPSW\ACCORD\Trunk\SourceCode\DisplayBoard\COMMON\Release\libCOMMON.a(hdudispfglobalsettings.o)
 .bss.Nv_storage_in
                0x20038a94       0xbc D:\Work\Howell\MD\S17HOWDSPSW\ACCORD\Trunk\SourceCode\DisplayBoard\COMMON\Release\libCOMMON.a(hdudispfglobalsettings.o)
 .bss.init_exceed_id.7903
                0x20038b50       0x5a D:\Work\Howell\MD\S17HOWDSPSW\ACCORD\Trunk\SourceCode\DisplayBoard\COMMON\Release\libCOMMON.a(hdudispfglobalsettings.o)
 *fill*         0x20038baa        0x2 
 .bss.timer_reset_state.7907
                0x20038bac        0x7 D:\Work\Howell\MD\S17HOWDSPSW\ACCORD\Trunk\SourceCode\DisplayBoard\COMMON\Release\libCOMMON.a(hdudispfglobalsettings.o)
 *fill*         0x20038bb3        0x1 
 .bss.init_duration.7905
                0x20038bb4       0x5a D:\Work\Howell\MD\S17HOWDSPSW\ACCORD\Trunk\SourceCode\DisplayBoard\COMMON\Release\libCOMMON.a(hdudispfglobalsettings.o)
 *fill*         0x20038c0e        0x2 
 .bss.duration_counter.7906
                0x20038c10      0x168 D:\Work\Howell\MD\S17HOWDSPSW\ACCORD\Trunk\SourceCode\DisplayBoard\COMMON\Release\libCOMMON.a(hdudispfglobalsettings.o)
 .bss.init_peak_value.7904
                0x20038d78       0x5a D:\Work\Howell\MD\S17HOWDSPSW\ACCORD\Trunk\SourceCode\DisplayBoard\COMMON\Release\libCOMMON.a(hdudispfglobalsettings.o)
 *fill*         0x20038dd2        0x2 
 .bss.N1_value  0x20038dd4        0x4 D:\Work\Howell\MD\S17HOWDSPSW\ACCORD\Trunk\SourceCode\DisplayBoard\COMMON\Release\libCOMMON.a(hdudispflmsscu.o)
                0x20038dd4                N1_value
 .bss.Fault_set
                0x20038dd8        0x1 D:\Work\Howell\MD\S17HOWDSPSW\ACCORD\Trunk\SourceCode\DisplayBoard\COMMON\Release\libCOMMON.a(hdudispflmsscu.o)
 .bss.Arinc_fault_set
                0x20038dd9        0x1 D:\Work\Howell\MD\S17HOWDSPSW\ACCORD\Trunk\SourceCode\DisplayBoard\COMMON\Release\libCOMMON.a(hdudispflmsscu.o)
 .bss.Ssm_ncd   0x20038dda        0x1 D:\Work\Howell\MD\S17HOWDSPSW\ACCORD\Trunk\SourceCode\DisplayBoard\COMMON\Release\libCOMMON.a(hdudispflmsscu.o)
 .bss.Stop_log  0x20038ddb        0x1 D:\Work\Howell\MD\S17HOWDSPSW\ACCORD\Trunk\SourceCode\DisplayBoard\COMMON\Release\libCOMMON.a(hdudispflmsscu.o)
 .bss.Stop_ft_log
                0x20038ddc        0x1 D:\Work\Howell\MD\S17HOWDSPSW\ACCORD\Trunk\SourceCode\DisplayBoard\COMMON\Release\libCOMMON.a(hdudispflmsscu.o)
 *fill*         0x20038ddd        0x3 
 .bss.Fault_timer
                0x20038de0       0x18 D:\Work\Howell\MD\S17HOWDSPSW\ACCORD\Trunk\SourceCode\DisplayBoard\COMMON\Release\libCOMMON.a(hdudispflmsscu.o)
                0x20038de0                Fault_timer
 .bss.Fault_timer_mirror
                0x20038df8       0x18 D:\Work\Howell\MD\S17HOWDSPSW\ACCORD\Trunk\SourceCode\DisplayBoard\COMMON\Release\libCOMMON.a(hdudispflmsscu.o)
 .bss.Param_ssm_validity
                0x20038e10        0x6 D:\Work\Howell\MD\S17HOWDSPSW\ACCORD\Trunk\SourceCode\DisplayBoard\COMMON\Release\libCOMMON.a(hdudispflmsscu.o)
 .bss.Flt_id_count
                0x20038e16        0x2 D:\Work\Howell\MD\S17HOWDSPSW\ACCORD\Trunk\SourceCode\DisplayBoard\COMMON\Release\libCOMMON.a(hdudispflmsscu.o)
                0x20038e16                Flt_id_count
 .bss.index_flag.7843
                0x20038e18        0x5 D:\Work\Howell\MD\S17HOWDSPSW\ACCORD\Trunk\SourceCode\DisplayBoard\COMMON\Release\libCOMMON.a(hdudispflmsscu.o)
 *fill*         0x20038e1d        0x3 
 .bss.index.7842
                0x20038e20        0x5 D:\Work\Howell\MD\S17HOWDSPSW\ACCORD\Trunk\SourceCode\DisplayBoard\COMMON\Release\libCOMMON.a(hdudispflmsscu.o)
 *fill*         0x20038e25        0x3 
 .bss.index_flag.7854
                0x20038e28        0x4 D:\Work\Howell\MD\S17HOWDSPSW\ACCORD\Trunk\SourceCode\DisplayBoard\COMMON\Release\libCOMMON.a(hdudispflmsscu.o)
 .bss.index.7853
                0x20038e2c        0x4 D:\Work\Howell\MD\S17HOWDSPSW\ACCORD\Trunk\SourceCode\DisplayBoard\COMMON\Release\libCOMMON.a(hdudispflmsscu.o)
 .bss.err_set.7871
                0x20038e30        0x1 D:\Work\Howell\MD\S17HOWDSPSW\ACCORD\Trunk\SourceCode\DisplayBoard\COMMON\Release\libCOMMON.a(hdudispflmsscu.o)
 .bss.ft_index_flag.7870
                0x20038e31        0x1 D:\Work\Howell\MD\S17HOWDSPSW\ACCORD\Trunk\SourceCode\DisplayBoard\COMMON\Release\libCOMMON.a(hdudispflmsscu.o)
 .bss.ft_index.7869
                0x20038e32        0x1 D:\Work\Howell\MD\S17HOWDSPSW\ACCORD\Trunk\SourceCode\DisplayBoard\COMMON\Release\libCOMMON.a(hdudispflmsscu.o)
 .bss.data_set_flag.7882
                0x20038e33        0x1 D:\Work\Howell\MD\S17HOWDSPSW\ACCORD\Trunk\SourceCode\DisplayBoard\COMMON\Release\libCOMMON.a(hdudispflmsscu.o)
 .bss.param_timer_reset_stat.7881
                0x20038e34        0x6 D:\Work\Howell\MD\S17HOWDSPSW\ACCORD\Trunk\SourceCode\DisplayBoard\COMMON\Release\libCOMMON.a(hdudispflmsscu.o)
 *fill*         0x20038e3a        0x2 
 .bss.Empty_strng
                0x20038e3c        0x2 D:\Work\Howell\MD\S17HOWDSPSW\ACCORD\Trunk\SourceCode\DisplayBoard\COMMON\Release\libCOMMON.a(hdudispfpara.o)
 *fill*         0x20038e3e        0x2 
 .bss.Empty_str
                0x20038e40        0x1 D:\Work\Howell\MD\S17HOWDSPSW\ACCORD\Trunk\SourceCode\DisplayBoard\COMMON\Release\libCOMMON.a(hdudispfpara.o)
 *fill*         0x20038e41        0x3 
 .bss.U16_message_words
                0x20038e44        0x6 D:\Work\Howell\MD\S17HOWDSPSW\ACCORD\Trunk\SourceCode\DisplayBoard\COMMON\Release\libCOMMON.a(hdudispfpara.o)
                0x20038e44                U16_message_words
 *fill*         0x20038e4a        0x2 
 .bss.U16_old_message_words
                0x20038e4c        0x6 D:\Work\Howell\MD\S17HOWDSPSW\ACCORD\Trunk\SourceCode\DisplayBoard\COMMON\Release\libCOMMON.a(hdudispfpara.o)
                0x20038e4c                U16_old_message_words
 *fill*         0x20038e52        0x2 
 .bss.Message_list
                0x20038e54       0xc4 D:\Work\Howell\MD\S17HOWDSPSW\ACCORD\Trunk\SourceCode\DisplayBoard\COMMON\Release\libCOMMON.a(hdudispfpara.o)
                0x20038e54                Message_list
 .bss.Pc_sys_info_list
                0x20038f18       0x84 D:\Work\Howell\MD\S17HOWDSPSW\ACCORD\Trunk\SourceCode\DisplayBoard\COMMON\Release\libCOMMON.a(hdudispfpara.o)
                0x20038f18                Pc_sys_info_list
 .bss.U16_sys_info_words
                0x20038f9c        0x4 D:\Work\Howell\MD\S17HOWDSPSW\ACCORD\Trunk\SourceCode\DisplayBoard\COMMON\Release\libCOMMON.a(hdudispfpara.o)
                0x20038f9c                U16_sys_info_words
 .bss.All_cas_messages
                0x20038fa0      0xa00 D:\Work\Howell\MD\S17HOWDSPSW\ACCORD\Trunk\SourceCode\DisplayBoard\COMMON\Release\libCOMMON.a(hdudispfpara.o)
                0x20038fa0                All_cas_messages
 .bss.Cas_msg   0x200399a0      0xa80 D:\Work\Howell\MD\S17HOWDSPSW\ACCORD\Trunk\SourceCode\DisplayBoard\COMMON\Release\libCOMMON.a(hdudispfpara.o)
                0x200399a0                Cas_msg
 .bss.Cas_messages_setting
                0x2003a420       0x3c D:\Work\Howell\MD\S17HOWDSPSW\ACCORD\Trunk\SourceCode\DisplayBoard\COMMON\Release\libCOMMON.a(hdudispfpara.o)
                0x2003a420                Cas_messages_setting
 .bss.Cas_message_count
                0x2003a45c        0x1 D:\Work\Howell\MD\S17HOWDSPSW\ACCORD\Trunk\SourceCode\DisplayBoard\COMMON\Release\libCOMMON.a(hdudispfpara.o)
                0x2003a45c                Cas_message_count
 *fill*         0x2003a45d        0x3 
 .bss.Cas_app_array
                0x2003a460       0x41 D:\Work\Howell\MD\S17HOWDSPSW\ACCORD\Trunk\SourceCode\DisplayBoard\COMMON\Release\libCOMMON.a(hdudispfpara.o)
                0x2003a460                Cas_app_array
 .bss.Both_dau_fail
                0x2003a4a1        0x1 D:\Work\Howell\MD\S17HOWDSPSW\ACCORD\Trunk\SourceCode\DisplayBoard\COMMON\Release\libCOMMON.a(hdudispfrtd.o)
                0x2003a4a1                Both_dau_fail
 *fill*         0x2003a4a2        0x2 
 .bss.Sdram_handle
                0x2003a4a4       0x34 D:\Work\Howell\MD\S17HOWDSPSW\ACCORD\Trunk\SourceCode\DisplayBoard\HAL_Driver\Release\libHAL_Driver.a(hdulibstm32756gevalsdram.o)
 .bss.Timing    0x2003a4d8       0x1c D:\Work\Howell\MD\S17HOWDSPSW\ACCORD\Trunk\SourceCode\DisplayBoard\HAL_Driver\Release\libHAL_Driver.a(hdulibstm32756gevalsdram.o)
 .bss.Command   0x2003a4f4       0x10 D:\Work\Howell\MD\S17HOWDSPSW\ACCORD\Trunk\SourceCode\DisplayBoard\HAL_Driver\Release\libHAL_Driver.a(hdulibstm32756gevalsdram.o)
 .bss.dma_handle.5638
                0x2003a504       0x60 D:\Work\Howell\MD\S17HOWDSPSW\ACCORD\Trunk\SourceCode\DisplayBoard\HAL_Driver\Release\libHAL_Driver.a(hdulibstm32756gevalsdram.o)
 .bss.Uw_tick   0x2003a564        0x4 D:\Work\Howell\MD\S17HOWDSPSW\ACCORD\Trunk\SourceCode\DisplayBoard\HAL_Driver\Release\libHAL_Driver.a(hdulibstm32f7xxhal.o)
 .bss.Nor_memory_data_width
                0x2003a568        0x4 D:\Work\Howell\MD\S17HOWDSPSW\ACCORD\Trunk\SourceCode\DisplayBoard\HAL_Driver\Release\libHAL_Driver.a(hdulibstm32f7xxhalnor.o)
 .bss.Vector_tab_sel
                0x2003a56c        0x1 D:\Work\Howell\MD\S17HOWDSPSW\ACCORD\Trunk\SourceCode\DisplayBoard\HAL_Driver\Release\libHAL_Driver.a(hdulibsystemstm32f7xx.o)
                0x2003a56c                Vector_tab_sel
 .bss.E_orientation
                0x2003a56d        0x1 D:\Work\Howell\MD\S17HOWDSPSW\ACCORD\Trunk\SourceCode\DisplayBoard\WIDGETS\Release\libWIDGETS.a(hdudispfconfig.o)
                0x2003a56d                E_orientation
 .bss.S16_panel_height
                0x2003a56e        0x2 D:\Work\Howell\MD\S17HOWDSPSW\ACCORD\Trunk\SourceCode\DisplayBoard\WIDGETS\Release\libWIDGETS.a(hdudispfconfig.o)
                0x2003a56e                S16_panel_height
 .bss.S16_panel_width
                0x2003a570        0x2 D:\Work\Howell\MD\S17HOWDSPSW\ACCORD\Trunk\SourceCode\DisplayBoard\WIDGETS\Release\libWIDGETS.a(hdudispfconfig.o)
                0x2003a570                S16_panel_width
 *fill*         0x2003a572        0x2 
 .bss.U8_aa_line
                0x2003a574      0x258 D:\Work\Howell\MD\S17HOWDSPSW\ACCORD\Trunk\SourceCode\DisplayBoard\WIDGETS\Release\libWIDGETS.a(hdudispfbargraphs.o)
 .bss.As_bar_graph
                0x2003a7cc      0x618 D:\Work\Howell\MD\S17HOWDSPSW\ACCORD\Trunk\SourceCode\DisplayBoard\WIDGETS\Release\libWIDGETS.a(hdudispfbargraphs.o)
 .bss.U16_bar_graphs_installed
                0x2003ade4        0x2 D:\Work\Howell\MD\S17HOWDSPSW\ACCORD\Trunk\SourceCode\DisplayBoard\WIDGETS\Release\libWIDGETS.a(hdudispfbargraphs.o)
 *fill*         0x2003ade6        0x2 
 .bss.A_carrot_graph
                0x2003ade8      0xe88 D:\Work\Howell\MD\S17HOWDSPSW\ACCORD\Trunk\SourceCode\DisplayBoard\WIDGETS\Release\libWIDGETS.a(hdudispfcarrotgraph.o)
 .bss.U16_carrot_graphs_installed
                0x2003bc70        0x2 D:\Work\Howell\MD\S17HOWDSPSW\ACCORD\Trunk\SourceCode\DisplayBoard\WIDGETS\Release\libWIDGETS.a(hdudispfcarrotgraph.o)
 *fill*         0x2003bc72        0x2 
 .bss.carrot_graph_sw_x.6346
                0x2003bc74       0x1e D:\Work\Howell\MD\S17HOWDSPSW\ACCORD\Trunk\SourceCode\DisplayBoard\WIDGETS\Release\libWIDGETS.a(hdudispfcarrotgraph.o)
 *fill*         0x2003bc92        0x2 
 .bss.As_num_box
                0x2003bc94      0x960 D:\Work\Howell\MD\S17HOWDSPSW\ACCORD\Trunk\SourceCode\DisplayBoard\WIDGETS\Release\libWIDGETS.a(hdudispfnumbox.o)
 .bss.U16_num_box_installed
                0x2003c5f4        0x2 D:\Work\Howell\MD\S17HOWDSPSW\ACCORD\Trunk\SourceCode\DisplayBoard\WIDGETS\Release\libWIDGETS.a(hdudispfnumbox.o)
 .bss.E_pen_color
                0x2003c5f6        0x2 D:\Work\Howell\MD\S17HOWDSPSW\ACCORD\Trunk\SourceCode\DisplayBoard\WIDGETS\Release\libWIDGETS.a(hdudispfpolygon1.o)
 .bss.S_origin  0x2003c5f8       0x2c D:\Work\Howell\MD\S17HOWDSPSW\ACCORD\Trunk\SourceCode\DisplayBoard\WIDGETS\Release\libWIDGETS.a(hdudispfpolygon1.o)
 .bss.S16_next_vert
                0x2003c624        0x2 D:\Work\Howell\MD\S17HOWDSPSW\ACCORD\Trunk\SourceCode\DisplayBoard\WIDGETS\Release\libWIDGETS.a(hdudispfpolygon1.o)
 *fill*         0x2003c626        0x2 
 .bss.S_vert_pool
                0x2003c628     0x1130 D:\Work\Howell\MD\S17HOWDSPSW\ACCORD\Trunk\SourceCode\DisplayBoard\WIDGETS\Release\libWIDGETS.a(hdudispfpolygon1.o)
 .bss.U8_which_mag_line
                0x2003d758        0x1 D:\Work\Howell\MD\S17HOWDSPSW\ACCORD\Trunk\SourceCode\DisplayBoard\WIDGETS\Release\libWIDGETS.a(hdudispfpolygon1.o)
                0x2003d758                U8_which_mag_line
 *fill*         0x2003d759        0x3 
 .bss.U8_mag_line1
                0x2003d75c      0x401 D:\Work\Howell\MD\S17HOWDSPSW\ACCORD\Trunk\SourceCode\DisplayBoard\WIDGETS\Release\libWIDGETS.a(hdudispfpolygon1.o)
                0x2003d75c                U8_mag_line1
 *fill*         0x2003db5d        0x3 
 .bss.U8_mag_line2
                0x2003db60      0x401 D:\Work\Howell\MD\S17HOWDSPSW\ACCORD\Trunk\SourceCode\DisplayBoard\WIDGETS\Release\libWIDGETS.a(hdudispfpolygon1.o)
                0x2003db60                U8_mag_line2
 *fill*         0x2003df61        0x3 
 .bss.S16_scan_xmax
                0x2003df64        0x4 D:\Work\Howell\MD\S17HOWDSPSW\ACCORD\Trunk\SourceCode\DisplayBoard\WIDGETS\Release\libWIDGETS.a(hdudispfpolygon1.o)
                0x2003df64                S16_scan_xmax
 .bss.S_edge_pool
                0x2003df68      0x960 D:\Work\Howell\MD\S17HOWDSPSW\ACCORD\Trunk\SourceCode\DisplayBoard\WIDGETS\Release\libWIDGETS.a(hdudispfpolygon1.o)
 .bss.S16_next_edge
                0x2003e8c8        0x2 D:\Work\Howell\MD\S17HOWDSPSW\ACCORD\Trunk\SourceCode\DisplayBoard\WIDGETS\Release\libWIDGETS.a(hdudispfpolygon1.o)
 .bss.S16_active_edges
                0x2003e8ca        0x2 D:\Work\Howell\MD\S17HOWDSPSW\ACCORD\Trunk\SourceCode\DisplayBoard\WIDGETS\Release\libWIDGETS.a(hdudispfpolygon1.o)
 .bss.S_active_edge_list
                0x2003e8cc       0x30 D:\Work\Howell\MD\S17HOWDSPSW\ACCORD\Trunk\SourceCode\DisplayBoard\WIDGETS\Release\libWIDGETS.a(hdudispfpolygon1.o)
 .bss.Upoint_pool
                0x2003e8fc     0x6400 D:\Work\Howell\MD\S17HOWDSPSW\ACCORD\Trunk\SourceCode\DisplayBoard\WIDGETS\Release\libWIDGETS.a(hdudispfpolygon2.o)
 .bss.U32_elements_allocated
                0x20044cfc        0x4 D:\Work\Howell\MD\S17HOWDSPSW\ACCORD\Trunk\SourceCode\DisplayBoard\WIDGETS\Release\libWIDGETS.a(hdudispfpolygon2.o)
 .bss.U32_element_lock
                0x20044d00        0x4 D:\Work\Howell\MD\S17HOWDSPSW\ACCORD\Trunk\SourceCode\DisplayBoard\WIDGETS\Release\libWIDGETS.a(hdudispfpolygon2.o)
 .bss.S_poly_pool
                0x20044d04     0x12c0 D:\Work\Howell\MD\S17HOWDSPSW\ACCORD\Trunk\SourceCode\DisplayBoard\WIDGETS\Release\libWIDGETS.a(hdudispfpolygon2.o)
 .bss.U32_polys_allocated
                0x20045fc4        0x4 D:\Work\Howell\MD\S17HOWDSPSW\ACCORD\Trunk\SourceCode\DisplayBoard\WIDGETS\Release\libWIDGETS.a(hdudispfpolygon2.o)
 .bss.U32_poly_lock
                0x20045fc8        0x4 D:\Work\Howell\MD\S17HOWDSPSW\ACCORD\Trunk\SourceCode\DisplayBoard\WIDGETS\Release\libWIDGETS.a(hdudispfpolygon2.o)
 .bss.A_round_dial
                0x20045fcc      0xe88 D:\Work\Howell\MD\S17HOWDSPSW\ACCORD\Trunk\SourceCode\DisplayBoard\WIDGETS\Release\libWIDGETS.a(hdudispfrounddial.o)
 .bss.U16_round_dials_installed
                0x20046e54        0x2 D:\Work\Howell\MD\S17HOWDSPSW\ACCORD\Trunk\SourceCode\DisplayBoard\WIDGETS\Release\libWIDGETS.a(hdudispfrounddial.o)
 *fill*         0x20046e56        0x2 
 .bss.round_dial_sw_x.6351
                0x20046e58       0x1e D:\Work\Howell\MD\S17HOWDSPSW\ACCORD\Trunk\SourceCode\DisplayBoard\WIDGETS\Release\libWIDGETS.a(hdudispfrounddial.o)
 *fill*         0x20046e76        0x2 
 .bss.A_text    0x20046e78      0x708 D:\Work\Howell\MD\S17HOWDSPSW\ACCORD\Trunk\SourceCode\DisplayBoard\WIDGETS\Release\libWIDGETS.a(hdudispftext.o)
 .bss.A_text_pdi
                0x20047580      0x438 D:\Work\Howell\MD\S17HOWDSPSW\ACCORD\Trunk\SourceCode\DisplayBoard\WIDGETS\Release\libWIDGETS.a(hdudispftext.o)
 .bss.Text_installed
                0x200479b8        0x2 D:\Work\Howell\MD\S17HOWDSPSW\ACCORD\Trunk\SourceCode\DisplayBoard\WIDGETS\Release\libWIDGETS.a(hdudispftext.o)
 .bss.Text_objects_installed
                0x200479ba        0x2 D:\Work\Howell\MD\S17HOWDSPSW\ACCORD\Trunk\SourceCode\DisplayBoard\WIDGETS\Release\libWIDGETS.a(hdudispftext.o)
 .bss.U16_next_box
                0x200479bc        0x2 D:\Work\Howell\MD\S17HOWDSPSW\ACCORD\Trunk\SourceCode\DisplayBoard\WIDGETS\Release\libWIDGETS.a(hdudispftextbox.o)
 .bss.U16_next_textbox
                0x200479be        0x2 D:\Work\Howell\MD\S17HOWDSPSW\ACCORD\Trunk\SourceCode\DisplayBoard\WIDGETS\Release\libWIDGETS.a(hdudispftextbox.o)
 .bss.S_text_boxes
                0x200479c0      0x578 D:\Work\Howell\MD\S17HOWDSPSW\ACCORD\Trunk\SourceCode\DisplayBoard\WIDGETS\Release\libWIDGETS.a(hdudispftextbox.o)
 .bss.S_pditext_boxes
                0x20047f38      0x640 D:\Work\Howell\MD\S17HOWDSPSW\ACCORD\Trunk\SourceCode\DisplayBoard\WIDGETS\Release\libWIDGETS.a(hdudispftextbox.o)
 .bss.Exceed_timer_params
                0x20048578       0xc0 D:\Work\Howell\MD\S17HOWDSPSW\ACCORD\Trunk\SourceCode\DisplayBoard\WIDGETS\Release\libWIDGETS.a(hdudispftimers.o)
                0x20048578                Exceed_timer_params
 .bss.Timer_a429_tag
                0x20048638       0x20 D:\Work\Howell\MD\S17HOWDSPSW\ACCORD\Trunk\SourceCode\DisplayBoard\WIDGETS\Release\libWIDGETS.a(hdudispftimers.o)
                0x20048638                Timer_a429_tag
 .bss.u8_param.6281
                0x20048658        0x1 D:\Work\Howell\MD\S17HOWDSPSW\ACCORD\Trunk\SourceCode\DisplayBoard\WIDGETS\Release\libWIDGETS.a(hdudispftimers.o)
 *fill*         0x20048659        0x3 
 .bss.Ascii_num
                0x2004865c        0x9 D:\Work\Howell\MD\S17HOWDSPSW\ACCORD\Trunk\SourceCode\DisplayBoard\WIDGETS\Release\libWIDGETS.a(hdudispfrterror.o)
 *fill*         0x20048665        0x3 
 .bss.Timers    0x20048668      0x324 D:\Work\Howell\MD\S17HOWDSPSW\ACCORD\Trunk\SourceCode\DisplayBoard\WIDGETS\Release\libWIDGETS.a(hdudispftimer.o)
                0x20048668                Timers
 *(COMMON)
                0x2004898c                . = ALIGN (0x4)
                0x2004898c                _ebss = .
                0x2004898c                __bss_end__ = _ebss

.ram_test       0x2007c000       0xc8
                0x2007c000                _ram_test_start = .
 *(.ram_test*)
 .ram_test      0x2007c000       0xc8 src/hdudispfpbit.o
                0x2007c000                Sram_buffer_check
                0x2007c0c8                . = ALIGN (0x4)
                0x2007c0c8                _ram_test_end = .

.sdram_test     0xc0000000       0x14
                0xc0000000                _sdram_test_start = .
 *(.sdram_test*)
 .sdram_test    0xc0000000       0x14 src/hdudispfpbit.o
                0xc0000000                Sdram_buffer_check
                0xc0000014                . = ALIGN (0x4)
                0xc0000014                _sdram_test_end = .

.sdram_var      0xc1800000     0xdc64
                0xc1800000                _sdram_var_start = .
 *(.sdram_var*)
 .sdram_var     0xc1800000     0xdc64 app/hdudispfpdidata.o
                0xc1800000                A429_settings_cnt
                0xc1800002                Rd_cnt
                0xc1800003                Text_cnt
                0xc1800004                Nb_cnt
                0xc1800005                Cg_cnt
                0xc1800006                Pg_cnt
                0xc1800007                Tb_cnt
                0xc1800008                Cas_cnt
                0xc1800009                Page_cas
                0xc180000a                Timer_cnt
                0xc180000c                Bg_tracker
                0xc18005e8                Rd_tracker
                0xc1800bc4                Cg_tracker
                0xc18011a0                Nb_tracker
                0xc180177c                Rd_lin_angle_status
                0xc18017f4                Config_data
                0xc180184c                Rd_dis_region
                0xc1801b94                Bg_dis_region
                0xc1801edc                Nb_dis_region
                0xc1802454                Cg_dis_region
                0xc180279c                Txt_dis_region
                0xc1802ae4                Tb_dis_region
                0xc180305c                Pg_dis_region
                0xc1805b7c                Pg_inc_dis_region
                0xc180869c                Pg_settings
                0xc180dc64                . = ALIGN (0x4)
                0xc180dc64                _sdram_var_end = .

._user_heap_stack
                0x2004898c      0x804
                0x20048990                . = ALIGN (0x8)
 *fill*         0x2004898c        0x4 
                [!provide]                PROVIDE (end, .)
                [!provide]                PROVIDE (_end, .)
                0x20048990                . = (. + _Min_Heap_Size)
                0x20049190                . = (. + _Min_Stack_Size)
 *fill*         0x20048990      0x800 
                0x20049190                . = ALIGN (0x8)

.id_storage     0x0817ffec       0x10
                0x0817ffec                start_id_storage = .
 *(.id_storage*)
 .id_storage    0x0817ffec       0x10 app/hdudispfrevno.o
                0x0817ffec                Revno_id
                0x0817fffc                end_id_storage = .

/DISCARD/
 libc.a(*)
 libm.a(*)
 libgcc.a(*)

.ARM.attributes
                0x00000000       0x30
 *(.ARM.attributes)
 .ARM.attributes
                0x00000000       0x22 c:/ac6/systemworkbench/plugins/fr.ac6.mcu.externaltools.arm-none.win32_1.13.2.201705091103/tools/compiler/bin/../lib/gcc/arm-none-eabi/5.4.1/armv7e-m/fpu/fpv5-sp-d16/crti.o
 .ARM.attributes
                0x00000022       0x34 c:/ac6/systemworkbench/plugins/fr.ac6.mcu.externaltools.arm-none.win32_1.13.2.201705091103/tools/compiler/bin/../lib/gcc/arm-none-eabi/5.4.1/armv7e-m/fpu/fpv5-sp-d16/crtbegin.o
 .ARM.attributes
                0x00000056       0x39 BSP/hdudispfpbs.o
 .ARM.attributes
                0x0000008f       0x39 BSP/hdudispfpwm.o
 .ARM.attributes
                0x000000c8       0x39 BSP/hdudispfstmadc.o
 .ARM.attributes
                0x00000101       0x39 Shared/hdudispfa825comm1.o
 .ARM.attributes
                0x0000013a       0x39 Shared/hdudispfa825comm2.o
 .ARM.attributes
                0x00000173       0x39 Shared/hdudispfarinc825perph1.o
 .ARM.attributes
                0x000001ac       0x39 Shared/hdudispfarinc825perph2.o
 .ARM.attributes
                0x000001e5       0x39 Shared/hdudispfbspled.o
 .ARM.attributes
                0x0000021e       0x39 Shared/hdudispfforeground.o
 .ARM.attributes
                0x00000257       0x39 Shared/hdudispfpanel.o
 .ARM.attributes
                0x00000290       0x39 app/hdudispfapp.o
 .ARM.attributes
                0x000002c9       0x39 app/hdudispfdemo.o
 .ARM.attributes
                0x00000302       0x39 app/hdudispfgrapp.o
 .ARM.attributes
                0x0000033b       0x39 app/hdudispfinit.o
 .ARM.attributes
                0x00000374       0x39 app/hdudispfmdff.o
 .ARM.attributes
                0x000003ad       0x39 app/hdudispfmenu.o
 .ARM.attributes
                0x000003e6       0x39 app/hdudispfmenu2.o
 .ARM.attributes
                0x0000041f       0x39 app/hdudispfpdicheck.o
 .ARM.attributes
                0x00000458       0x39 app/hdudispfpdidata.o
 .ARM.attributes
                0x00000491       0x39 app/hdudispfpoller.o
 .ARM.attributes
                0x000004ca       0x39 app/hdudispfrevno.o
 .ARM.attributes
                0x00000503       0x39 app/hdudispftbase.o
 .ARM.attributes
                0x0000053c       0x39 app/hdudispfwdog.o
 .ARM.attributes
                0x00000575       0x39 fonts/hdudispfConsolas18hAA4.o
 .ARM.attributes
                0x000005ae       0x39 fonts/hdudispfConsolas22haa5.o
 .ARM.attributes
                0x000005e7       0x39 fonts/hdudispfConsolas30haa5.o
 .ARM.attributes
                0x00000620       0x39 fonts/hdudispfConsolas42hAA4.o
 .ARM.attributes
                0x00000659       0x39 fonts/hdudispfmono18haa4.o
 .ARM.attributes
                0x00000692       0x39 fonts/hdudispfmono22haa4.o
 .ARM.attributes
                0x000006cb       0x39 fonts/hdudispfmono30haa4.o
 .ARM.attributes
                0x00000704       0x39 fonts/hdudispfmono42haa4.o
 .ARM.attributes
                0x0000073d       0x39 src/hdudispfcbit.o
 .ARM.attributes
                0x00000776       0x39 src/hdudispfmain.o
 .ARM.attributes
                0x000007af       0x39 src/hdudispfpbit.o
 .ARM.attributes
                0x000007e8       0x25 startup/hdudispfoscpua.o
 .ARM.attributes
                0x0000080d       0x25 startup/hdudispfpbita.o
 .ARM.attributes
                0x00000832       0x21 startup/hdudispfstartupstm32f746xx.o
 .ARM.attributes
                0x00000853       0x39 D:\Work\Howell\MD\S17HOWDSPSW\ACCORD\Trunk\SourceCode\DisplayBoard\UCOS\Release\libUCOS.a(hdudispfoscpu.o)
 .ARM.attributes
                0x0000088c       0x39 D:\Work\Howell\MD\S17HOWDSPSW\ACCORD\Trunk\SourceCode\DisplayBoard\UCOS\Release\libUCOS.a(hdudispfucos.o)
 .ARM.attributes
                0x000008c5       0x39 D:\Work\Howell\MD\S17HOWDSPSW\ACCORD\Trunk\SourceCode\DisplayBoard\COMMON\Release\libCOMMON.a(hdudispfa429.o)
 .ARM.attributes
                0x000008fe       0x39 D:\Work\Howell\MD\S17HOWDSPSW\ACCORD\Trunk\SourceCode\DisplayBoard\COMMON\Release\libCOMMON.a(hdudispfbspnor.o)
 .ARM.attributes
                0x00000937       0x39 D:\Work\Howell\MD\S17HOWDSPSW\ACCORD\Trunk\SourceCode\DisplayBoard\COMMON\Release\libCOMMON.a(hdudispfcas.o)
 .ARM.attributes
                0x00000970       0x39 D:\Work\Howell\MD\S17HOWDSPSW\ACCORD\Trunk\SourceCode\DisplayBoard\COMMON\Release\libCOMMON.a(hdudispfcrc.o)
 .ARM.attributes
                0x000009a9       0x39 D:\Work\Howell\MD\S17HOWDSPSW\ACCORD\Trunk\SourceCode\DisplayBoard\COMMON\Release\libCOMMON.a(hdudispfdma2.o)
 .ARM.attributes
                0x000009e2       0x39 D:\Work\Howell\MD\S17HOWDSPSW\ACCORD\Trunk\SourceCode\DisplayBoard\COMMON\Release\libCOMMON.a(hdudispfdma2d.o)
 .ARM.attributes
                0x00000a1b       0x39 D:\Work\Howell\MD\S17HOWDSPSW\ACCORD\Trunk\SourceCode\DisplayBoard\COMMON\Release\libCOMMON.a(hdudispfglobalsettings.o)
 .ARM.attributes
                0x00000a54       0x39 D:\Work\Howell\MD\S17HOWDSPSW\ACCORD\Trunk\SourceCode\DisplayBoard\COMMON\Release\libCOMMON.a(hdudispflmsscu.o)
 .ARM.attributes
                0x00000a8d       0x39 D:\Work\Howell\MD\S17HOWDSPSW\ACCORD\Trunk\SourceCode\DisplayBoard\COMMON\Release\libCOMMON.a(hdudispfoffside.o)
 .ARM.attributes
                0x00000ac6       0x39 D:\Work\Howell\MD\S17HOWDSPSW\ACCORD\Trunk\SourceCode\DisplayBoard\COMMON\Release\libCOMMON.a(hdudispfpara.o)
 .ARM.attributes
                0x00000aff       0x39 D:\Work\Howell\MD\S17HOWDSPSW\ACCORD\Trunk\SourceCode\DisplayBoard\COMMON\Release\libCOMMON.a(hdudispfrtd.o)
 .ARM.attributes
                0x00000b38       0x39 D:\Work\Howell\MD\S17HOWDSPSW\ACCORD\Trunk\SourceCode\DisplayBoard\HAL_Driver\Release\libHAL_Driver.a(hdulibstm32756gevalsdram.o)
 .ARM.attributes
                0x00000b71       0x39 D:\Work\Howell\MD\S17HOWDSPSW\ACCORD\Trunk\SourceCode\DisplayBoard\HAL_Driver\Release\libHAL_Driver.a(hdulibstm32f7xxhal.o)
 .ARM.attributes
                0x00000baa       0x39 D:\Work\Howell\MD\S17HOWDSPSW\ACCORD\Trunk\SourceCode\DisplayBoard\HAL_Driver\Release\libHAL_Driver.a(hdulibstm32f7xxhaladc.o)
 .ARM.attributes
                0x00000be3       0x39 D:\Work\Howell\MD\S17HOWDSPSW\ACCORD\Trunk\SourceCode\DisplayBoard\HAL_Driver\Release\libHAL_Driver.a(hdulibstm32f7xxhalcan.o)
 .ARM.attributes
                0x00000c1c       0x39 D:\Work\Howell\MD\S17HOWDSPSW\ACCORD\Trunk\SourceCode\DisplayBoard\HAL_Driver\Release\libHAL_Driver.a(hdulibstm32f7xxhalcortex.o)
 .ARM.attributes
                0x00000c55       0x39 D:\Work\Howell\MD\S17HOWDSPSW\ACCORD\Trunk\SourceCode\DisplayBoard\HAL_Driver\Release\libHAL_Driver.a(hdulibstm32f7xxhalcrc.o)
 .ARM.attributes
                0x00000c8e       0x39 D:\Work\Howell\MD\S17HOWDSPSW\ACCORD\Trunk\SourceCode\DisplayBoard\HAL_Driver\Release\libHAL_Driver.a(hdulibstm32f7xxhalcrcex.o)
 .ARM.attributes
                0x00000cc7       0x39 D:\Work\Howell\MD\S17HOWDSPSW\ACCORD\Trunk\SourceCode\DisplayBoard\HAL_Driver\Release\libHAL_Driver.a(hdulibstm32f7xxhaldma.o)
 .ARM.attributes
                0x00000d00       0x39 D:\Work\Howell\MD\S17HOWDSPSW\ACCORD\Trunk\SourceCode\DisplayBoard\HAL_Driver\Release\libHAL_Driver.a(hdulibstm32f7xxhalgpio.o)
 .ARM.attributes
                0x00000d39       0x39 D:\Work\Howell\MD\S17HOWDSPSW\ACCORD\Trunk\SourceCode\DisplayBoard\HAL_Driver\Release\libHAL_Driver.a(hdulibstm32f7xxhaliwdg.o)
 .ARM.attributes
                0x00000d72       0x39 D:\Work\Howell\MD\S17HOWDSPSW\ACCORD\Trunk\SourceCode\DisplayBoard\HAL_Driver\Release\libHAL_Driver.a(hdulibstm32f7xxhalltdc.o)
 .ARM.attributes
                0x00000dab       0x39 D:\Work\Howell\MD\S17HOWDSPSW\ACCORD\Trunk\SourceCode\DisplayBoard\HAL_Driver\Release\libHAL_Driver.a(hdulibstm32f7xxhalmsp.o)
 .ARM.attributes
                0x00000de4       0x39 D:\Work\Howell\MD\S17HOWDSPSW\ACCORD\Trunk\SourceCode\DisplayBoard\HAL_Driver\Release\libHAL_Driver.a(hdulibstm32f7xxhalnor.o)
 .ARM.attributes
                0x00000e1d       0x39 D:\Work\Howell\MD\S17HOWDSPSW\ACCORD\Trunk\SourceCode\DisplayBoard\HAL_Driver\Release\libHAL_Driver.a(hdulibstm32f7xxhalpwrex.o)
 .ARM.attributes
                0x00000e56       0x39 D:\Work\Howell\MD\S17HOWDSPSW\ACCORD\Trunk\SourceCode\DisplayBoard\HAL_Driver\Release\libHAL_Driver.a(hdulibstm32f7xxhalrcc.o)
 .ARM.attributes
                0x00000e8f       0x39 D:\Work\Howell\MD\S17HOWDSPSW\ACCORD\Trunk\SourceCode\DisplayBoard\HAL_Driver\Release\libHAL_Driver.a(hdulibstm32f7xxhalrccex.o)
 .ARM.attributes
                0x00000ec8       0x39 D:\Work\Howell\MD\S17HOWDSPSW\ACCORD\Trunk\SourceCode\DisplayBoard\HAL_Driver\Release\libHAL_Driver.a(hdulibstm32f7xxhalsdram.o)
 .ARM.attributes
                0x00000f01       0x39 D:\Work\Howell\MD\S17HOWDSPSW\ACCORD\Trunk\SourceCode\DisplayBoard\HAL_Driver\Release\libHAL_Driver.a(hdulibstm32f7xxhaltim.o)
 .ARM.attributes
                0x00000f3a       0x39 D:\Work\Howell\MD\S17HOWDSPSW\ACCORD\Trunk\SourceCode\DisplayBoard\HAL_Driver\Release\libHAL_Driver.a(hdulibstm32f7xxit.o)
 .ARM.attributes
                0x00000f73       0x39 D:\Work\Howell\MD\S17HOWDSPSW\ACCORD\Trunk\SourceCode\DisplayBoard\HAL_Driver\Release\libHAL_Driver.a(hdulibsystemstm32f7xx.o)
 .ARM.attributes
                0x00000fac       0x39 D:\Work\Howell\MD\S17HOWDSPSW\ACCORD\Trunk\SourceCode\DisplayBoard\HAL_Driver\Release\libHAL_Driver.a(hdulibstm32f7xxhalfmc.o)
 .ARM.attributes
                0x00000fe5       0x39 D:\Work\Howell\MD\S17HOWDSPSW\ACCORD\Trunk\SourceCode\DisplayBoard\WIDGETS\Release\libWIDGETS.a(hdudispfconfig.o)
 .ARM.attributes
                0x0000101e       0x39 D:\Work\Howell\MD\S17HOWDSPSW\ACCORD\Trunk\SourceCode\DisplayBoard\WIDGETS\Release\libWIDGETS.a(hdudispffonts.o)
 .ARM.attributes
                0x00001057       0x39 D:\Work\Howell\MD\S17HOWDSPSW\ACCORD\Trunk\SourceCode\DisplayBoard\WIDGETS\Release\libWIDGETS.a(hdudispfbargraphs.o)
 .ARM.attributes
                0x00001090       0x39 D:\Work\Howell\MD\S17HOWDSPSW\ACCORD\Trunk\SourceCode\DisplayBoard\WIDGETS\Release\libWIDGETS.a(hdudispfcarrotgraph.o)
 .ARM.attributes
                0x000010c9       0x39 D:\Work\Howell\MD\S17HOWDSPSW\ACCORD\Trunk\SourceCode\DisplayBoard\WIDGETS\Release\libWIDGETS.a(hdudispfnumbox.o)
 .ARM.attributes
                0x00001102       0x39 D:\Work\Howell\MD\S17HOWDSPSW\ACCORD\Trunk\SourceCode\DisplayBoard\WIDGETS\Release\libWIDGETS.a(hdudispfpolygon1.o)
 .ARM.attributes
                0x0000113b       0x39 D:\Work\Howell\MD\S17HOWDSPSW\ACCORD\Trunk\SourceCode\DisplayBoard\WIDGETS\Release\libWIDGETS.a(hdudispfpolygon2.o)
 .ARM.attributes
                0x00001174       0x39 D:\Work\Howell\MD\S17HOWDSPSW\ACCORD\Trunk\SourceCode\DisplayBoard\WIDGETS\Release\libWIDGETS.a(hdudispfrounddial.o)
 .ARM.attributes
                0x000011ad       0x39 D:\Work\Howell\MD\S17HOWDSPSW\ACCORD\Trunk\SourceCode\DisplayBoard\WIDGETS\Release\libWIDGETS.a(hdudispftext.o)
 .ARM.attributes
                0x000011e6       0x39 D:\Work\Howell\MD\S17HOWDSPSW\ACCORD\Trunk\SourceCode\DisplayBoard\WIDGETS\Release\libWIDGETS.a(hdudispftextbox.o)
 .ARM.attributes
                0x0000121f       0x39 D:\Work\Howell\MD\S17HOWDSPSW\ACCORD\Trunk\SourceCode\DisplayBoard\WIDGETS\Release\libWIDGETS.a(hdudispftimers.o)
 .ARM.attributes
                0x00001258       0x39 D:\Work\Howell\MD\S17HOWDSPSW\ACCORD\Trunk\SourceCode\DisplayBoard\WIDGETS\Release\libWIDGETS.a(hdudispfwidgets.o)
 .ARM.attributes
                0x00001291       0x39 D:\Work\Howell\MD\S17HOWDSPSW\ACCORD\Trunk\SourceCode\DisplayBoard\WIDGETS\Release\libWIDGETS.a(hdudispfbinascii.o)
 .ARM.attributes
                0x000012ca       0x39 D:\Work\Howell\MD\S17HOWDSPSW\ACCORD\Trunk\SourceCode\DisplayBoard\WIDGETS\Release\libWIDGETS.a(hdudispflookup.o)
 .ARM.attributes
                0x00001303       0x39 D:\Work\Howell\MD\S17HOWDSPSW\ACCORD\Trunk\SourceCode\DisplayBoard\WIDGETS\Release\libWIDGETS.a(hdudispfrterror.o)
 .ARM.attributes
                0x0000133c       0x39 D:\Work\Howell\MD\S17HOWDSPSW\ACCORD\Trunk\SourceCode\DisplayBoard\WIDGETS\Release\libWIDGETS.a(hdudispftimer.o)
 .ARM.attributes
                0x00001375       0x39 D:\Work\Howell\MD\S17HOWDSPSW\ACCORD\Trunk\SourceCode\DisplayBoard\WIDGETS\Release\libWIDGETS.a(hdudispfbfarmcosq15.o)
 .ARM.attributes
                0x000013ae       0x39 D:\Work\Howell\MD\S17HOWDSPSW\ACCORD\Trunk\SourceCode\DisplayBoard\WIDGETS\Release\libWIDGETS.a(hdudispfbfarmsinq15.o)
 .ARM.attributes
                0x000013e7       0x39 D:\Work\Howell\MD\S17HOWDSPSW\ACCORD\Trunk\SourceCode\DisplayBoard\WIDGETS\Release\libWIDGETS.a(hdudispfbfarmcommontables.o)
 .ARM.attributes
                0x00001420       0x34 c:/ac6/systemworkbench/plugins/fr.ac6.mcu.externaltools.arm-none.win32_1.13.2.201705091103/tools/compiler/bin/../lib/gcc/arm-none-eabi/5.4.1/../../../../arm-none-eabi/lib/armv7e-m/fpu/fpv5-sp-d16\libc.a(lib_a-impure.o)
 .ARM.attributes
                0x00001454       0x34 c:/ac6/systemworkbench/plugins/fr.ac6.mcu.externaltools.arm-none.win32_1.13.2.201705091103/tools/compiler/bin/../lib/gcc/arm-none-eabi/5.4.1/../../../../arm-none-eabi/lib/armv7e-m/fpu/fpv5-sp-d16\libc.a(lib_a-init.o)
 .ARM.attributes
                0x00001488       0x34 c:/ac6/systemworkbench/plugins/fr.ac6.mcu.externaltools.arm-none.win32_1.13.2.201705091103/tools/compiler/bin/../lib/gcc/arm-none-eabi/5.4.1/../../../../arm-none-eabi/lib/armv7e-m/fpu/fpv5-sp-d16\libc.a(lib_a-memset.o)
 .ARM.attributes
                0x000014bc       0x34 c:/ac6/systemworkbench/plugins/fr.ac6.mcu.externaltools.arm-none.win32_1.13.2.201705091103/tools/compiler/bin/../lib/gcc/arm-none-eabi/5.4.1/../../../../arm-none-eabi/lib/armv7e-m/fpu/fpv5-sp-d16\libc.a(lib_a-__call_atexit.o)
 .ARM.attributes
                0x000014f0       0x34 c:/ac6/systemworkbench/plugins/fr.ac6.mcu.externaltools.arm-none.win32_1.13.2.201705091103/tools/compiler/bin/../lib/gcc/arm-none-eabi/5.4.1/../../../../arm-none-eabi/lib/armv7e-m/fpu/fpv5-sp-d16\libc.a(lib_a-atexit.o)
 .ARM.attributes
                0x00001524       0x34 c:/ac6/systemworkbench/plugins/fr.ac6.mcu.externaltools.arm-none.win32_1.13.2.201705091103/tools/compiler/bin/../lib/gcc/arm-none-eabi/5.4.1/../../../../arm-none-eabi/lib/armv7e-m/fpu/fpv5-sp-d16\libc.a(lib_a-fini.o)
 .ARM.attributes
                0x00001558       0x34 c:/ac6/systemworkbench/plugins/fr.ac6.mcu.externaltools.arm-none.win32_1.13.2.201705091103/tools/compiler/bin/../lib/gcc/arm-none-eabi/5.4.1/../../../../arm-none-eabi/lib/armv7e-m/fpu/fpv5-sp-d16\libc.a(lib_a-__atexit.o)
 .ARM.attributes
                0x0000158c       0x22 c:/ac6/systemworkbench/plugins/fr.ac6.mcu.externaltools.arm-none.win32_1.13.2.201705091103/tools/compiler/bin/../lib/gcc/arm-none-eabi/5.4.1/armv7e-m/fpu/fpv5-sp-d16/crtn.o
OUTPUT(H108E133.elf elf32-littlearm)

.comment        0x00000000       0x6e
 .comment       0x00000000       0x6e BSP/hdudispfpbs.o
                                 0x6f (size before relaxing)
 .comment       0x0000006e       0x6f BSP/hdudispfpwm.o
 .comment       0x0000006e       0x6f BSP/hdudispfstmadc.o
 .comment       0x0000006e       0x6f Shared/hdudispfa825comm1.o
 .comment       0x0000006e       0x6f Shared/hdudispfa825comm2.o
 .comment       0x0000006e       0x6f Shared/hdudispfarinc825perph1.o
 .comment       0x0000006e       0x6f Shared/hdudispfarinc825perph2.o
 .comment       0x0000006e       0x6f Shared/hdudispfbspled.o
 .comment       0x0000006e       0x6f Shared/hdudispfforeground.o
 .comment       0x0000006e       0x6f Shared/hdudispfpanel.o
 .comment       0x0000006e       0x6f app/hdudispfapp.o
 .comment       0x0000006e       0x6f app/hdudispfdemo.o
 .comment       0x0000006e       0x6f app/hdudispfgrapp.o
 .comment       0x0000006e       0x6f app/hdudispfinit.o
 .comment       0x0000006e       0x6f app/hdudispfmdff.o
 .comment       0x0000006e       0x6f app/hdudispfmenu.o
 .comment       0x0000006e       0x6f app/hdudispfmenu2.o
 .comment       0x0000006e       0x6f app/hdudispfpdicheck.o
 .comment       0x0000006e       0x6f app/hdudispfpdidata.o
 .comment       0x0000006e       0x6f app/hdudispfpoller.o
 .comment       0x0000006e       0x6f app/hdudispfrevno.o
 .comment       0x0000006e       0x6f app/hdudispftbase.o
 .comment       0x0000006e       0x6f app/hdudispfwdog.o
 .comment       0x0000006e       0x6f fonts/hdudispfConsolas18hAA4.o
 .comment       0x0000006e       0x6f fonts/hdudispfConsolas22haa5.o
 .comment       0x0000006e       0x6f fonts/hdudispfConsolas30haa5.o
 .comment       0x0000006e       0x6f fonts/hdudispfConsolas42hAA4.o
 .comment       0x0000006e       0x6f fonts/hdudispfmono18haa4.o
 .comment       0x0000006e       0x6f fonts/hdudispfmono22haa4.o
 .comment       0x0000006e       0x6f fonts/hdudispfmono30haa4.o
 .comment       0x0000006e       0x6f fonts/hdudispfmono42haa4.o
 .comment       0x0000006e       0x6f src/hdudispfcbit.o
 .comment       0x0000006e       0x6f src/hdudispfmain.o
 .comment       0x0000006e       0x6f src/hdudispfpbit.o
 .comment       0x0000006e       0x6f D:\Work\Howell\MD\S17HOWDSPSW\ACCORD\Trunk\SourceCode\DisplayBoard\UCOS\Release\libUCOS.a(hdudispfoscpu.o)
 .comment       0x0000006e       0x6f D:\Work\Howell\MD\S17HOWDSPSW\ACCORD\Trunk\SourceCode\DisplayBoard\UCOS\Release\libUCOS.a(hdudispfucos.o)
 .comment       0x0000006e       0x6f D:\Work\Howell\MD\S17HOWDSPSW\ACCORD\Trunk\SourceCode\DisplayBoard\COMMON\Release\libCOMMON.a(hdudispfa429.o)
 .comment       0x0000006e       0x6f D:\Work\Howell\MD\S17HOWDSPSW\ACCORD\Trunk\SourceCode\DisplayBoard\COMMON\Release\libCOMMON.a(hdudispfbspnor.o)
 .comment       0x0000006e       0x6f D:\Work\Howell\MD\S17HOWDSPSW\ACCORD\Trunk\SourceCode\DisplayBoard\COMMON\Release\libCOMMON.a(hdudispfcas.o)
 .comment       0x0000006e       0x6f D:\Work\Howell\MD\S17HOWDSPSW\ACCORD\Trunk\SourceCode\DisplayBoard\COMMON\Release\libCOMMON.a(hdudispfcrc.o)
 .comment       0x0000006e       0x6f D:\Work\Howell\MD\S17HOWDSPSW\ACCORD\Trunk\SourceCode\DisplayBoard\COMMON\Release\libCOMMON.a(hdudispfdma2.o)
 .comment       0x0000006e       0x6f D:\Work\Howell\MD\S17HOWDSPSW\ACCORD\Trunk\SourceCode\DisplayBoard\COMMON\Release\libCOMMON.a(hdudispfdma2d.o)
 .comment       0x0000006e       0x6f D:\Work\Howell\MD\S17HOWDSPSW\ACCORD\Trunk\SourceCode\DisplayBoard\COMMON\Release\libCOMMON.a(hdudispfglobalsettings.o)
 .comment       0x0000006e       0x6f D:\Work\Howell\MD\S17HOWDSPSW\ACCORD\Trunk\SourceCode\DisplayBoard\COMMON\Release\libCOMMON.a(hdudispflmsscu.o)
 .comment       0x0000006e       0x6f D:\Work\Howell\MD\S17HOWDSPSW\ACCORD\Trunk\SourceCode\DisplayBoard\COMMON\Release\libCOMMON.a(hdudispfoffside.o)
 .comment       0x0000006e       0x6f D:\Work\Howell\MD\S17HOWDSPSW\ACCORD\Trunk\SourceCode\DisplayBoard\COMMON\Release\libCOMMON.a(hdudispfpara.o)
 .comment       0x0000006e       0x6f D:\Work\Howell\MD\S17HOWDSPSW\ACCORD\Trunk\SourceCode\DisplayBoard\COMMON\Release\libCOMMON.a(hdudispfrtd.o)
 .comment       0x0000006e       0x6f D:\Work\Howell\MD\S17HOWDSPSW\ACCORD\Trunk\SourceCode\DisplayBoard\HAL_Driver\Release\libHAL_Driver.a(hdulibstm32756gevalsdram.o)
 .comment       0x0000006e       0x6f D:\Work\Howell\MD\S17HOWDSPSW\ACCORD\Trunk\SourceCode\DisplayBoard\HAL_Driver\Release\libHAL_Driver.a(hdulibstm32f7xxhal.o)
 .comment       0x0000006e       0x6f D:\Work\Howell\MD\S17HOWDSPSW\ACCORD\Trunk\SourceCode\DisplayBoard\HAL_Driver\Release\libHAL_Driver.a(hdulibstm32f7xxhaladc.o)
 .comment       0x0000006e       0x6f D:\Work\Howell\MD\S17HOWDSPSW\ACCORD\Trunk\SourceCode\DisplayBoard\HAL_Driver\Release\libHAL_Driver.a(hdulibstm32f7xxhalcan.o)
 .comment       0x0000006e       0x6f D:\Work\Howell\MD\S17HOWDSPSW\ACCORD\Trunk\SourceCode\DisplayBoard\HAL_Driver\Release\libHAL_Driver.a(hdulibstm32f7xxhalcortex.o)
 .comment       0x0000006e       0x6f D:\Work\Howell\MD\S17HOWDSPSW\ACCORD\Trunk\SourceCode\DisplayBoard\HAL_Driver\Release\libHAL_Driver.a(hdulibstm32f7xxhalcrc.o)
 .comment       0x0000006e       0x6f D:\Work\Howell\MD\S17HOWDSPSW\ACCORD\Trunk\SourceCode\DisplayBoard\HAL_Driver\Release\libHAL_Driver.a(hdulibstm32f7xxhalcrcex.o)
 .comment       0x0000006e       0x6f D:\Work\Howell\MD\S17HOWDSPSW\ACCORD\Trunk\SourceCode\DisplayBoard\HAL_Driver\Release\libHAL_Driver.a(hdulibstm32f7xxhaldma.o)
 .comment       0x0000006e       0x6f D:\Work\Howell\MD\S17HOWDSPSW\ACCORD\Trunk\SourceCode\DisplayBoard\HAL_Driver\Release\libHAL_Driver.a(hdulibstm32f7xxhalgpio.o)
 .comment       0x0000006e       0x6f D:\Work\Howell\MD\S17HOWDSPSW\ACCORD\Trunk\SourceCode\DisplayBoard\HAL_Driver\Release\libHAL_Driver.a(hdulibstm32f7xxhaliwdg.o)
 .comment       0x0000006e       0x6f D:\Work\Howell\MD\S17HOWDSPSW\ACCORD\Trunk\SourceCode\DisplayBoard\HAL_Driver\Release\libHAL_Driver.a(hdulibstm32f7xxhalltdc.o)
 .comment       0x0000006e       0x6f D:\Work\Howell\MD\S17HOWDSPSW\ACCORD\Trunk\SourceCode\DisplayBoard\HAL_Driver\Release\libHAL_Driver.a(hdulibstm32f7xxhalmsp.o)
 .comment       0x0000006e       0x6f D:\Work\Howell\MD\S17HOWDSPSW\ACCORD\Trunk\SourceCode\DisplayBoard\HAL_Driver\Release\libHAL_Driver.a(hdulibstm32f7xxhalnor.o)
 .comment       0x0000006e       0x6f D:\Work\Howell\MD\S17HOWDSPSW\ACCORD\Trunk\SourceCode\DisplayBoard\HAL_Driver\Release\libHAL_Driver.a(hdulibstm32f7xxhalpwrex.o)
 .comment       0x0000006e       0x6f D:\Work\Howell\MD\S17HOWDSPSW\ACCORD\Trunk\SourceCode\DisplayBoard\HAL_Driver\Release\libHAL_Driver.a(hdulibstm32f7xxhalrcc.o)
 .comment       0x0000006e       0x6f D:\Work\Howell\MD\S17HOWDSPSW\ACCORD\Trunk\SourceCode\DisplayBoard\HAL_Driver\Release\libHAL_Driver.a(hdulibstm32f7xxhalrccex.o)
 .comment       0x0000006e       0x6f D:\Work\Howell\MD\S17HOWDSPSW\ACCORD\Trunk\SourceCode\DisplayBoard\HAL_Driver\Release\libHAL_Driver.a(hdulibstm32f7xxhalsdram.o)
 .comment       0x0000006e       0x6f D:\Work\Howell\MD\S17HOWDSPSW\ACCORD\Trunk\SourceCode\DisplayBoard\HAL_Driver\Release\libHAL_Driver.a(hdulibstm32f7xxhaltim.o)
 .comment       0x0000006e       0x6f D:\Work\Howell\MD\S17HOWDSPSW\ACCORD\Trunk\SourceCode\DisplayBoard\HAL_Driver\Release\libHAL_Driver.a(hdulibstm32f7xxit.o)
 .comment       0x0000006e       0x6f D:\Work\Howell\MD\S17HOWDSPSW\ACCORD\Trunk\SourceCode\DisplayBoard\HAL_Driver\Release\libHAL_Driver.a(hdulibsystemstm32f7xx.o)
 .comment       0x0000006e       0x6f D:\Work\Howell\MD\S17HOWDSPSW\ACCORD\Trunk\SourceCode\DisplayBoard\HAL_Driver\Release\libHAL_Driver.a(hdulibstm32f7xxhalfmc.o)
 .comment       0x0000006e       0x6f D:\Work\Howell\MD\S17HOWDSPSW\ACCORD\Trunk\SourceCode\DisplayBoard\WIDGETS\Release\libWIDGETS.a(hdudispfconfig.o)
 .comment       0x0000006e       0x6f D:\Work\Howell\MD\S17HOWDSPSW\ACCORD\Trunk\SourceCode\DisplayBoard\WIDGETS\Release\libWIDGETS.a(hdudispffonts.o)
 .comment       0x0000006e       0x6f D:\Work\Howell\MD\S17HOWDSPSW\ACCORD\Trunk\SourceCode\DisplayBoard\WIDGETS\Release\libWIDGETS.a(hdudispfbargraphs.o)
 .comment       0x0000006e       0x6f D:\Work\Howell\MD\S17HOWDSPSW\ACCORD\Trunk\SourceCode\DisplayBoard\WIDGETS\Release\libWIDGETS.a(hdudispfcarrotgraph.o)
 .comment       0x0000006e       0x6f D:\Work\Howell\MD\S17HOWDSPSW\ACCORD\Trunk\SourceCode\DisplayBoard\WIDGETS\Release\libWIDGETS.a(hdudispfnumbox.o)
 .comment       0x0000006e       0x6f D:\Work\Howell\MD\S17HOWDSPSW\ACCORD\Trunk\SourceCode\DisplayBoard\WIDGETS\Release\libWIDGETS.a(hdudispfpolygon1.o)
 .comment       0x0000006e       0x6f D:\Work\Howell\MD\S17HOWDSPSW\ACCORD\Trunk\SourceCode\DisplayBoard\WIDGETS\Release\libWIDGETS.a(hdudispfpolygon2.o)
 .comment       0x0000006e       0x6f D:\Work\Howell\MD\S17HOWDSPSW\ACCORD\Trunk\SourceCode\DisplayBoard\WIDGETS\Release\libWIDGETS.a(hdudispfrounddial.o)
 .comment       0x0000006e       0x6f D:\Work\Howell\MD\S17HOWDSPSW\ACCORD\Trunk\SourceCode\DisplayBoard\WIDGETS\Release\libWIDGETS.a(hdudispftext.o)
 .comment       0x0000006e       0x6f D:\Work\Howell\MD\S17HOWDSPSW\ACCORD\Trunk\SourceCode\DisplayBoard\WIDGETS\Release\libWIDGETS.a(hdudispftextbox.o)
 .comment       0x0000006e       0x6f D:\Work\Howell\MD\S17HOWDSPSW\ACCORD\Trunk\SourceCode\DisplayBoard\WIDGETS\Release\libWIDGETS.a(hdudispftimers.o)
 .comment       0x0000006e       0x6f D:\Work\Howell\MD\S17HOWDSPSW\ACCORD\Trunk\SourceCode\DisplayBoard\WIDGETS\Release\libWIDGETS.a(hdudispfwidgets.o)
 .comment       0x0000006e       0x6f D:\Work\Howell\MD\S17HOWDSPSW\ACCORD\Trunk\SourceCode\DisplayBoard\WIDGETS\Release\libWIDGETS.a(hdudispfbinascii.o)
 .comment       0x0000006e       0x6f D:\Work\Howell\MD\S17HOWDSPSW\ACCORD\Trunk\SourceCode\DisplayBoard\WIDGETS\Release\libWIDGETS.a(hdudispflookup.o)
 .comment       0x0000006e       0x6f D:\Work\Howell\MD\S17HOWDSPSW\ACCORD\Trunk\SourceCode\DisplayBoard\WIDGETS\Release\libWIDGETS.a(hdudispfrterror.o)
 .comment       0x0000006e       0x6f D:\Work\Howell\MD\S17HOWDSPSW\ACCORD\Trunk\SourceCode\DisplayBoard\WIDGETS\Release\libWIDGETS.a(hdudispftimer.o)
 .comment       0x0000006e       0x6f D:\Work\Howell\MD\S17HOWDSPSW\ACCORD\Trunk\SourceCode\DisplayBoard\WIDGETS\Release\libWIDGETS.a(hdudispfbfarmcosq15.o)
 .comment       0x0000006e       0x6f D:\Work\Howell\MD\S17HOWDSPSW\ACCORD\Trunk\SourceCode\DisplayBoard\WIDGETS\Release\libWIDGETS.a(hdudispfbfarmsinq15.o)
 .comment       0x0000006e       0x6f D:\Work\Howell\MD\S17HOWDSPSW\ACCORD\Trunk\SourceCode\DisplayBoard\WIDGETS\Release\libWIDGETS.a(hdudispfbfarmcommontables.o)

.debug_line     0x00000000      0x1ae
 .debug_line    0x00000000       0x93 startup/hdudispfoscpua.o
 .debug_line    0x00000093       0x8f startup/hdudispfpbita.o
 .debug_line    0x00000122       0x8c startup/hdudispfstartupstm32f746xx.o

.debug_info     0x00000000      0x1d8
 .debug_info    0x00000000       0x9b startup/hdudispfoscpua.o
 .debug_info    0x0000009b       0x9a startup/hdudispfpbita.o
 .debug_info    0x00000135       0xa3 startup/hdudispfstartupstm32f746xx.o

.debug_abbrev   0x00000000       0x3a
 .debug_abbrev  0x00000000       0x14 startup/hdudispfoscpua.o
 .debug_abbrev  0x00000014       0x14 startup/hdudispfpbita.o
 .debug_abbrev  0x00000028       0x12 startup/hdudispfstartupstm32f746xx.o

.debug_aranges  0x00000000       0x68
 .debug_aranges
                0x00000000       0x20 startup/hdudispfoscpua.o
 .debug_aranges
                0x00000020       0x20 startup/hdudispfpbita.o
 .debug_aranges
                0x00000040       0x28 startup/hdudispfstartupstm32f746xx.o

.debug_ranges   0x00000000       0x20
 .debug_ranges  0x00000000       0x20 startup/hdudispfstartupstm32f746xx.o

.debug_frame    0x00000000      0x138
 .debug_frame   0x00000000       0x2c c:/ac6/systemworkbench/plugins/fr.ac6.mcu.externaltools.arm-none.win32_1.13.2.201705091103/tools/compiler/bin/../lib/gcc/arm-none-eabi/5.4.1/../../../../arm-none-eabi/lib/armv7e-m/fpu/fpv5-sp-d16\libc.a(lib_a-init.o)
 .debug_frame   0x0000002c       0x34 c:/ac6/systemworkbench/plugins/fr.ac6.mcu.externaltools.arm-none.win32_1.13.2.201705091103/tools/compiler/bin/../lib/gcc/arm-none-eabi/5.4.1/../../../../arm-none-eabi/lib/armv7e-m/fpu/fpv5-sp-d16\libc.a(lib_a-memset.o)
 .debug_frame   0x00000060       0x50 c:/ac6/systemworkbench/plugins/fr.ac6.mcu.externaltools.arm-none.win32_1.13.2.201705091103/tools/compiler/bin/../lib/gcc/arm-none-eabi/5.4.1/../../../../arm-none-eabi/lib/armv7e-m/fpu/fpv5-sp-d16\libc.a(lib_a-__call_atexit.o)
 .debug_frame   0x000000b0       0x20 c:/ac6/systemworkbench/plugins/fr.ac6.mcu.externaltools.arm-none.win32_1.13.2.201705091103/tools/compiler/bin/../lib/gcc/arm-none-eabi/5.4.1/../../../../arm-none-eabi/lib/armv7e-m/fpu/fpv5-sp-d16\libc.a(lib_a-atexit.o)
 .debug_frame   0x000000d0       0x34 c:/ac6/systemworkbench/plugins/fr.ac6.mcu.externaltools.arm-none.win32_1.13.2.201705091103/tools/compiler/bin/../lib/gcc/arm-none-eabi/5.4.1/../../../../arm-none-eabi/lib/armv7e-m/fpu/fpv5-sp-d16\libc.a(lib_a-fini.o)
 .debug_frame   0x00000104       0x34 c:/ac6/systemworkbench/plugins/fr.ac6.mcu.externaltools.arm-none.win32_1.13.2.201705091103/tools/compiler/bin/../lib/gcc/arm-none-eabi/5.4.1/../../../../arm-none-eabi/lib/armv7e-m/fpu/fpv5-sp-d16\libc.a(lib_a-__atexit.o)
